ARM GAS  /cygdrive/c/DOCUME~1/mkwapisz/LOCALS~1/Temp/cc6gu64M.s 			page 1


   1              		.file	"spi.c"
   8 0000 A9000000 		.text
   8      02005A00 
   8      00000201 
   8      FB0E0D00 
   8      01010101 
   9              	.Ltext0:
  10              		.align	2
  11              		.global	setSpiSpeed
  12              		.type	setSpiSpeed, %function
  13              	setSpiSpeed:
  14              	.LFB3:
  15              		.file 1 "src/spi.c"
   1:src/spi.c     **** #include "spi.h"
   2:src/spi.c     **** #include "integer.h"
   3:src/spi.c     **** 
   4:src/spi.c     **** #include "../../../pre_emptive_os/api/general.h"
   5:src/spi.c     **** 
   6:src/spi.c     **** BYTE my_spiSend(BYTE outgoing);
   7:src/spi.c     **** //------------------------------------------------------------------------------
   8:src/spi.c     **** 
   9:src/spi.c     **** void initSpi(void) {
  10:src/spi.c     **** 	// setup GPIO
  11:src/spi.c     **** 	SPI_IODIR |= (1 << SPI_SCK_PIN) | (1 << SPI_MOSI_PIN) | (1 << SPI_SS_PIN);
  12:src/spi.c     **** 	SPI_IODIR &= ~(1 << SPI_MISO_PIN);
  13:src/spi.c     **** 
  14:src/spi.c     **** 	// set Chip-Select high - unselect card
  15:src/spi.c     **** 	UNSELECT_CARD();
  16:src/spi.c     **** 
  17:src/spi.c     **** 	// reset Pin-Functions
  18:src/spi.c     **** 	SPI_PINSEL &= ~((3 << SPI_SCK_FUNCBIT) | (3 << SPI_MISO_FUNCBIT) | (3
  19:src/spi.c     **** 			<< SPI_MOSI_FUNCBIT) | (3 << SPI_SS_FUNCBIT));
  20:src/spi.c     **** 
  21:src/spi.c     **** 	SPI_PINSEL |= ((1 << SPI_SCK_FUNCBIT) | (1 << SPI_MISO_FUNCBIT) | (1
  22:src/spi.c     **** 			<< SPI_MOSI_FUNCBIT));
  23:src/spi.c     **** 
  24:src/spi.c     **** 	// enable SPI-Master
  25:src/spi.c     **** 	S0SPCR = (1 << MSTR) | (0 << CPOL);
  26:src/spi.c     **** 
  27:src/spi.c     **** 	// low speed during init
  28:src/spi.c     **** 	setSpiSpeed(254);
  29:src/spi.c     **** 
  30:src/spi.c     **** 	int i = 0;
  31:src/spi.c     **** 	/* Send 21 spi commands with card not selected */
  32:src/spi.c     **** 	for (i = 0; i < 21; i++) {
  33:src/spi.c     **** 		my_spiSend(0xff);
  34:src/spi.c     **** 	}
  35:src/spi.c     **** }
  36:src/spi.c     **** 
  37:src/spi.c     **** void setSpiSpeed(BYTE speed) {
  16              		.loc 1 37 0
ARM GAS  /cygdrive/c/DOCUME~1/mkwapisz/LOCALS~1/Temp/cc6gu64M.s 			page 2


  17              		@ Function supports interworking.
  18              		@ args = 0, pretend = 0, frame = 0
  19              		@ frame_needed = 0, uses_anonymous_args = 0
  20              		@ link register save eliminated.
  21              	.LVL0:
  38:src/spi.c     **** 	speed &= 0xFE;
  22              		.loc 1 38 0
  23 0000 FE0000E2 		and	r0, r0, #254
  24              	.LVL1:
  39:src/spi.c     **** 	if (speed < SPI_PRESCALE_MIN) {
  25              		.loc 1 39 0
  26 0004 3F0050E3 		cmp	r0, #63
  40:src/spi.c     **** 		speed = SPI_PRESCALE_MIN;
  41:src/spi.c     **** 	}
  42:src/spi.c     **** 
  43:src/spi.c     **** 	SPI_PRESCALE_REG = speed;
  27              		.loc 1 43 0
  28 0008 08309FE5 		ldr	r3, .L5
  29              		.loc 1 39 0
  30 000c 4000A093 		movls	r0, #64
  31              		.loc 1 37 0
  32              		@ lr needed for prologue
  33              		.loc 1 43 0
  34 0010 0C0083E5 		str	r0, [r3, #12]
  44:src/spi.c     **** }
  35              		.loc 1 44 0
  36 0014 1EFF2FE1 		bx	lr
  37              	.L6:
  38              		.align	2
  39              	.L5:
  40 0018 000002E0 		.word	-536739840
  41              	.LFE3:
  42              		.size	setSpiSpeed, .-setSpiSpeed
  43              		.align	2
  44              		.global	my_spiSend
  45              		.type	my_spiSend, %function
  46              	my_spiSend:
  47              	.LFB4:
  45:src/spi.c     **** 
  46:src/spi.c     **** BYTE my_spiSend(BYTE outgoing) {
  48              		.loc 1 46 0
  49              		@ Function supports interworking.
  50              		@ args = 0, pretend = 0, frame = 0
  51              		@ frame_needed = 0, uses_anonymous_args = 0
  52              		@ link register save eliminated.
  53              	.LVL2:
  47:src/spi.c     **** 	//	while (1) {
  48:src/spi.c     **** 	//		if (SEMAFOR_SPI == 0) {
  49:src/spi.c     **** 	//			SEMAFOR_SPI = 1;
  50:src/spi.c     **** 	//			BYTE incoming;
  51:src/spi.c     **** 	//
  52:src/spi.c     **** 	//			S0SPDR = outgoing;
  53:src/spi.c     **** 	//			while (!(S0SPSR & (1 << SPIF)))
  54:src/spi.c     **** 	//				;
  55:src/spi.c     **** 	//			incoming = S0SPDR;
  56:src/spi.c     **** 	//
  57:src/spi.c     **** 	//			SEMAFOR_SPI = 0;
ARM GAS  /cygdrive/c/DOCUME~1/mkwapisz/LOCALS~1/Temp/cc6gu64M.s 			page 3


  58:src/spi.c     **** 	//			return (incoming);
  59:src/spi.c     **** 	//			//			return 1;
  60:src/spi.c     **** 	//		} else {
  61:src/spi.c     **** 	//			SEMAFOR_SPI = 0;
  62:src/spi.c     **** 	//			return 0;
  63:src/spi.c     **** 	//		}
  64:src/spi.c     **** 	//	}
  65:src/spi.c     **** 	BYTE incoming;
  66:src/spi.c     **** 
  67:src/spi.c     **** 	S0SPDR = outgoing;
  54              		.loc 1 67 0
  55 001c 20309FE5 		ldr	r3, .L13
  56              		.loc 1 46 0
  57 0020 FF0000E2 		and	r0, r0, #255
  58              		.loc 1 67 0
  59 0024 080083E5 		str	r0, [r3, #8]
  60              		.loc 1 46 0
  61              		@ lr needed for prologue
  62              	.L8:
  68:src/spi.c     **** 	while (!(S0SPSR & (1 << SPIF)))
  63              		.loc 1 68 0
  64 0028 14209FE5 		ldr	r2, .L13
  65 002c 043092E5 		ldr	r3, [r2, #4]
  66 0030 800013E3 		tst	r3, #128
  67 0034 FBFFFF0A 		beq	.L8
  69:src/spi.c     **** 		;
  70:src/spi.c     **** 	incoming = S0SPDR;
  68              		.loc 1 70 0
  69 0038 080092E5 		ldr	r0, [r2, #8]
  70              	.LVL3:
  71 003c FF0000E2 		and	r0, r0, #255
  71:src/spi.c     **** 
  72:src/spi.c     **** 	return (incoming);
  73:src/spi.c     **** }
  72              		.loc 1 73 0
  73 0040 1EFF2FE1 		bx	lr
  74              	.L14:
  75              		.align	2
  76              	.L13:
  77 0044 000002E0 		.word	-536739840
  78              	.LFE4:
  79              		.size	my_spiSend, .-my_spiSend
  80              		.align	2
  81              		.global	spiSend
  82              		.type	spiSend, %function
  83              	spiSend:
  84              	.LFB5:
  74:src/spi.c     **** 
  75:src/spi.c     **** BYTE incoming;
  76:src/spi.c     **** 
  77:src/spi.c     **** BYTE spiSend(BYTE toSend) {
  85              		.loc 1 77 0
  86              		@ Function supports interworking.
  87              		@ args = 0, pretend = 0, frame = 0
  88              		@ frame_needed = 0, uses_anonymous_args = 0
  89              		@ link register save eliminated.
  90              	.LVL4:
ARM GAS  /cygdrive/c/DOCUME~1/mkwapisz/LOCALS~1/Temp/cc6gu64M.s 			page 4


  78:src/spi.c     **** 	//	while (1) {
  79:src/spi.c     **** 	//		if (SEMAFOR_SPI == 0) {
  80:src/spi.c     **** 	//			SEMAFOR_SPI = 1;
  81:src/spi.c     **** 	//			S0SPDR = toSend;
  82:src/spi.c     **** 	//			while (!(S0SPSR & (1 << SPIF)))
  83:src/spi.c     **** 	//				;
  84:src/spi.c     **** 	//
  85:src/spi.c     **** 	//			incoming = S0SPDR;
  86:src/spi.c     **** 	//
  87:src/spi.c     **** 	//			SEMAFOR_SPI = 0;
  88:src/spi.c     **** 	//			return incoming;
  89:src/spi.c     **** 	//		} else
  90:src/spi.c     **** 	//			return 0;
  91:src/spi.c     **** 	//	}
  92:src/spi.c     **** 	S0SPDR = toSend;
  91              		.loc 1 92 0
  92 0048 34309FE5 		ldr	r3, .L21
  93              		.loc 1 77 0
  94 004c FF0000E2 		and	r0, r0, #255
  95              		.loc 1 92 0
  96 0050 080083E5 		str	r0, [r3, #8]
  97              		.loc 1 77 0
  98              		@ lr needed for prologue
  99              	.L16:
  93:src/spi.c     **** 	while (!(S0SPSR & (1 << SPIF)))
 100              		.loc 1 93 0
 101 0054 28209FE5 		ldr	r2, .L21
 102 0058 043092E5 		ldr	r3, [r2, #4]
 103 005c 800013E3 		tst	r3, #128
 104 0060 FBFFFF0A 		beq	.L16
  94:src/spi.c     **** 		;
  95:src/spi.c     **** 
  96:src/spi.c     **** 	incoming = S0SPDR;
  97:src/spi.c     **** 
  98:src/spi.c     **** 	UNSELECT_CARD();
 105              		.loc 1 98 0
 106 0064 1C309FE5 		ldr	r3, .L21+4
 107              		.loc 1 96 0
 108 0068 080092E5 		ldr	r0, [r2, #8]
 109              	.LVL5:
 110              		.loc 1 98 0
 111 006c 022BA0E3 		mov	r2, #2048
 112 0070 042083E5 		str	r2, [r3, #4]
 113              		.loc 1 96 0
 114 0074 10309FE5 		ldr	r3, .L21+8
 115 0078 FF0000E2 		and	r0, r0, #255
 116 007c 0000C3E5 		strb	r0, [r3, #0]
  99:src/spi.c     **** 
 100:src/spi.c     **** 	return incoming;
 101:src/spi.c     **** }
 117              		.loc 1 101 0
 118 0080 1EFF2FE1 		bx	lr
 119              	.L22:
 120              		.align	2
 121              	.L21:
 122 0084 000002E0 		.word	-536739840
 123 0088 008002E0 		.word	-536707072
ARM GAS  /cygdrive/c/DOCUME~1/mkwapisz/LOCALS~1/Temp/cc6gu64M.s 			page 5


 124 008c 00000000 		.word	incoming
 125              	.LFE5:
 126              		.size	spiSend, .-spiSend
 127              		.align	2
 128              		.global	initSpi
 129              		.type	initSpi, %function
 130              	initSpi:
 131              	.LFB2:
 132              		.loc 1 9 0
 133              		@ Function supports interworking.
 134              		@ args = 0, pretend = 0, frame = 0
 135              		@ frame_needed = 0, uses_anonymous_args = 0
 136              		.loc 1 11 0
 137 0090 70209FE5 		ldr	r2, .L29
 138 0094 083092E5 		ldr	r3, [r2, #8]
 139 0098 853E83E3 		orr	r3, r3, #2128
 140 009c 083082E5 		str	r3, [r2, #8]
 141              		.loc 1 12 0
 142 00a0 083092E5 		ldr	r3, [r2, #8]
 143 00a4 2030C3E3 		bic	r3, r3, #32
 144 00a8 083082E5 		str	r3, [r2, #8]
 145              		.loc 1 15 0
 146 00ac 023BA0E3 		mov	r3, #2048
 147 00b0 043082E5 		str	r3, [r2, #4]
 148              		.loc 1 18 0
 149 00b4 012982E2 		add	r2, r2, #16384
 150 00b8 003092E5 		ldr	r3, [r2, #0]
 151 00bc FF3CC3E3 		bic	r3, r3, #65280
 152 00c0 003082E5 		str	r3, [r2, #0]
 153              		.loc 1 21 0
 154 00c4 003092E5 		ldr	r3, [r2, #0]
 155              		.loc 1 25 0
 156 00c8 3C109FE5 		ldr	r1, .L29+4
 157              		.loc 1 21 0
 158 00cc 153C83E3 		orr	r3, r3, #5376
 159 00d0 003082E5 		str	r3, [r2, #0]
 160              		.loc 1 25 0
 161 00d4 2030A0E3 		mov	r3, #32
 162 00d8 003081E5 		str	r3, [r1, #0]
 163              	.LBB4:
 164              	.LBB5:
 165              		.loc 1 43 0
 166 00dc DE3083E2 		add	r3, r3, #222
 167 00e0 0C3081E5 		str	r3, [r1, #12]
 168              	.LBE5:
 169              	.LBE4:
 170              		.loc 1 9 0
 171 00e4 10402DE9 		stmfd	sp!, {r4, lr}
 172              	.LCFI0:
 173              	.LBB6:
 174              	.LBB7:
 175              		.loc 1 43 0
 176 00e8 0040A0E3 		mov	r4, #0
 177              	.LVL6:
 178              	.L24:
 179              	.LBE7:
 180              	.LBE6:
ARM GAS  /cygdrive/c/DOCUME~1/mkwapisz/LOCALS~1/Temp/cc6gu64M.s 			page 6


 181              		.loc 1 32 0
 182 00ec 014084E2 		add	r4, r4, #1
 183              		.loc 1 33 0
 184 00f0 FF00A0E3 		mov	r0, #255
 185 00f4 FEFFFFEB 		bl	my_spiSend
 186              		.loc 1 32 0
 187 00f8 150054E3 		cmp	r4, #21
 188 00fc FAFFFF1A 		bne	.L24
 189              		.loc 1 35 0
 190 0100 1040BDE8 		ldmfd	sp!, {r4, lr}
 191 0104 1EFF2FE1 		bx	lr
 192              	.L30:
 193              		.align	2
 194              	.L29:
 195 0108 008002E0 		.word	-536707072
 196 010c 000002E0 		.word	-536739840
 197              	.LFE2:
 198              		.size	initSpi, .-initSpi
 199              		.comm	incoming,1,1
 200              		.section	.debug_frame,"",%progbits
 201              	.Lframe0:
 202 0000 0C000000 		.4byte	.LECIE0-.LSCIE0
 203              	.LSCIE0:
 204 0004 FFFFFFFF 		.4byte	0xffffffff
 205 0008 01       		.byte	0x1
 206 0009 00       		.ascii	"\000"
 207 000a 01       		.uleb128 0x1
 208 000b 7C       		.sleb128 -4
 209 000c 0E       		.byte	0xe
 210 000d 0C       		.byte	0xc
 211 000e 0D       		.uleb128 0xd
 212 000f 00       		.uleb128 0x0
 213              		.align	2
 214              	.LECIE0:
 215              	.LSFDE0:
 216 0010 0C000000 		.4byte	.LEFDE0-.LASFDE0
 217              	.LASFDE0:
 218 0014 00000000 		.4byte	.Lframe0
 219 0018 00000000 		.4byte	.LFB3
 220 001c 1C000000 		.4byte	.LFE3-.LFB3
 221              		.align	2
 222              	.LEFDE0:
 223              	.LSFDE2:
 224 0020 0C000000 		.4byte	.LEFDE2-.LASFDE2
 225              	.LASFDE2:
 226 0024 00000000 		.4byte	.Lframe0
 227 0028 1C000000 		.4byte	.LFB4
 228 002c 2C000000 		.4byte	.LFE4-.LFB4
 229              		.align	2
 230              	.LEFDE2:
 231              	.LSFDE4:
 232 0030 0C000000 		.4byte	.LEFDE4-.LASFDE4
 233              	.LASFDE4:
 234 0034 00000000 		.4byte	.Lframe0
 235 0038 48000000 		.4byte	.LFB5
 236 003c 48000000 		.4byte	.LFE5-.LFB5
 237              		.align	2
ARM GAS  /cygdrive/c/DOCUME~1/mkwapisz/LOCALS~1/Temp/cc6gu64M.s 			page 7


 238              	.LEFDE4:
 239              	.LSFDE6:
 240 0040 14000000 		.4byte	.LEFDE6-.LASFDE6
 241              	.LASFDE6:
 242 0044 00000000 		.4byte	.Lframe0
 243 0048 90000000 		.4byte	.LFB2
 244 004c 80000000 		.4byte	.LFE2-.LFB2
 245 0050 02       		.byte	0x4
 246 0051 58       		.4byte	.LCFI0-.LFB2
 247 0052 0E       		.byte	0xe
 248 0053 08       		.uleb128 0x8
 249 0054 8E       		.byte	0x8e
 250 0055 01       		.uleb128 0x1
 251 0056 84       		.byte	0x84
 252 0057 02       		.uleb128 0x2
 253              		.align	2
 254              	.LEFDE6:
 255              		.file 2 "src/integer.h"
 256              		.file 3 "src/../../../pre_emptive_os/api/general.h"
 257              		.text
 258              	.Letext0: