ARM GAS  /cygdrive/c/DOCUME~1/mkwapisz/LOCALS~1/Temp/ccI39Ras.s 			page 1


   1              		.code	16
   2              		.file	"eeprom.c"
   3              		.section	.debug_abbrev,"",%progbits
   4              	.Ldebug_abbrev0:
   5              		.section	.debug_info,"",%progbits
   6              	.Ldebug_info0:
   7              		.section	.debug_line,"",%progbits
   8              	.Ldebug_line0:
   9 0000 0C010000 		.text
   9      02004200 
   9      00000201 
   9      FB0E0D00 
   9      01010101 
  10              	.Ltext0:
  11              		.align	2
  12              		.global	eepromWrite
  13              		.code 16
  14              		.thumb_func
  15              		.type	eepromWrite, %function
  16              	eepromWrite:
  17              	.LFB5:
  18              		.file 1 "eeprom.c"
   1:eeprom.c      **** /******************************************************************************
   2:eeprom.c      ****  * Includes
   3:eeprom.c      ****  *****************************************************************************/
   4:eeprom.c      **** #include "../pre_emptive_os/api/general.h"
   5:eeprom.c      **** #include "i2c.h"
   6:eeprom.c      **** 
   7:eeprom.c      **** /******************************************************************************
   8:eeprom.c      ****  * Defines and typedefs
   9:eeprom.c      ****  *****************************************************************************/
  10:eeprom.c      **** 
  11:eeprom.c      **** #define EEPROM_SIZE       0x0100
  12:eeprom.c      **** #define LOCAL_EEPROM_ADDR 0x0
  13:eeprom.c      **** #define EEPROM_ADDR       0xA0
  14:eeprom.c      **** 
  15:eeprom.c      **** #define I2C_EEPROM_ADDR   (EEPROM_ADDR + (LOCAL_EEPROM_ADDR << 1))
  16:eeprom.c      **** #define I2C_EEPROM_RCV    (EEPROM_ADDR + (LOCAL_EEPROM_ADDR << 1) + 0x01)
  17:eeprom.c      **** #define I2C_EEPROM_SND    (EEPROM_ADDR + (LOCAL_EEPROM_ADDR << 1) + 0x00)
  18:eeprom.c      **** 
  19:eeprom.c      **** 
  20:eeprom.c      **** /******************************************************************************
  21:eeprom.c      ****  * Implementation of public functions
  22:eeprom.c      ****  *****************************************************************************/
  23:eeprom.c      **** 
  24:eeprom.c      **** /******************************************************************************
  25:eeprom.c      ****  *
  26:eeprom.c      ****  * Description:
  27:eeprom.c      ****  *    Waits till I2C returns ACK (after BURN cycle)
  28:eeprom.c      ****  *
  29:eeprom.c      ****  *    Note: After a stop condition, you may need a bus free time before you 
  30:eeprom.c      ****  *          can generate a new start condition.
  31:eeprom.c      ****  *
  32:eeprom.c      ****  * Returns:
  33:eeprom.c      ****  *    I2C_CODE_OK or I2C_CODE_ERROR
  34:eeprom.c      ****  *
  35:eeprom.c      ****  *****************************************************************************/
ARM GAS  /cygdrive/c/DOCUME~1/mkwapisz/LOCALS~1/Temp/ccI39Ras.s 			page 2


  36:eeprom.c      **** tS8 
  37:eeprom.c      **** eepromPoll(void)
  38:eeprom.c      **** {
  39:eeprom.c      ****   tS8 retCode  = I2C_CODE_OK;
  40:eeprom.c      ****   tU8 status   = 0;
  41:eeprom.c      ****   tBool burnEnd = FALSE;
  42:eeprom.c      **** 
  43:eeprom.c      ****   while(burnEnd == FALSE)
  44:eeprom.c      ****   {
  45:eeprom.c      ****     /* Generate Start condition */
  46:eeprom.c      ****     retCode = i2cStart();
  47:eeprom.c      **** 
  48:eeprom.c      ****     /* Transmit SLA+W */
  49:eeprom.c      ****     if(retCode == I2C_CODE_OK)
  50:eeprom.c      ****     {
  51:eeprom.c      ****       /* Write SLA+W */
  52:eeprom.c      ****       retCode = i2cPutChar(I2C_EEPROM_SND);
  53:eeprom.c      ****       while(retCode == I2C_CODE_BUSY)
  54:eeprom.c      ****       {
  55:eeprom.c      ****         retCode = i2cPutChar(I2C_EEPROM_SND);
  56:eeprom.c      ****       }
  57:eeprom.c      ****     }
  58:eeprom.c      **** 
  59:eeprom.c      ****     if(retCode == I2C_CODE_OK)
  60:eeprom.c      ****     {
  61:eeprom.c      ****       /* Wait until SLA+W transmitted */
  62:eeprom.c      ****       /* Get new status */
  63:eeprom.c      ****       status = i2cCheckStatus();
  64:eeprom.c      **** 
  65:eeprom.c      ****       if(status == 0x18)
  66:eeprom.c      ****       {
  67:eeprom.c      ****         /* data transmitted and ACK received */
  68:eeprom.c      ****         burnEnd = TRUE;
  69:eeprom.c      ****       }
  70:eeprom.c      ****       else if(status == 0x20)
  71:eeprom.c      ****       {
  72:eeprom.c      ****         /* data transmitted and ACK not received */
  73:eeprom.c      ****         // send start bit, start again
  74:eeprom.c      ****         burnEnd = FALSE;
  75:eeprom.c      ****       }
  76:eeprom.c      ****       else if( status != 0xf8 )
  77:eeprom.c      ****       {
  78:eeprom.c      ****         /* error ---*/
  79:eeprom.c      ****         retCode = I2C_CODE_ERROR;
  80:eeprom.c      ****         burnEnd = TRUE;
  81:eeprom.c      ****       }
  82:eeprom.c      ****     }
  83:eeprom.c      **** 
  84:eeprom.c      ****     /* Generate Stop condition */
  85:eeprom.c      ****     i2cStop();
  86:eeprom.c      **** 
  87:eeprom.c      ****   } // end of while 
  88:eeprom.c      **** 
  89:eeprom.c      **** 
  90:eeprom.c      ****   return retCode;
  91:eeprom.c      **** 
  92:eeprom.c      **** }
ARM GAS  /cygdrive/c/DOCUME~1/mkwapisz/LOCALS~1/Temp/ccI39Ras.s 			page 3


  93:eeprom.c      **** 
  94:eeprom.c      **** /******************************************************************************
  95:eeprom.c      ****  *
  96:eeprom.c      ****  * Description:
  97:eeprom.c      ****  *    Start a read
  98:eeprom.c      ****  *
  99:eeprom.c      ****  * Params:
 100:eeprom.c      ****  *    [in] devAddr - device address
 101:eeprom.c      ****  *    [in] address - eeprom address
 102:eeprom.c      ****  *
 103:eeprom.c      ****  * Returns:
 104:eeprom.c      ****  *    I2C_CODE_OK or I2C_CODE_ERROR
 105:eeprom.c      ****  *
 106:eeprom.c      ****  *****************************************************************************/
 107:eeprom.c      **** tS8 
 108:eeprom.c      **** eepromStartRead(tU8  devAddr, 
 109:eeprom.c      ****                 tU16 address)
 110:eeprom.c      **** {
 111:eeprom.c      ****   tS8 retCode = 0;
 112:eeprom.c      ****   tU8 status  = 0;
 113:eeprom.c      **** 
 114:eeprom.c      ****   /* Generate Start condition */
 115:eeprom.c      ****   retCode = i2cStart();
 116:eeprom.c      **** 
 117:eeprom.c      ****   /* Transmit address */
 118:eeprom.c      ****   if(retCode == I2C_CODE_OK )
 119:eeprom.c      ****   {
 120:eeprom.c      ****     /* Write SLA+W */
 121:eeprom.c      ****     retCode = i2cPutChar(devAddr);
 122:eeprom.c      ****     while( retCode == I2C_CODE_BUSY )
 123:eeprom.c      ****     {
 124:eeprom.c      ****       retCode = i2cPutChar( devAddr );
 125:eeprom.c      ****     }
 126:eeprom.c      ****   }
 127:eeprom.c      **** 
 128:eeprom.c      ****   if( retCode == I2C_CODE_OK )
 129:eeprom.c      ****   {
 130:eeprom.c      **** #if 0
 131:eeprom.c      ****     /* Wait until data transmitted */
 132:eeprom.c      ****     while(1)
 133:eeprom.c      ****     {
 134:eeprom.c      ****       /* Get new status */
 135:eeprom.c      ****       status = i2cCheckStatus();
 136:eeprom.c      **** 
 137:eeprom.c      ****       if( (status == 0x18) || (status == 0x28) )
 138:eeprom.c      ****       {
 139:eeprom.c      ****         /* Data transmitted and ACK received */
 140:eeprom.c      **** 
 141:eeprom.c      **** 
 142:eeprom.c      ****         /* Write data */
 143:eeprom.c      ****         retCode = i2cPutChar( (tU8)(address >> 8) );
 144:eeprom.c      ****         while(retCode == I2C_CODE_BUSY)
 145:eeprom.c      ****         {
 146:eeprom.c      ****           retCode = i2cPutChar( (tU8)(address >> 8) );
 147:eeprom.c      ****         }
 148:eeprom.c      ****         break;
 149:eeprom.c      ****       }
ARM GAS  /cygdrive/c/DOCUME~1/mkwapisz/LOCALS~1/Temp/ccI39Ras.s 			page 4


 150:eeprom.c      ****       else if(status != 0xf8)
 151:eeprom.c      ****       {
 152:eeprom.c      ****         /* error */
 153:eeprom.c      ****         retCode = I2C_CODE_ERROR;
 154:eeprom.c      ****         break;
 155:eeprom.c      ****       }
 156:eeprom.c      ****     }
 157:eeprom.c      **** #endif
 158:eeprom.c      **** 
 159:eeprom.c      ****     if(retCode == I2C_CODE_OK)
 160:eeprom.c      ****     {
 161:eeprom.c      ****       /* Wait until data transmitted */
 162:eeprom.c      ****       while(1)
 163:eeprom.c      ****       {
 164:eeprom.c      ****         /* Get new status */
 165:eeprom.c      ****         status = i2cCheckStatus();
 166:eeprom.c      **** 
 167:eeprom.c      ****         if( (status == 0x18) || (status == 0x28) )
 168:eeprom.c      ****         {
 169:eeprom.c      ****           /* Data transmitted and ACK received */
 170:eeprom.c      **** 
 171:eeprom.c      **** 
 172:eeprom.c      ****           /* Write data */
 173:eeprom.c      ****           retCode = i2cPutChar( (tU8)(address & 0xff) );
 174:eeprom.c      ****           while( retCode == I2C_CODE_BUSY )
 175:eeprom.c      ****           {
 176:eeprom.c      ****             retCode = i2cPutChar( (tU8)(address & 0xff) );
 177:eeprom.c      ****           }
 178:eeprom.c      **** 
 179:eeprom.c      ****           break;
 180:eeprom.c      ****         }
 181:eeprom.c      ****         else if( status != 0xf8 )
 182:eeprom.c      ****         {
 183:eeprom.c      ****           /*  error */
 184:eeprom.c      ****           retCode = I2C_CODE_ERROR;
 185:eeprom.c      ****           break;
 186:eeprom.c      ****         }
 187:eeprom.c      ****       }
 188:eeprom.c      ****     }
 189:eeprom.c      ****   }
 190:eeprom.c      **** 
 191:eeprom.c      ****   /* Wait until data transmitted */
 192:eeprom.c      ****   while(1)
 193:eeprom.c      ****   {
 194:eeprom.c      ****     /* Get new status */
 195:eeprom.c      ****     status = i2cCheckStatus();
 196:eeprom.c      **** 
 197:eeprom.c      ****     if(status == 0x28)
 198:eeprom.c      ****     {
 199:eeprom.c      ****       /* Data transmitted and ACK received */
 200:eeprom.c      ****       break;
 201:eeprom.c      ****     }
 202:eeprom.c      ****     else if( status != 0xf8 )
 203:eeprom.c      ****     {
 204:eeprom.c      ****       /* error */
 205:eeprom.c      ****       retCode = I2C_CODE_ERROR;
 206:eeprom.c      ****       break;
ARM GAS  /cygdrive/c/DOCUME~1/mkwapisz/LOCALS~1/Temp/ccI39Ras.s 			page 5


 207:eeprom.c      ****     }
 208:eeprom.c      ****   }
 209:eeprom.c      **** 
 210:eeprom.c      ****   /* Generate Start condition */
 211:eeprom.c      ****   retCode = i2cRepeatStart();
 212:eeprom.c      **** 
 213:eeprom.c      ****   /* Transmit device address */
 214:eeprom.c      ****   if( retCode == I2C_CODE_OK)
 215:eeprom.c      ****   {
 216:eeprom.c      ****     /* Write SLA+R */
 217:eeprom.c      ****     retCode = i2cPutChar( devAddr + 0x01 );
 218:eeprom.c      ****     while( retCode == I2C_CODE_BUSY )
 219:eeprom.c      ****     {
 220:eeprom.c      ****       retCode = i2cPutChar( devAddr + 0x01 );
 221:eeprom.c      ****     }
 222:eeprom.c      ****   }
 223:eeprom.c      **** 
 224:eeprom.c      ****   /* Wait until SLA+R transmitted */
 225:eeprom.c      ****   while(1)
 226:eeprom.c      ****   {
 227:eeprom.c      ****     /* Get new status */
 228:eeprom.c      ****     status = i2cCheckStatus();
 229:eeprom.c      **** 
 230:eeprom.c      ****     if(status == 0x40)
 231:eeprom.c      ****     {
 232:eeprom.c      ****       /* Data transmitted and ACK received */
 233:eeprom.c      ****       break;
 234:eeprom.c      ****     }
 235:eeprom.c      ****     else if(status != 0xf8)
 236:eeprom.c      ****     {
 237:eeprom.c      ****       /* error */
 238:eeprom.c      ****       retCode = I2C_CODE_ERROR;
 239:eeprom.c      ****       break;
 240:eeprom.c      ****     }
 241:eeprom.c      ****   }
 242:eeprom.c      **** 
 243:eeprom.c      ****   // Do not generate a stop bit
 244:eeprom.c      **** 
 245:eeprom.c      ****   return retCode;
 246:eeprom.c      **** }
 247:eeprom.c      **** 
 248:eeprom.c      **** //-------------------------------------------------------------
 249:eeprom.c      **** // Random Read followed by sequential read
 250:eeprom.c      **** //-------------------------------------------------------------
 251:eeprom.c      **** // Receive buffer:
 252:eeprom.c      **** // Byte 00: DeviceAddress R/Wn=0 (WRITE)
 253:eeprom.c      **** ////////// Byte 01: EEPROM Address MSB   (A14..A08)
 254:eeprom.c      **** // Byte 02: EEPROM Address LSB   (A07..A00)
 255:eeprom.c      **** // Byte 03: DeviceAddress R/Wn=1 (READ)
 256:eeprom.c      **** // Byte 04 to 67: Buffer for data read from EEPROM
 257:eeprom.c      **** //-------------------------------------------------------------
 258:eeprom.c      **** //  Parameters:
 259:eeprom.c      **** //      pRxData     A pointer to the receive buffer
 260:eeprom.c      **** //      Length      The number of data bytes to receive
 261:eeprom.c      **** //
 262:eeprom.c      **** //  Returns:
 263:eeprom.c      **** //      MA_OK or I2C status code
ARM GAS  /cygdrive/c/DOCUME~1/mkwapisz/LOCALS~1/Temp/ccI39Ras.s 			page 6


 264:eeprom.c      **** //
 265:eeprom.c      **** //-------------------------------------------------------------
 266:eeprom.c      **** tS8 
 267:eeprom.c      **** eepromPageRead(tU16 address, 
 268:eeprom.c      ****                tU8* pBuf, 
 269:eeprom.c      ****                tU16 len) 
 270:eeprom.c      **** {
 271:eeprom.c      ****   tS8  retCode = 0;
 272:eeprom.c      ****   tU8  status  = 0;
 273:eeprom.c      ****   tU16 i       = 0;
 274:eeprom.c      **** 
 275:eeprom.c      ****   /* Write 4 bytes, see 24C256 Random Read */
 276:eeprom.c      ****   retCode = eepromStartRead(I2C_EEPROM_ADDR, address);
 277:eeprom.c      **** 
 278:eeprom.c      **** 
 279:eeprom.c      ****   if( retCode == I2C_CODE_OK )
 280:eeprom.c      ****   {
 281:eeprom.c      ****     /* wait until address transmitted and receive data */
 282:eeprom.c      ****     for(i = 1; i <= len; i++ )
 283:eeprom.c      ****     {
 284:eeprom.c      ****       /* wait until data transmitted */
 285:eeprom.c      ****       while(1)
 286:eeprom.c      ****       {
 287:eeprom.c      ****         /* Get new status */
 288:eeprom.c      ****         status = i2cCheckStatus();
 289:eeprom.c      **** 
 290:eeprom.c      ****         if(( status == 0x40 ) || ( status == 0x48 ) || ( status == 0x50 ))
 291:eeprom.c      ****         {
 292:eeprom.c      ****           /* Data received */
 293:eeprom.c      **** 
 294:eeprom.c      ****           if(i == len )
 295:eeprom.c      ****           {
 296:eeprom.c      ****             /* Set generate NACK */
 297:eeprom.c      ****             retCode = i2cGetChar( I2C_MODE_ACK1, pBuf );
 298:eeprom.c      ****           }
 299:eeprom.c      ****           else
 300:eeprom.c      ****           {
 301:eeprom.c      ****             retCode = i2cGetChar( I2C_MODE_ACK0, pBuf );
 302:eeprom.c      ****           }
 303:eeprom.c      **** 
 304:eeprom.c      ****           /* Read data */
 305:eeprom.c      ****           retCode = i2cGetChar( I2C_MODE_READ, pBuf );
 306:eeprom.c      ****           while( retCode == I2C_CODE_EMPTY )
 307:eeprom.c      ****           {
 308:eeprom.c      ****             retCode = i2cGetChar( I2C_MODE_READ, pBuf );
 309:eeprom.c      ****           }
 310:eeprom.c      ****           pBuf++;
 311:eeprom.c      **** 
 312:eeprom.c      ****           break;
 313:eeprom.c      ****         }
 314:eeprom.c      ****         else if( status != 0xf8 )
 315:eeprom.c      ****         {
 316:eeprom.c      ****           /* ERROR */
 317:eeprom.c      ****           i = len;
 318:eeprom.c      ****           retCode = I2C_CODE_ERROR;
 319:eeprom.c      ****           break;
 320:eeprom.c      ****         }
ARM GAS  /cygdrive/c/DOCUME~1/mkwapisz/LOCALS~1/Temp/ccI39Ras.s 			page 7


 321:eeprom.c      ****       }
 322:eeprom.c      ****     }
 323:eeprom.c      ****   }
 324:eeprom.c      **** 
 325:eeprom.c      ****   /* Generate Stop condition */
 326:eeprom.c      ****   i2cStop();
 327:eeprom.c      **** 
 328:eeprom.c      ****   return retCode;
 329:eeprom.c      **** 
 330:eeprom.c      **** }
 331:eeprom.c      **** 
 332:eeprom.c      **** 
 333:eeprom.c      **** tS8
 334:eeprom.c      **** eepromWrite(tU16 addr,
 335:eeprom.c      ****             tU8* pData,
 336:eeprom.c      ****             tU16 len)
 337:eeprom.c      **** {
  19              		.loc 1 337 0
  20 0000 70B5     		push	{r4, r5, r6, lr}
  21              	.LCFI0:
  22              	.LVL0:
  23              		.loc 1 337 0
  24 0002 0004     		lsl	r0, r0, #16
  25              	.LVL1:
  26 0004 1204     		lsl	r2, r2, #16
  27              	.LVL2:
  28 0006 0C1C     		mov	r4, r1
  29 0008 050C     		lsr	r5, r0, #16
  30              	.LVL3:
  31 000a 160C     		lsr	r6, r2, #16
  32              	.LVL4:
 338:eeprom.c      ****   tS8 retCode = 0;
 339:eeprom.c      ****   tU8 status  = 0;
 340:eeprom.c      ****   tU8 i       = 0;
 341:eeprom.c      **** 
 342:eeprom.c      ****   do
 343:eeprom.c      ****   {
 344:eeprom.c      **** 
 345:eeprom.c      ****     /* generate Start condition */
 346:eeprom.c      ****     retCode = i2cStart();
  33              		.loc 1 346 0
  34 000c FFF7FEFF 		bl	i2cStart
  35              	.LVL5:
 347:eeprom.c      ****     if(retCode != I2C_CODE_OK)
  36              		.loc 1 347 0
  37 0010 0006     		lsl	r0, r0, #24
  38 0012 0016     		asr	r0, r0, #24
  39 0014 0128     		cmp	r0, #1
  40 0016 06D0     		beq	.L19
  41              	.LVL6:
  42              	.L16:
 348:eeprom.c      ****       break;
 349:eeprom.c      **** 
 350:eeprom.c      **** 
 351:eeprom.c      ****     /* write EEPROM I2C address */
 352:eeprom.c      ****     retCode = i2cWriteWithWait(I2C_EEPROM_ADDR);
 353:eeprom.c      ****     if(retCode != I2C_CODE_OK)
ARM GAS  /cygdrive/c/DOCUME~1/mkwapisz/LOCALS~1/Temp/ccI39Ras.s 			page 8


 354:eeprom.c      ****       break;
 355:eeprom.c      **** 
 356:eeprom.c      **** #if 0
 357:eeprom.c      ****     /* write offset high in EEPROM space  */
 358:eeprom.c      ****     retCode = i2cWriteWithWait( (tU8)(addr >> 8));
 359:eeprom.c      ****     if(retCode != I2C_CODE_OK)
 360:eeprom.c      ****       break;
 361:eeprom.c      **** #endif
 362:eeprom.c      **** 
 363:eeprom.c      ****     /* write offset low in EEPROM space  */
 364:eeprom.c      ****     retCode = i2cWriteWithWait( (tU8)(addr & 0xFF));
 365:eeprom.c      ****     if(retCode != I2C_CODE_OK)
 366:eeprom.c      ****       break;
 367:eeprom.c      **** 
 368:eeprom.c      **** 
 369:eeprom.c      ****     /* write data */
 370:eeprom.c      ****     for(i = 0; i <len; i++)
 371:eeprom.c      ****     {
 372:eeprom.c      ****       retCode = i2cWriteWithWait(*pData);
 373:eeprom.c      ****       if(retCode != I2C_CODE_OK)
  43              		.loc 1 373 0
  44 0018 041C     		mov	r4, r0
  45              	.LVL7:
  46              	.L4:
 374:eeprom.c      ****         break;
 375:eeprom.c      **** 
 376:eeprom.c      ****       pData++;
 377:eeprom.c      ****     }
 378:eeprom.c      **** 
 379:eeprom.c      ****   } while(0);
 380:eeprom.c      **** 
 381:eeprom.c      ****   /* generate Stop condition */
 382:eeprom.c      ****   i2cStop();
  47              		.loc 1 382 0
  48 001a FFF7FEFF 		bl	i2cStop
 383:eeprom.c      **** 
 384:eeprom.c      **** 
 385:eeprom.c      ****   return retCode;
 386:eeprom.c      **** }
  49              		.loc 1 386 0
  50 001e 201C     		mov	r0, r4
  51              		@ sp needed for prologue
  52              	.LVL8:
  53              	.LVL9:
  54 0020 70BC     		pop	{r4, r5, r6}
  55 0022 02BC     		pop	{r1}
  56 0024 0847     		bx	r1
  57              	.LVL10:
  58              	.L19:
  59              		.loc 1 352 0
  60 0026 A020     		mov	r0, #160
  61 0028 FFF7FEFF 		bl	i2cWriteWithWait
  62              		.loc 1 353 0
  63 002c 0006     		lsl	r0, r0, #24
  64 002e 0016     		asr	r0, r0, #24
  65 0030 0128     		cmp	r0, #1
  66 0032 F1D1     		bne	.L16
ARM GAS  /cygdrive/c/DOCUME~1/mkwapisz/LOCALS~1/Temp/ccI39Ras.s 			page 9


  67              		.loc 1 364 0
  68 0034 2806     		lsl	r0, r5, #24
  69 0036 000E     		lsr	r0, r0, #24
  70 0038 FFF7FEFF 		bl	i2cWriteWithWait
  71              		.loc 1 365 0
  72 003c 0006     		lsl	r0, r0, #24
  73 003e 0016     		asr	r0, r0, #24
  74 0040 0128     		cmp	r0, #1
  75 0042 E9D1     		bne	.L16
  76              		.loc 1 370 0
  77 0044 002E     		cmp	r6, #0
  78 0046 0FD0     		beq	.L9
  79 0048 0025     		mov	r5, #0
  80              	.LVL11:
  81 004a 05E0     		b	.L11
  82              	.L20:
  83 004c 6B1C     		add	r3, r5, #1
  84 004e 1B06     		lsl	r3, r3, #24
  85 0050 1D0E     		lsr	r5, r3, #24
  86 0052 B542     		cmp	r5, r6
  87 0054 08D2     		bcs	.L9
  88              		.loc 1 376 0
  89 0056 0134     		add	r4, r4, #1
  90              	.L11:
  91              		.loc 1 372 0
  92 0058 2078     		ldrb	r0, [r4]
  93 005a FFF7FEFF 		bl	i2cWriteWithWait
  94              		.loc 1 373 0
  95 005e 0006     		lsl	r0, r0, #24
  96 0060 0016     		asr	r0, r0, #24
  97 0062 0128     		cmp	r0, #1
  98 0064 F2D0     		beq	.L20
  99 0066 D7E7     		b	.L16
 100              	.LVL12:
 101              	.L9:
 102              		.loc 1 376 0
 103 0068 0124     		mov	r4, #1
 104              	.LVL13:
 105 006a D6E7     		b	.L4
 106              	.LFE5:
 107              		.size	eepromWrite, .-eepromWrite
 108              		.align	2
 109              		.global	eepromPoll
 110              		.code 16
 111              		.thumb_func
 112              		.type	eepromPoll, %function
 113              	eepromPoll:
 114              	.LFB2:
 115              		.loc 1 38 0
 116 006c 10B5     		push	{r4, lr}
 117              	.LCFI1:
 118              		.loc 1 46 0
 119 006e FFF7FEFF 		bl	i2cStart
 120              		.loc 1 49 0
 121 0072 0006     		lsl	r0, r0, #24
 122 0074 0016     		asr	r0, r0, #24
 123 0076 0128     		cmp	r0, #1
ARM GAS  /cygdrive/c/DOCUME~1/mkwapisz/LOCALS~1/Temp/ccI39Ras.s 			page 10


 124 0078 07D0     		beq	.L36
 125              	.LVL14:
 126              	.L23:
 127              		.loc 1 85 0
 128 007a FFF7FEFF 		bl	i2cStop
 129              	.LVL15:
 130              		.loc 1 46 0
 131 007e FFF7FEFF 		bl	i2cStart
 132              		.loc 1 49 0
 133 0082 0006     		lsl	r0, r0, #24
 134 0084 0016     		asr	r0, r0, #24
 135 0086 0128     		cmp	r0, #1
 136 0088 F7D1     		bne	.L23
 137              	.L36:
 138              		.loc 1 52 0
 139 008a A020     		mov	r0, #160
 140 008c FFF7FEFF 		bl	i2cPutChar
 141              		.loc 1 53 0
 142 0090 0006     		lsl	r0, r0, #24
 143 0092 0316     		asr	r3, r0, #24
 144 0094 0433     		add	r3, r3, #4
 145 0096 F8D0     		beq	.L36
 146              		.loc 1 59 0
 147 0098 0316     		asr	r3, r0, #24
 148 009a 012B     		cmp	r3, #1
 149 009c EDD1     		bne	.L23
 150              		.loc 1 63 0
 151 009e FFF7FEFF 		bl	i2cCheckStatus
 152              	.LVL16:
 153              		.loc 1 65 0
 154 00a2 1828     		cmp	r0, #24
 155 00a4 0BD0     		beq	.L37
 156              		.loc 1 70 0
 157 00a6 2028     		cmp	r0, #32
 158 00a8 E7D0     		beq	.L23
 159              		.loc 1 76 0
 160 00aa F828     		cmp	r0, #248
 161 00ac E5D0     		beq	.L23
 162              		.loc 1 43 0
 163 00ae 0124     		mov	r4, #1
 164 00b0 6442     		neg	r4, r4
 165              	.L30:
 166              		.loc 1 85 0
 167 00b2 FFF7FEFF 		bl	i2cStop
 168              	.LVL17:
 169              		.loc 1 92 0
 170 00b6 201C     		mov	r0, r4
 171              		@ sp needed for prologue
 172 00b8 10BC     		pop	{r4}
 173 00ba 02BC     		pop	{r1}
 174 00bc 0847     		bx	r1
 175              	.LVL18:
 176              	.L37:
 177              		.loc 1 65 0
 178 00be 0124     		mov	r4, #1
 179 00c0 F7E7     		b	.L30
 180              	.LFE2:
ARM GAS  /cygdrive/c/DOCUME~1/mkwapisz/LOCALS~1/Temp/ccI39Ras.s 			page 11


 181              		.size	eepromPoll, .-eepromPoll
 182 00c2 0000     		.align	2
 183              		.global	eepromStartRead
 184              		.code 16
 185              		.thumb_func
 186              		.type	eepromStartRead, %function
 187              	eepromStartRead:
 188              	.LFB3:
 189              		.loc 1 110 0
 190 00c4 30B5     		push	{r4, r5, lr}
 191              	.LCFI2:
 192              	.LVL19:
 193              		.loc 1 110 0
 194 00c6 0006     		lsl	r0, r0, #24
 195              	.LVL20:
 196 00c8 0904     		lsl	r1, r1, #16
 197              	.LVL21:
 198 00ca 050E     		lsr	r5, r0, #24
 199              	.LVL22:
 200 00cc 0C0C     		lsr	r4, r1, #16
 201              	.LVL23:
 202              		.loc 1 115 0
 203 00ce FFF7FEFF 		bl	i2cStart
 204              		.loc 1 118 0
 205 00d2 0006     		lsl	r0, r0, #24
 206 00d4 0016     		asr	r0, r0, #24
 207 00d6 0128     		cmp	r0, #1
 208 00d8 16D0     		beq	.L70
 209              	.LVL24:
 210              	.L60:
 211              		.loc 1 195 0
 212 00da FFF7FEFF 		bl	i2cCheckStatus
 213              	.LVL25:
 214              		.loc 1 197 0
 215 00de 2828     		cmp	r0, #40
 216 00e0 01D0     		beq	.L48
 217              		.loc 1 202 0
 218 00e2 F828     		cmp	r0, #248
 219 00e4 F9D0     		beq	.L60
 220              	.L48:
 221              		.loc 1 211 0
 222 00e6 FFF7FEFF 		bl	i2cRepeatStart
 223              		.loc 1 214 0
 224 00ea 0406     		lsl	r4, r0, #24
 225              	.LVL26:
 226 00ec 2316     		asr	r3, r4, #24
 227 00ee 012B     		cmp	r3, #1
 228 00f0 29D0     		beq	.L72
 229              	.LVL27:
 230              	.L62:
 231              		.loc 1 228 0
 232 00f2 FFF7FEFF 		bl	i2cCheckStatus
 233              	.LVL28:
 234              	.LVL29:
 235              		.loc 1 230 0
 236 00f6 4028     		cmp	r0, #64
 237 00f8 23D0     		beq	.L73
ARM GAS  /cygdrive/c/DOCUME~1/mkwapisz/LOCALS~1/Temp/ccI39Ras.s 			page 12


 238              		.loc 1 235 0
 239 00fa F828     		cmp	r0, #248
 240 00fc F9D0     		beq	.L62
 241 00fe 0120     		mov	r0, #1
 242              	.LVL30:
 243 0100 4042     		neg	r0, r0
 244              	.L55:
 245              		.loc 1 246 0
 246              		@ sp needed for prologue
 247              	.LVL31:
 248 0102 30BC     		pop	{r4, r5}
 249 0104 02BC     		pop	{r1}
 250 0106 0847     		bx	r1
 251              	.LVL32:
 252              	.L70:
 253              		.loc 1 121 0
 254 0108 281C     		mov	r0, r5
 255 010a FFF7FEFF 		bl	i2cPutChar
 256              		.loc 1 122 0
 257 010e 0006     		lsl	r0, r0, #24
 258 0110 0316     		asr	r3, r0, #24
 259 0112 0433     		add	r3, r3, #4
 260 0114 F8D0     		beq	.L70
 261              		.loc 1 128 0
 262 0116 0316     		asr	r3, r0, #24
 263 0118 012B     		cmp	r3, #1
 264 011a DED1     		bne	.L60
 265 011c 2306     		lsl	r3, r4, #24
 266 011e 1C0E     		lsr	r4, r3, #24
 267              	.LVL33:
 268 0120 03E0     		b	.L43
 269              	.LVL34:
 270              	.L74:
 271              		.loc 1 167 0
 272 0122 2828     		cmp	r0, #40
 273 0124 05D0     		beq	.L44
 274              		.loc 1 181 0
 275 0126 F828     		cmp	r0, #248
 276 0128 D7D1     		bne	.L60
 277              	.L43:
 278              		.loc 1 165 0
 279 012a FFF7FEFF 		bl	i2cCheckStatus
 280              	.LVL35:
 281              	.LVL36:
 282              		.loc 1 167 0
 283 012e 1828     		cmp	r0, #24
 284 0130 F7D1     		bne	.L74
 285              	.L44:
 286              		.loc 1 173 0
 287 0132 201C     		mov	r0, r4
 288              	.LVL37:
 289 0134 FFF7FEFF 		bl	i2cPutChar
 290              		.loc 1 174 0
 291 0138 0006     		lsl	r0, r0, #24
 292 013a 0016     		asr	r0, r0, #24
 293 013c 0430     		add	r0, r0, #4
 294 013e F8D0     		beq	.L44
ARM GAS  /cygdrive/c/DOCUME~1/mkwapisz/LOCALS~1/Temp/ccI39Ras.s 			page 13


 295 0140 CBE7     		b	.L60
 296              	.LVL38:
 297              	.L73:
 298              		.loc 1 230 0
 299 0142 2016     		asr	r0, r4, #24
 300              	.LVL39:
 301 0144 DDE7     		b	.L55
 302              	.L72:
 303              		.loc 1 217 0
 304 0146 6B1C     		add	r3, r5, #1
 305 0148 1B06     		lsl	r3, r3, #24
 306 014a 1D0E     		lsr	r5, r3, #24
 307              	.LVL40:
 308              	.L71:
 309 014c 281C     		mov	r0, r5
 310 014e FFF7FEFF 		bl	i2cPutChar
 311              		.loc 1 218 0
 312 0152 0406     		lsl	r4, r0, #24
 313 0154 2316     		asr	r3, r4, #24
 314 0156 0433     		add	r3, r3, #4
 315 0158 F8D0     		beq	.L71
 316 015a CAE7     		b	.L62
 317              	.LFE3:
 318              		.size	eepromStartRead, .-eepromStartRead
 319              		.align	2
 320              		.global	lm75Read
 321              		.code 16
 322              		.thumb_func
 323              		.type	lm75Read, %function
 324              	lm75Read:
 325              	.LFB6:
 387:eeprom.c      **** 
 388:eeprom.c      **** 
 389:eeprom.c      **** tS8 
 390:eeprom.c      **** lm75Read(tU8 address, tU8* pBuf, tU16 len) 
 391:eeprom.c      **** {
 326              		.loc 1 391 0
 327 015c 70B5     		push	{r4, r5, r6, lr}
 328              	.LCFI3:
 329              	.LVL41:
 330              		.loc 1 391 0
 331 015e 0006     		lsl	r0, r0, #24
 332              	.LVL42:
 333 0160 1204     		lsl	r2, r2, #16
 334              	.LVL43:
 335 0162 0C1C     		mov	r4, r1
 336 0164 000E     		lsr	r0, r0, #24
 337              	.LVL44:
 392:eeprom.c      ****   tS8  retCode = 0;
 393:eeprom.c      ****   tU8  status  = 0;
 394:eeprom.c      ****   tU16 i       = 0;
 395:eeprom.c      **** 
 396:eeprom.c      ****   retCode = eepromStartRead(address, 0);
 338              		.loc 1 396 0
 339 0166 0021     		mov	r1, #0
 340              	.LVL45:
 341              		.loc 1 391 0
ARM GAS  /cygdrive/c/DOCUME~1/mkwapisz/LOCALS~1/Temp/ccI39Ras.s 			page 14


 342 0168 160C     		lsr	r6, r2, #16
 343              	.LVL46:
 344              		.loc 1 396 0
 345 016a FFF7FEFF 		bl	eepromStartRead
 346              	.LVL47:
 397:eeprom.c      **** 
 398:eeprom.c      **** 
 399:eeprom.c      ****   if( retCode == I2C_CODE_OK )
 347              		.loc 1 399 0
 348 016e 0006     		lsl	r0, r0, #24
 349 0170 0016     		asr	r0, r0, #24
 350 0172 0128     		cmp	r0, #1
 351 0174 06D0     		beq	.L76
 352 0176 041C     		mov	r4, r0
 353              	.LVL48:
 354              	.L78:
 400:eeprom.c      ****   {
 401:eeprom.c      ****     /* wait until address transmitted and receive data */
 402:eeprom.c      ****     for(i = 1; i <= len; i++ )
 403:eeprom.c      ****     {
 404:eeprom.c      ****       /* wait until data transmitted */
 405:eeprom.c      ****       while(1)
 406:eeprom.c      ****       {
 407:eeprom.c      ****         /* Get new status */
 408:eeprom.c      ****         status = i2cCheckStatus();
 409:eeprom.c      **** 
 410:eeprom.c      ****         if(( status == 0x40 ) || ( status == 0x48 ) || ( status == 0x50 ))
 411:eeprom.c      ****         {
 412:eeprom.c      ****           /* Data received */
 413:eeprom.c      **** 
 414:eeprom.c      ****           if(i == len )
 415:eeprom.c      ****           {
 416:eeprom.c      ****             /* Set generate NACK */
 417:eeprom.c      ****             retCode = i2cGetChar( I2C_MODE_ACK1, pBuf );
 418:eeprom.c      ****           }
 419:eeprom.c      ****           else
 420:eeprom.c      ****           {
 421:eeprom.c      ****             retCode = i2cGetChar( I2C_MODE_ACK0, pBuf );
 422:eeprom.c      ****           }
 423:eeprom.c      **** 
 424:eeprom.c      ****           /* Read data */
 425:eeprom.c      ****           retCode = i2cGetChar( I2C_MODE_READ, pBuf );
 426:eeprom.c      ****           while( retCode == I2C_CODE_EMPTY )
 427:eeprom.c      ****           {
 428:eeprom.c      ****             retCode = i2cGetChar( I2C_MODE_READ, pBuf );
 429:eeprom.c      ****           }
 430:eeprom.c      ****           pBuf++;
 431:eeprom.c      **** 
 432:eeprom.c      ****           break;
 433:eeprom.c      ****         }
 434:eeprom.c      ****         else if( status != 0xf8 )
 435:eeprom.c      ****         {
 436:eeprom.c      ****           /* ERROR */
 437:eeprom.c      ****           i = len;
 438:eeprom.c      ****           retCode = I2C_CODE_ERROR;
 439:eeprom.c      ****           break;
 440:eeprom.c      ****         }
ARM GAS  /cygdrive/c/DOCUME~1/mkwapisz/LOCALS~1/Temp/ccI39Ras.s 			page 15


 441:eeprom.c      ****       }
 442:eeprom.c      ****     }
 443:eeprom.c      ****   }
 444:eeprom.c      **** 
 445:eeprom.c      ****   /* Generate Stop condition */
 446:eeprom.c      ****   i2cStop();
 355              		.loc 1 446 0
 356 0178 FFF7FEFF 		bl	i2cStop
 357              	.LVL49:
 447:eeprom.c      **** 
 448:eeprom.c      ****   return retCode;
 449:eeprom.c      **** 
 450:eeprom.c      **** }
 358              		.loc 1 450 0
 359 017c 201C     		mov	r0, r4
 360              		@ sp needed for prologue
 361              	.LVL50:
 362              	.LVL51:
 363 017e 70BC     		pop	{r4, r5, r6}
 364 0180 02BC     		pop	{r1}
 365 0182 0847     		bx	r1
 366              	.LVL52:
 367              	.L76:
 368              		.loc 1 402 0
 369 0184 002E     		cmp	r6, #0
 370 0186 2AD0     		beq	.L103
 371 0188 0125     		mov	r5, #1
 372              	.LVL53:
 373              	.LVL54:
 374              	.L102:
 375              		.loc 1 408 0
 376 018a FFF7FEFF 		bl	i2cCheckStatus
 377              	.LVL55:
 378              	.LVL56:
 379              		.loc 1 410 0
 380 018e 4028     		cmp	r0, #64
 381 0190 0FD0     		beq	.L82
 382 0192 4828     		cmp	r0, #72
 383 0194 0DD0     		beq	.L82
 384 0196 5028     		cmp	r0, #80
 385 0198 0BD0     		beq	.L82
 386              		.loc 1 434 0
 387 019a F828     		cmp	r0, #248
 388 019c F5D0     		beq	.L102
 389 019e 351C     		mov	r5, r6
 390 01a0 FF22     		mov	r2, #255
 391              	.LVL57:
 392              	.L91:
 393              		.loc 1 402 0
 394 01a2 6B1C     		add	r3, r5, #1
 395 01a4 1B04     		lsl	r3, r3, #16
 396 01a6 1D0C     		lsr	r5, r3, #16
 397 01a8 AE42     		cmp	r6, r5
 398 01aa EED2     		bcs	.L102
 399 01ac 1306     		lsl	r3, r2, #24
 400 01ae 1C16     		asr	r4, r3, #24
 401              	.LVL58:
ARM GAS  /cygdrive/c/DOCUME~1/mkwapisz/LOCALS~1/Temp/ccI39Ras.s 			page 16


 402 01b0 E2E7     		b	.L78
 403              	.LVL59:
 404              	.L82:
 405              		.loc 1 414 0
 406 01b2 AE42     		cmp	r6, r5
 407 01b4 0ED0     		beq	.L104
 408              		.loc 1 421 0
 409 01b6 0020     		mov	r0, #0
 410              	.LVL60:
 411 01b8 211C     		mov	r1, r4
 412 01ba FFF7FEFF 		bl	i2cGetChar
 413              	.L88:
 414              		.loc 1 425 0
 415 01be 0220     		mov	r0, #2
 416 01c0 211C     		mov	r1, r4
 417 01c2 FFF7FEFF 		bl	i2cGetChar
 418 01c6 0006     		lsl	r0, r0, #24
 419              		.loc 1 426 0
 420 01c8 020E     		lsr	r2, r0, #24
 421              	.LVL61:
 422 01ca 0016     		asr	r0, r0, #24
 423 01cc 0330     		add	r0, r0, #3
 424 01ce F6D0     		beq	.L88
 425              		.loc 1 430 0
 426 01d0 0134     		add	r4, r4, #1
 427 01d2 E6E7     		b	.L91
 428              	.LVL62:
 429              	.L104:
 430              		.loc 1 417 0
 431 01d4 211C     		mov	r1, r4
 432 01d6 0120     		mov	r0, #1
 433              	.LVL63:
 434 01d8 FFF7FEFF 		bl	i2cGetChar
 435 01dc EFE7     		b	.L88
 436              	.LVL64:
 437              	.L103:
 438              		.loc 1 402 0
 439 01de 0124     		mov	r4, #1
 440              	.LVL65:
 441 01e0 CAE7     		b	.L78
 442              	.LFE6:
 443              		.size	lm75Read, .-lm75Read
 444 01e2 0000     		.align	2
 445              		.global	eepromPageRead
 446              		.code 16
 447              		.thumb_func
 448              		.type	eepromPageRead, %function
 449              	eepromPageRead:
 450              	.LFB4:
 451              		.loc 1 270 0
 452 01e4 70B5     		push	{r4, r5, r6, lr}
 453              	.LCFI4:
 454              	.LVL66:
 455              		.loc 1 270 0
 456 01e6 0304     		lsl	r3, r0, #16
 457 01e8 1B0C     		lsr	r3, r3, #16
 458 01ea 1204     		lsl	r2, r2, #16
ARM GAS  /cygdrive/c/DOCUME~1/mkwapisz/LOCALS~1/Temp/ccI39Ras.s 			page 17


 459              	.LVL67:
 460 01ec 0C1C     		mov	r4, r1
 461              		.loc 1 276 0
 462 01ee A020     		mov	r0, #160
 463              	.LVL68:
 464 01f0 191C     		mov	r1, r3
 465              	.LVL69:
 466              		.loc 1 270 0
 467 01f2 160C     		lsr	r6, r2, #16
 468              	.LVL70:
 469              		.loc 1 276 0
 470 01f4 FFF7FEFF 		bl	eepromStartRead
 471              	.LVL71:
 472              		.loc 1 279 0
 473 01f8 0006     		lsl	r0, r0, #24
 474 01fa 0016     		asr	r0, r0, #24
 475 01fc 0128     		cmp	r0, #1
 476 01fe 06D0     		beq	.L106
 477 0200 041C     		mov	r4, r0
 478              	.LVL72:
 479              	.L108:
 480              		.loc 1 326 0
 481 0202 FFF7FEFF 		bl	i2cStop
 482              	.LVL73:
 483              		.loc 1 330 0
 484 0206 201C     		mov	r0, r4
 485              		@ sp needed for prologue
 486              	.LVL74:
 487              	.LVL75:
 488 0208 70BC     		pop	{r4, r5, r6}
 489 020a 02BC     		pop	{r1}
 490 020c 0847     		bx	r1
 491              	.LVL76:
 492              	.L106:
 493              		.loc 1 282 0
 494 020e 002E     		cmp	r6, #0
 495 0210 2AD0     		beq	.L133
 496 0212 0125     		mov	r5, #1
 497              	.LVL77:
 498              	.LVL78:
 499              	.L132:
 500              		.loc 1 288 0
 501 0214 FFF7FEFF 		bl	i2cCheckStatus
 502              	.LVL79:
 503              	.LVL80:
 504              		.loc 1 290 0
 505 0218 4028     		cmp	r0, #64
 506 021a 0FD0     		beq	.L112
 507 021c 4828     		cmp	r0, #72
 508 021e 0DD0     		beq	.L112
 509 0220 5028     		cmp	r0, #80
 510 0222 0BD0     		beq	.L112
 511              		.loc 1 314 0
 512 0224 F828     		cmp	r0, #248
 513 0226 F5D0     		beq	.L132
 514 0228 351C     		mov	r5, r6
 515 022a FF22     		mov	r2, #255
ARM GAS  /cygdrive/c/DOCUME~1/mkwapisz/LOCALS~1/Temp/ccI39Ras.s 			page 18


 516              	.LVL81:
 517              	.L121:
 518              		.loc 1 282 0
 519 022c 6B1C     		add	r3, r5, #1
 520 022e 1B04     		lsl	r3, r3, #16
 521 0230 1D0C     		lsr	r5, r3, #16
 522 0232 AE42     		cmp	r6, r5
 523 0234 EED2     		bcs	.L132
 524 0236 1306     		lsl	r3, r2, #24
 525 0238 1C16     		asr	r4, r3, #24
 526              	.LVL82:
 527 023a E2E7     		b	.L108
 528              	.LVL83:
 529              	.L112:
 530              		.loc 1 294 0
 531 023c AE42     		cmp	r6, r5
 532 023e 0ED0     		beq	.L134
 533              		.loc 1 301 0
 534 0240 0020     		mov	r0, #0
 535              	.LVL84:
 536 0242 211C     		mov	r1, r4
 537 0244 FFF7FEFF 		bl	i2cGetChar
 538              	.L118:
 539              		.loc 1 305 0
 540 0248 0220     		mov	r0, #2
 541 024a 211C     		mov	r1, r4
 542 024c FFF7FEFF 		bl	i2cGetChar
 543 0250 0006     		lsl	r0, r0, #24
 544              		.loc 1 306 0
 545 0252 020E     		lsr	r2, r0, #24
 546              	.LVL85:
 547 0254 0016     		asr	r0, r0, #24
 548 0256 0330     		add	r0, r0, #3
 549 0258 F6D0     		beq	.L118
 550              		.loc 1 310 0
 551 025a 0134     		add	r4, r4, #1
 552 025c E6E7     		b	.L121
 553              	.LVL86:
 554              	.L134:
 555              		.loc 1 297 0
 556 025e 211C     		mov	r1, r4
 557 0260 0120     		mov	r0, #1
 558              	.LVL87:
 559 0262 FFF7FEFF 		bl	i2cGetChar
 560 0266 EFE7     		b	.L118
 561              	.LVL88:
 562              	.L133:
 563              		.loc 1 282 0
 564 0268 0124     		mov	r4, #1
 565              	.LVL89:
 566 026a CAE7     		b	.L108
 567              	.LFE4:
 568              		.size	eepromPageRead, .-eepromPageRead
 569              		.section	.debug_frame,"",%progbits
 570              	.Lframe0:
 571 0000 0C000000 		.4byte	.LECIE0-.LSCIE0
 572              	.LSCIE0:
ARM GAS  /cygdrive/c/DOCUME~1/mkwapisz/LOCALS~1/Temp/ccI39Ras.s 			page 19


 573 0004 FFFFFFFF 		.4byte	0xffffffff
 574 0008 01       		.byte	0x1
 575 0009 00       		.ascii	"\000"
 576 000a 01       		.uleb128 0x1
 577 000b 7C       		.sleb128 -4
 578 000c 0E       		.byte	0xe
 579 000d 0C       		.byte	0xc
 580 000e 0D       		.uleb128 0xd
 581 000f 00       		.uleb128 0x0
 582              		.align	2
 583              	.LECIE0:
 584              	.LSFDE0:
 585 0010 18000000 		.4byte	.LEFDE0-.LASFDE0
 586              	.LASFDE0:
 587 0014 00000000 		.4byte	.Lframe0
 588 0018 00000000 		.4byte	.LFB5
 589 001c 6C000000 		.4byte	.LFE5-.LFB5
 590 0020 42       		.byte	0x4
 591              		.4byte	.LCFI0-.LFB5
 592 0021 0E       		.byte	0xe
 593 0022 10       		.uleb128 0x10
 594 0023 84       		.byte	0x84
 595 0024 04       		.uleb128 0x4
 596 0025 85       		.byte	0x85
 597 0026 03       		.uleb128 0x3
 598 0027 86       		.byte	0x86
 599 0028 02       		.uleb128 0x2
 600 0029 8E       		.byte	0x8e
 601 002a 01       		.uleb128 0x1
 602 002b 00       		.align	2
 603              	.LEFDE0:
 604              	.LSFDE2:
 605 002c 14000000 		.4byte	.LEFDE2-.LASFDE2
 606              	.LASFDE2:
 607 0030 00000000 		.4byte	.Lframe0
 608 0034 6C000000 		.4byte	.LFB2
 609 0038 56000000 		.4byte	.LFE2-.LFB2
 610 003c 42       		.byte	0x4
 611              		.4byte	.LCFI1-.LFB2
 612 003d 0E       		.byte	0xe
 613 003e 08       		.uleb128 0x8
 614 003f 84       		.byte	0x84
 615 0040 02       		.uleb128 0x2
 616 0041 8E       		.byte	0x8e
 617 0042 01       		.uleb128 0x1
 618 0043 00       		.align	2
 619              	.LEFDE2:
 620              	.LSFDE4:
 621 0044 18000000 		.4byte	.LEFDE4-.LASFDE4
 622              	.LASFDE4:
 623 0048 00000000 		.4byte	.Lframe0
 624 004c C4000000 		.4byte	.LFB3
 625 0050 98000000 		.4byte	.LFE3-.LFB3
 626 0054 42       		.byte	0x4
 627              		.4byte	.LCFI2-.LFB3
 628 0055 0E       		.byte	0xe
 629 0056 0C       		.uleb128 0xc
ARM GAS  /cygdrive/c/DOCUME~1/mkwapisz/LOCALS~1/Temp/ccI39Ras.s 			page 20


 630 0057 84       		.byte	0x84
 631 0058 03       		.uleb128 0x3
 632 0059 85       		.byte	0x85
 633 005a 02       		.uleb128 0x2
 634 005b 8E       		.byte	0x8e
 635 005c 01       		.uleb128 0x1
 636 005d 000000   		.align	2
 637              	.LEFDE4:
 638              	.LSFDE6:
 639 0060 18000000 		.4byte	.LEFDE6-.LASFDE6
 640              	.LASFDE6:
 641 0064 00000000 		.4byte	.Lframe0
 642 0068 5C010000 		.4byte	.LFB6
 643 006c 86000000 		.4byte	.LFE6-.LFB6
 644 0070 42       		.byte	0x4
 645              		.4byte	.LCFI3-.LFB6
 646 0071 0E       		.byte	0xe
 647 0072 10       		.uleb128 0x10
 648 0073 84       		.byte	0x84
 649 0074 04       		.uleb128 0x4
 650 0075 85       		.byte	0x85
 651 0076 03       		.uleb128 0x3
 652 0077 86       		.byte	0x86
 653 0078 02       		.uleb128 0x2
 654 0079 8E       		.byte	0x8e
 655 007a 01       		.uleb128 0x1
 656 007b 00       		.align	2
 657              	.LEFDE6:
 658              	.LSFDE8:
 659 007c 18000000 		.4byte	.LEFDE8-.LASFDE8
 660              	.LASFDE8:
 661 0080 00000000 		.4byte	.Lframe0
 662 0084 E4010000 		.4byte	.LFB4
 663 0088 88000000 		.4byte	.LFE4-.LFB4
 664 008c 42       		.byte	0x4
 665              		.4byte	.LCFI4-.LFB4
 666 008d 0E       		.byte	0xe
 667 008e 10       		.uleb128 0x10
 668 008f 84       		.byte	0x84
 669 0090 04       		.uleb128 0x4
 670 0091 85       		.byte	0x85
 671 0092 03       		.uleb128 0x3
 672 0093 86       		.byte	0x86
 673 0094 02       		.uleb128 0x2
 674 0095 8E       		.byte	0x8e
 675 0096 01       		.uleb128 0x1
 676 0097 00       		.align	2
 677              	.LEFDE8:
 678              		.file 2 "../pre_emptive_os/api/general.h"
 679              		.text
 680              	.Letext0:
 681              		.section	.debug_loc,"",%progbits
 682              	.Ldebug_loc0:
 683              	.LLST0:
 684 0000 00000000 		.4byte	.LFB5-.Ltext0
 685 0004 02000000 		.4byte	.LCFI0-.Ltext0
 686 0008 0100     		.2byte	0x1
ARM GAS  /cygdrive/c/DOCUME~1/mkwapisz/LOCALS~1/Temp/ccI39Ras.s 			page 21


 687 000a 5D       		.byte	0x5d
 688 000b 02000000 		.4byte	.LCFI0-.Ltext0
 689 000f 6C000000 		.4byte	.LFE5-.Ltext0
 690 0013 0200     		.2byte	0x2
 691 0015 7D       		.byte	0x7d
 692 0016 10       		.sleb128 16
 693 0017 00000000 		.4byte	0x0
 694 001b 00000000 		.4byte	0x0
 695              	.LLST1:
 696 001f 02000000 		.4byte	.LVL0-.Ltext0
 697 0023 04000000 		.4byte	.LVL1-.Ltext0
 698 0027 0100     		.2byte	0x1
 699 0029 50       		.byte	0x50
 700 002a 0A000000 		.4byte	.LVL3-.Ltext0
 701 002e 20000000 		.4byte	.LVL8-.Ltext0
 702 0032 0100     		.2byte	0x1
 703 0034 55       		.byte	0x55
 704 0035 26000000 		.4byte	.LVL10-.Ltext0
 705 0039 4A000000 		.4byte	.LVL11-.Ltext0
 706 003d 0100     		.2byte	0x1
 707 003f 55       		.byte	0x55
 708 0040 68000000 		.4byte	.LVL12-.Ltext0
 709 0044 6C000000 		.4byte	.LFE5-.Ltext0
 710 0048 0100     		.2byte	0x1
 711 004a 55       		.byte	0x55
 712 004b 00000000 		.4byte	0x0
 713 004f 00000000 		.4byte	0x0
 714              	.LLST2:
 715 0053 02000000 		.4byte	.LVL0-.Ltext0
 716 0057 10000000 		.4byte	.LVL5-.Ltext0
 717 005b 0100     		.2byte	0x1
 718 005d 51       		.byte	0x51
 719 005e 10000000 		.4byte	.LVL5-.Ltext0
 720 0062 1A000000 		.4byte	.LVL7-.Ltext0
 721 0066 0100     		.2byte	0x1
 722 0068 54       		.byte	0x54
 723 0069 26000000 		.4byte	.LVL10-.Ltext0
 724 006d 6A000000 		.4byte	.LVL13-.Ltext0
 725 0071 0100     		.2byte	0x1
 726 0073 54       		.byte	0x54
 727 0074 00000000 		.4byte	0x0
 728 0078 00000000 		.4byte	0x0
 729              	.LLST3:
 730 007c 02000000 		.4byte	.LVL0-.Ltext0
 731 0080 06000000 		.4byte	.LVL2-.Ltext0
 732 0084 0100     		.2byte	0x1
 733 0086 52       		.byte	0x52
 734 0087 0C000000 		.4byte	.LVL4-.Ltext0
 735 008b 20000000 		.4byte	.LVL9-.Ltext0
 736 008f 0100     		.2byte	0x1
 737 0091 56       		.byte	0x56
 738 0092 26000000 		.4byte	.LVL10-.Ltext0
 739 0096 6C000000 		.4byte	.LFE5-.Ltext0
 740 009a 0100     		.2byte	0x1
 741 009c 56       		.byte	0x56
 742 009d 00000000 		.4byte	0x0
 743 00a1 00000000 		.4byte	0x0
ARM GAS  /cygdrive/c/DOCUME~1/mkwapisz/LOCALS~1/Temp/ccI39Ras.s 			page 22


 744              	.LLST4:
 745 00a5 18000000 		.4byte	.LVL6-.Ltext0
 746 00a9 20000000 		.4byte	.LVL8-.Ltext0
 747 00ad 0100     		.2byte	0x1
 748 00af 55       		.byte	0x55
 749 00b0 4A000000 		.4byte	.LVL11-.Ltext0
 750 00b4 6C000000 		.4byte	.LFE5-.Ltext0
 751 00b8 0100     		.2byte	0x1
 752 00ba 55       		.byte	0x55
 753 00bb 00000000 		.4byte	0x0
 754 00bf 00000000 		.4byte	0x0
 755              	.LLST5:
 756 00c3 6C000000 		.4byte	.LFB2-.Ltext0
 757 00c7 6E000000 		.4byte	.LCFI1-.Ltext0
 758 00cb 0100     		.2byte	0x1
 759 00cd 5D       		.byte	0x5d
 760 00ce 6E000000 		.4byte	.LCFI1-.Ltext0
 761 00d2 C2000000 		.4byte	.LFE2-.Ltext0
 762 00d6 0200     		.2byte	0x2
 763 00d8 7D       		.byte	0x7d
 764 00d9 08       		.sleb128 8
 765 00da 00000000 		.4byte	0x0
 766 00de 00000000 		.4byte	0x0
 767              	.LLST6:
 768 00e2 7A000000 		.4byte	.LVL14-.Ltext0
 769 00e6 7E000000 		.4byte	.LVL15-.Ltext0
 770 00ea 0100     		.2byte	0x1
 771 00ec 50       		.byte	0x50
 772 00ed A2000000 		.4byte	.LVL16-.Ltext0
 773 00f1 B6000000 		.4byte	.LVL17-.Ltext0
 774 00f5 0100     		.2byte	0x1
 775 00f7 50       		.byte	0x50
 776 00f8 BE000000 		.4byte	.LVL18-.Ltext0
 777 00fc C2000000 		.4byte	.LFE2-.Ltext0
 778 0100 0100     		.2byte	0x1
 779 0102 50       		.byte	0x50
 780 0103 00000000 		.4byte	0x0
 781 0107 00000000 		.4byte	0x0
 782              	.LLST7:
 783 010b C4000000 		.4byte	.LFB3-.Ltext0
 784 010f C6000000 		.4byte	.LCFI2-.Ltext0
 785 0113 0100     		.2byte	0x1
 786 0115 5D       		.byte	0x5d
 787 0116 C6000000 		.4byte	.LCFI2-.Ltext0
 788 011a 5C010000 		.4byte	.LFE3-.Ltext0
 789 011e 0200     		.2byte	0x2
 790 0120 7D       		.byte	0x7d
 791 0121 0C       		.sleb128 12
 792 0122 00000000 		.4byte	0x0
 793 0126 00000000 		.4byte	0x0
 794              	.LLST8:
 795 012a C6000000 		.4byte	.LVL19-.Ltext0
 796 012e C8000000 		.4byte	.LVL20-.Ltext0
 797 0132 0100     		.2byte	0x1
 798 0134 50       		.byte	0x50
 799 0135 CC000000 		.4byte	.LVL22-.Ltext0
 800 0139 02010000 		.4byte	.LVL31-.Ltext0
ARM GAS  /cygdrive/c/DOCUME~1/mkwapisz/LOCALS~1/Temp/ccI39Ras.s 			page 23


 801 013d 0100     		.2byte	0x1
 802 013f 55       		.byte	0x55
 803 0140 08010000 		.4byte	.LVL32-.Ltext0
 804 0144 4C010000 		.4byte	.LVL40-.Ltext0
 805 0148 0100     		.2byte	0x1
 806 014a 55       		.byte	0x55
 807 014b 00000000 		.4byte	0x0
 808 014f 00000000 		.4byte	0x0
 809              	.LLST9:
 810 0153 C6000000 		.4byte	.LVL19-.Ltext0
 811 0157 CA000000 		.4byte	.LVL21-.Ltext0
 812 015b 0100     		.2byte	0x1
 813 015d 51       		.byte	0x51
 814 015e CE000000 		.4byte	.LVL23-.Ltext0
 815 0162 EC000000 		.4byte	.LVL26-.Ltext0
 816 0166 0100     		.2byte	0x1
 817 0168 54       		.byte	0x54
 818 0169 08010000 		.4byte	.LVL32-.Ltext0
 819 016d 20010000 		.4byte	.LVL33-.Ltext0
 820 0171 0100     		.2byte	0x1
 821 0173 54       		.byte	0x54
 822 0174 00000000 		.4byte	0x0
 823 0178 00000000 		.4byte	0x0
 824              	.LLST10:
 825 017c DA000000 		.4byte	.LVL24-.Ltext0
 826 0180 DE000000 		.4byte	.LVL25-.Ltext0
 827 0184 0100     		.2byte	0x1
 828 0186 50       		.byte	0x50
 829 0187 F2000000 		.4byte	.LVL27-.Ltext0
 830 018b F6000000 		.4byte	.LVL28-.Ltext0
 831 018f 0100     		.2byte	0x1
 832 0191 50       		.byte	0x50
 833 0192 F6000000 		.4byte	.LVL29-.Ltext0
 834 0196 00010000 		.4byte	.LVL30-.Ltext0
 835 019a 0100     		.2byte	0x1
 836 019c 50       		.byte	0x50
 837 019d 22010000 		.4byte	.LVL34-.Ltext0
 838 01a1 2E010000 		.4byte	.LVL35-.Ltext0
 839 01a5 0100     		.2byte	0x1
 840 01a7 50       		.byte	0x50
 841 01a8 2E010000 		.4byte	.LVL36-.Ltext0
 842 01ac 34010000 		.4byte	.LVL37-.Ltext0
 843 01b0 0100     		.2byte	0x1
 844 01b2 50       		.byte	0x50
 845 01b3 42010000 		.4byte	.LVL38-.Ltext0
 846 01b7 44010000 		.4byte	.LVL39-.Ltext0
 847 01bb 0100     		.2byte	0x1
 848 01bd 50       		.byte	0x50
 849 01be 00000000 		.4byte	0x0
 850 01c2 00000000 		.4byte	0x0
 851              	.LLST11:
 852 01c6 5C010000 		.4byte	.LFB6-.Ltext0
 853 01ca 5E010000 		.4byte	.LCFI3-.Ltext0
 854 01ce 0100     		.2byte	0x1
 855 01d0 5D       		.byte	0x5d
 856 01d1 5E010000 		.4byte	.LCFI3-.Ltext0
 857 01d5 E2010000 		.4byte	.LFE6-.Ltext0
ARM GAS  /cygdrive/c/DOCUME~1/mkwapisz/LOCALS~1/Temp/ccI39Ras.s 			page 24


 858 01d9 0200     		.2byte	0x2
 859 01db 7D       		.byte	0x7d
 860 01dc 10       		.sleb128 16
 861 01dd 00000000 		.4byte	0x0
 862 01e1 00000000 		.4byte	0x0
 863              	.LLST12:
 864 01e5 5E010000 		.4byte	.LVL41-.Ltext0
 865 01e9 60010000 		.4byte	.LVL42-.Ltext0
 866 01ed 0100     		.2byte	0x1
 867 01ef 50       		.byte	0x50
 868 01f0 66010000 		.4byte	.LVL44-.Ltext0
 869 01f4 6E010000 		.4byte	.LVL47-.Ltext0
 870 01f8 0100     		.2byte	0x1
 871 01fa 50       		.byte	0x50
 872 01fb 00000000 		.4byte	0x0
 873 01ff 00000000 		.4byte	0x0
 874              	.LLST13:
 875 0203 5E010000 		.4byte	.LVL41-.Ltext0
 876 0207 68010000 		.4byte	.LVL45-.Ltext0
 877 020b 0100     		.2byte	0x1
 878 020d 51       		.byte	0x51
 879 020e 68010000 		.4byte	.LVL45-.Ltext0
 880 0212 78010000 		.4byte	.LVL48-.Ltext0
 881 0216 0100     		.2byte	0x1
 882 0218 54       		.byte	0x54
 883 0219 84010000 		.4byte	.LVL52-.Ltext0
 884 021d B0010000 		.4byte	.LVL58-.Ltext0
 885 0221 0100     		.2byte	0x1
 886 0223 54       		.byte	0x54
 887 0224 B2010000 		.4byte	.LVL59-.Ltext0
 888 0228 E0010000 		.4byte	.LVL65-.Ltext0
 889 022c 0100     		.2byte	0x1
 890 022e 54       		.byte	0x54
 891 022f 00000000 		.4byte	0x0
 892 0233 00000000 		.4byte	0x0
 893              	.LLST14:
 894 0237 5E010000 		.4byte	.LVL41-.Ltext0
 895 023b 62010000 		.4byte	.LVL43-.Ltext0
 896 023f 0100     		.2byte	0x1
 897 0241 52       		.byte	0x52
 898 0242 6A010000 		.4byte	.LVL46-.Ltext0
 899 0246 7E010000 		.4byte	.LVL51-.Ltext0
 900 024a 0100     		.2byte	0x1
 901 024c 56       		.byte	0x56
 902 024d 84010000 		.4byte	.LVL52-.Ltext0
 903 0251 E2010000 		.4byte	.LFE6-.Ltext0
 904 0255 0100     		.2byte	0x1
 905 0257 56       		.byte	0x56
 906 0258 00000000 		.4byte	0x0
 907 025c 00000000 		.4byte	0x0
 908              	.LLST15:
 909 0260 78010000 		.4byte	.LVL48-.Ltext0
 910 0264 7C010000 		.4byte	.LVL49-.Ltext0
 911 0268 0100     		.2byte	0x1
 912 026a 52       		.byte	0x52
 913 026b 8A010000 		.4byte	.LVL54-.Ltext0
 914 026f 8E010000 		.4byte	.LVL55-.Ltext0
ARM GAS  /cygdrive/c/DOCUME~1/mkwapisz/LOCALS~1/Temp/ccI39Ras.s 			page 25


 915 0273 0100     		.2byte	0x1
 916 0275 52       		.byte	0x52
 917 0276 A2010000 		.4byte	.LVL57-.Ltext0
 918 027a B2010000 		.4byte	.LVL59-.Ltext0
 919 027e 0100     		.2byte	0x1
 920 0280 52       		.byte	0x52
 921 0281 CA010000 		.4byte	.LVL61-.Ltext0
 922 0285 D4010000 		.4byte	.LVL62-.Ltext0
 923 0289 0100     		.2byte	0x1
 924 028b 52       		.byte	0x52
 925 028c 00000000 		.4byte	0x0
 926 0290 00000000 		.4byte	0x0
 927              	.LLST16:
 928 0294 78010000 		.4byte	.LVL48-.Ltext0
 929 0298 7C010000 		.4byte	.LVL49-.Ltext0
 930 029c 0100     		.2byte	0x1
 931 029e 50       		.byte	0x50
 932 029f 8A010000 		.4byte	.LVL54-.Ltext0
 933 02a3 8E010000 		.4byte	.LVL55-.Ltext0
 934 02a7 0100     		.2byte	0x1
 935 02a9 50       		.byte	0x50
 936 02aa 8E010000 		.4byte	.LVL56-.Ltext0
 937 02ae B8010000 		.4byte	.LVL60-.Ltext0
 938 02b2 0100     		.2byte	0x1
 939 02b4 50       		.byte	0x50
 940 02b5 D4010000 		.4byte	.LVL62-.Ltext0
 941 02b9 D8010000 		.4byte	.LVL63-.Ltext0
 942 02bd 0100     		.2byte	0x1
 943 02bf 50       		.byte	0x50
 944 02c0 00000000 		.4byte	0x0
 945 02c4 00000000 		.4byte	0x0
 946              	.LLST17:
 947 02c8 78010000 		.4byte	.LVL48-.Ltext0
 948 02cc 7E010000 		.4byte	.LVL50-.Ltext0
 949 02d0 0100     		.2byte	0x1
 950 02d2 55       		.byte	0x55
 951 02d3 8A010000 		.4byte	.LVL53-.Ltext0
 952 02d7 DE010000 		.4byte	.LVL64-.Ltext0
 953 02db 0100     		.2byte	0x1
 954 02dd 55       		.byte	0x55
 955 02de 00000000 		.4byte	0x0
 956 02e2 00000000 		.4byte	0x0
 957              	.LLST18:
 958 02e6 E4010000 		.4byte	.LFB4-.Ltext0
 959 02ea E6010000 		.4byte	.LCFI4-.Ltext0
 960 02ee 0100     		.2byte	0x1
 961 02f0 5D       		.byte	0x5d
 962 02f1 E6010000 		.4byte	.LCFI4-.Ltext0
 963 02f5 6C020000 		.4byte	.LFE4-.Ltext0
 964 02f9 0200     		.2byte	0x2
 965 02fb 7D       		.byte	0x7d
 966 02fc 10       		.sleb128 16
 967 02fd 00000000 		.4byte	0x0
 968 0301 00000000 		.4byte	0x0
 969              	.LLST19:
 970 0305 E6010000 		.4byte	.LVL66-.Ltext0
 971 0309 F0010000 		.4byte	.LVL68-.Ltext0
ARM GAS  /cygdrive/c/DOCUME~1/mkwapisz/LOCALS~1/Temp/ccI39Ras.s 			page 26


 972 030d 0100     		.2byte	0x1
 973 030f 50       		.byte	0x50
 974 0310 F0010000 		.4byte	.LVL68-.Ltext0
 975 0314 F8010000 		.4byte	.LVL71-.Ltext0
 976 0318 0100     		.2byte	0x1
 977 031a 53       		.byte	0x53
 978 031b 00000000 		.4byte	0x0
 979 031f 00000000 		.4byte	0x0
 980              	.LLST20:
 981 0323 E6010000 		.4byte	.LVL66-.Ltext0
 982 0327 F2010000 		.4byte	.LVL69-.Ltext0
 983 032b 0100     		.2byte	0x1
 984 032d 51       		.byte	0x51
 985 032e F2010000 		.4byte	.LVL69-.Ltext0
 986 0332 02020000 		.4byte	.LVL72-.Ltext0
 987 0336 0100     		.2byte	0x1
 988 0338 54       		.byte	0x54
 989 0339 0E020000 		.4byte	.LVL76-.Ltext0
 990 033d 3A020000 		.4byte	.LVL82-.Ltext0
 991 0341 0100     		.2byte	0x1
 992 0343 54       		.byte	0x54
 993 0344 3C020000 		.4byte	.LVL83-.Ltext0
 994 0348 6A020000 		.4byte	.LVL89-.Ltext0
 995 034c 0100     		.2byte	0x1
 996 034e 54       		.byte	0x54
 997 034f 00000000 		.4byte	0x0
 998 0353 00000000 		.4byte	0x0
 999              	.LLST21:
 1000 0357 E6010000 		.4byte	.LVL66-.Ltext0
 1001 035b EC010000 		.4byte	.LVL67-.Ltext0
 1002 035f 0100     		.2byte	0x1
 1003 0361 52       		.byte	0x52
 1004 0362 F4010000 		.4byte	.LVL70-.Ltext0
 1005 0366 08020000 		.4byte	.LVL75-.Ltext0
 1006 036a 0100     		.2byte	0x1
 1007 036c 56       		.byte	0x56
 1008 036d 0E020000 		.4byte	.LVL76-.Ltext0
 1009 0371 6C020000 		.4byte	.LFE4-.Ltext0
 1010 0375 0100     		.2byte	0x1
 1011 0377 56       		.byte	0x56
 1012 0378 00000000 		.4byte	0x0
 1013 037c 00000000 		.4byte	0x0
 1014              	.LLST22:
 1015 0380 02020000 		.4byte	.LVL72-.Ltext0
 1016 0384 06020000 		.4byte	.LVL73-.Ltext0
 1017 0388 0100     		.2byte	0x1
 1018 038a 52       		.byte	0x52
 1019 038b 14020000 		.4byte	.LVL78-.Ltext0
 1020 038f 18020000 		.4byte	.LVL79-.Ltext0
 1021 0393 0100     		.2byte	0x1
 1022 0395 52       		.byte	0x52
 1023 0396 2C020000 		.4byte	.LVL81-.Ltext0
 1024 039a 3C020000 		.4byte	.LVL83-.Ltext0
 1025 039e 0100     		.2byte	0x1
 1026 03a0 52       		.byte	0x52
 1027 03a1 54020000 		.4byte	.LVL85-.Ltext0
 1028 03a5 5E020000 		.4byte	.LVL86-.Ltext0
ARM GAS  /cygdrive/c/DOCUME~1/mkwapisz/LOCALS~1/Temp/ccI39Ras.s 			page 27


 1029 03a9 0100     		.2byte	0x1
 1030 03ab 52       		.byte	0x52
 1031 03ac 00000000 		.4byte	0x0
 1032 03b0 00000000 		.4byte	0x0
 1033              	.LLST23:
 1034 03b4 02020000 		.4byte	.LVL72-.Ltext0
 1035 03b8 06020000 		.4byte	.LVL73-.Ltext0
 1036 03bc 0100     		.2byte	0x1
 1037 03be 50       		.byte	0x50
 1038 03bf 14020000 		.4byte	.LVL78-.Ltext0
 1039 03c3 18020000 		.4byte	.LVL79-.Ltext0
 1040 03c7 0100     		.2byte	0x1
 1041 03c9 50       		.byte	0x50
 1042 03ca 18020000 		.4byte	.LVL80-.Ltext0
 1043 03ce 42020000 		.4byte	.LVL84-.Ltext0
 1044 03d2 0100     		.2byte	0x1
 1045 03d4 50       		.byte	0x50
 1046 03d5 5E020000 		.4byte	.LVL86-.Ltext0
 1047 03d9 62020000 		.4byte	.LVL87-.Ltext0
 1048 03dd 0100     		.2byte	0x1
 1049 03df 50       		.byte	0x50
 1050 03e0 00000000 		.4byte	0x0
 1051 03e4 00000000 		.4byte	0x0
 1052              	.LLST24:
 1053 03e8 02020000 		.4byte	.LVL72-.Ltext0
 1054 03ec 08020000 		.4byte	.LVL74-.Ltext0
 1055 03f0 0100     		.2byte	0x1
 1056 03f2 55       		.byte	0x55
 1057 03f3 14020000 		.4byte	.LVL77-.Ltext0
 1058 03f7 68020000 		.4byte	.LVL88-.Ltext0
 1059 03fb 0100     		.2byte	0x1
 1060 03fd 55       		.byte	0x55
 1061 03fe 00000000 		.4byte	0x0
 1062 0402 00000000 		.4byte	0x0
 1063              		.section	.debug_info
 1064 0000 AB020000 		.4byte	0x2ab
 1065 0004 0200     		.2byte	0x2
 1066 0006 00000000 		.4byte	.Ldebug_abbrev0
 1067 000a 04       		.byte	0x4
 1068 000b 01       		.uleb128 0x1
 1069 000c 00000000 		.4byte	.Ldebug_line0
 1070 0010 6C020000 		.4byte	.Letext0
 1071 0014 00000000 		.4byte	.Ltext0
 1072 0018 92000000 		.4byte	.LASF24
 1073 001c 01       		.byte	0x1
 1074 001d 02010000 		.4byte	.LASF25
 1075 0021 30000000 		.4byte	.LASF26
 1076 0025 02       		.uleb128 0x2
 1077 0026 74553800 		.ascii	"tU8\000"
 1078 002a 02       		.byte	0x2
 1079 002b 48       		.byte	0x48
 1080 002c 30000000 		.4byte	0x30
 1081 0030 03       		.uleb128 0x3
 1082 0031 63000000 		.4byte	.LASF1
 1083 0035 01       		.byte	0x1
 1084 0036 08       		.byte	0x8
 1085 0037 04       		.uleb128 0x4
ARM GAS  /cygdrive/c/DOCUME~1/mkwapisz/LOCALS~1/Temp/ccI39Ras.s 			page 28


 1086 0038 E3000000 		.4byte	.LASF0
 1087 003c 02       		.byte	0x2
 1088 003d 49       		.byte	0x49
 1089 003e 42000000 		.4byte	0x42
 1090 0042 03       		.uleb128 0x3
 1091 0043 11000000 		.4byte	.LASF2
 1092 0047 02       		.byte	0x2
 1093 0048 07       		.byte	0x7
 1094 0049 03       		.uleb128 0x3
 1095 004a A7000000 		.4byte	.LASF3
 1096 004e 04       		.byte	0x4
 1097 004f 07       		.byte	0x7
 1098 0050 02       		.uleb128 0x2
 1099 0051 74533800 		.ascii	"tS8\000"
 1100 0055 02       		.byte	0x2
 1101 0056 4B       		.byte	0x4b
 1102 0057 5B000000 		.4byte	0x5b
 1103 005b 03       		.uleb128 0x3
 1104 005c 23010000 		.4byte	.LASF4
 1105 0060 01       		.byte	0x1
 1106 0061 06       		.byte	0x6
 1107 0062 03       		.uleb128 0x3
 1108 0063 0B010000 		.4byte	.LASF5
 1109 0067 02       		.byte	0x2
 1110 0068 05       		.byte	0x5
 1111 0069 05       		.uleb128 0x5
 1112 006a 696E7400 		.ascii	"int\000"
 1113 006e 04       		.byte	0x4
 1114 006f 05       		.byte	0x5
 1115 0070 04       		.uleb128 0x4
 1116 0071 3E010000 		.4byte	.LASF6
 1117 0075 02       		.byte	0x2
 1118 0076 4E       		.byte	0x4e
 1119 0077 30000000 		.4byte	0x30
 1120 007b 04       		.uleb128 0x4
 1121 007c 7C000000 		.4byte	.LASF7
 1122 0080 02       		.byte	0x2
 1123 0081 57       		.byte	0x57
 1124 0082 30000000 		.4byte	0x30
 1125 0086 03       		.uleb128 0x3
 1126 0087 E8000000 		.4byte	.LASF8
 1127 008b 08       		.byte	0x8
 1128 008c 05       		.byte	0x5
 1129 008d 03       		.uleb128 0x3
 1130 008e BC000000 		.4byte	.LASF9
 1131 0092 08       		.byte	0x8
 1132 0093 07       		.byte	0x7
 1133 0094 06       		.uleb128 0x6
 1134 0095 09010000 		.4byte	0x109
 1135 0099 01       		.byte	0x1
 1136 009a 00000000 		.4byte	.LASF14
 1137 009e 01       		.byte	0x1
 1138 009f 5101     		.2byte	0x151
 1139 00a1 01       		.byte	0x1
 1140 00a2 50000000 		.4byte	0x50
 1141 00a6 00000000 		.4byte	.LFB5
 1142 00aa 6C000000 		.4byte	.LFE5
ARM GAS  /cygdrive/c/DOCUME~1/mkwapisz/LOCALS~1/Temp/ccI39Ras.s 			page 29


 1143 00ae 00000000 		.4byte	.LLST0
 1144 00b2 07       		.uleb128 0x7
 1145 00b3 2B000000 		.4byte	.LASF10
 1146 00b7 01       		.byte	0x1
 1147 00b8 4E01     		.2byte	0x14e
 1148 00ba 37000000 		.4byte	0x37
 1149 00be 1F000000 		.4byte	.LLST1
 1150 00c2 07       		.uleb128 0x7
 1151 00c3 1D010000 		.4byte	.LASF11
 1152 00c7 01       		.byte	0x1
 1153 00c8 4F01     		.2byte	0x14f
 1154 00ca 09010000 		.4byte	0x109
 1155 00ce 53000000 		.4byte	.LLST2
 1156 00d2 08       		.uleb128 0x8
 1157 00d3 6C656E00 		.ascii	"len\000"
 1158 00d7 01       		.byte	0x1
 1159 00d8 5001     		.2byte	0x150
 1160 00da 37000000 		.4byte	0x37
 1161 00de 7C000000 		.4byte	.LLST3
 1162 00e2 09       		.uleb128 0x9
 1163 00e3 D3000000 		.4byte	.LASF12
 1164 00e7 01       		.byte	0x1
 1165 00e8 5201     		.2byte	0x152
 1166 00ea 50000000 		.4byte	0x50
 1167 00ee 09       		.uleb128 0x9
 1168 00ef 24000000 		.4byte	.LASF13
 1169 00f3 01       		.byte	0x1
 1170 00f4 5301     		.2byte	0x153
 1171 00f6 25000000 		.4byte	0x25
 1172 00fa 0A       		.uleb128 0xa
 1173 00fb 6900     		.ascii	"i\000"
 1174 00fd 01       		.byte	0x1
 1175 00fe 5401     		.2byte	0x154
 1176 0100 25000000 		.4byte	0x25
 1177 0104 A5000000 		.4byte	.LLST4
 1178 0108 00       		.byte	0x0
 1179 0109 0B       		.uleb128 0xb
 1180 010a 04       		.byte	0x4
 1181 010b 25000000 		.4byte	0x25
 1182 010f 0C       		.uleb128 0xc
 1183 0110 52010000 		.4byte	0x152
 1184 0114 01       		.byte	0x1
 1185 0115 71000000 		.4byte	.LASF15
 1186 0119 01       		.byte	0x1
 1187 011a 26       		.byte	0x26
 1188 011b 01       		.byte	0x1
 1189 011c 50000000 		.4byte	0x50
 1190 0120 6C000000 		.4byte	.LFB2
 1191 0124 C2000000 		.4byte	.LFE2
 1192 0128 C3000000 		.4byte	.LLST5
 1193 012c 0D       		.uleb128 0xd
 1194 012d D3000000 		.4byte	.LASF12
 1195 0131 01       		.byte	0x1
 1196 0132 27       		.byte	0x27
 1197 0133 50000000 		.4byte	0x50
 1198 0137 0E       		.uleb128 0xe
 1199 0138 24000000 		.4byte	.LASF13
ARM GAS  /cygdrive/c/DOCUME~1/mkwapisz/LOCALS~1/Temp/ccI39Ras.s 			page 30


 1200 013c 01       		.byte	0x1
 1201 013d 28       		.byte	0x28
 1202 013e 25000000 		.4byte	0x25
 1203 0142 E2000000 		.4byte	.LLST6
 1204 0146 0D       		.uleb128 0xd
 1205 0147 DB000000 		.4byte	.LASF16
 1206 014b 01       		.byte	0x1
 1207 014c 29       		.byte	0x29
 1208 014d 70000000 		.4byte	0x70
 1209 0151 00       		.byte	0x0
 1210 0152 0C       		.uleb128 0xc
 1211 0153 A8010000 		.4byte	0x1a8
 1212 0157 01       		.byte	0x1
 1213 0158 82000000 		.4byte	.LASF17
 1214 015c 01       		.byte	0x1
 1215 015d 6E       		.byte	0x6e
 1216 015e 01       		.byte	0x1
 1217 015f 50000000 		.4byte	0x50
 1218 0163 C4000000 		.4byte	.LFB3
 1219 0167 5C010000 		.4byte	.LFE3
 1220 016b 0B010000 		.4byte	.LLST7
 1221 016f 0F       		.uleb128 0xf
 1222 0170 15010000 		.4byte	.LASF18
 1223 0174 01       		.byte	0x1
 1224 0175 6C       		.byte	0x6c
 1225 0176 25000000 		.4byte	0x25
 1226 017a 2A010000 		.4byte	.LLST8
 1227 017e 0F       		.uleb128 0xf
 1228 017f B4000000 		.4byte	.LASF19
 1229 0183 01       		.byte	0x1
 1230 0184 6D       		.byte	0x6d
 1231 0185 37000000 		.4byte	0x37
 1232 0189 53010000 		.4byte	.LLST9
 1233 018d 0D       		.uleb128 0xd
 1234 018e D3000000 		.4byte	.LASF12
 1235 0192 01       		.byte	0x1
 1236 0193 6F       		.byte	0x6f
 1237 0194 50000000 		.4byte	0x50
 1238 0198 0E       		.uleb128 0xe
 1239 0199 24000000 		.4byte	.LASF13
 1240 019d 01       		.byte	0x1
 1241 019e 70       		.byte	0x70
 1242 019f 25000000 		.4byte	0x25
 1243 01a3 7C010000 		.4byte	.LLST10
 1244 01a7 00       		.byte	0x0
 1245 01a8 06       		.uleb128 0x6
 1246 01a9 25020000 		.4byte	0x225
 1247 01ad 01       		.byte	0x1
 1248 01ae 9E000000 		.4byte	.LASF20
 1249 01b2 01       		.byte	0x1
 1250 01b3 8701     		.2byte	0x187
 1251 01b5 01       		.byte	0x1
 1252 01b6 50000000 		.4byte	0x50
 1253 01ba 5C010000 		.4byte	.LFB6
 1254 01be E2010000 		.4byte	.LFE6
 1255 01c2 C6010000 		.4byte	.LLST11
 1256 01c6 07       		.uleb128 0x7
ARM GAS  /cygdrive/c/DOCUME~1/mkwapisz/LOCALS~1/Temp/ccI39Ras.s 			page 31


 1257 01c7 B4000000 		.4byte	.LASF19
 1258 01cb 01       		.byte	0x1
 1259 01cc 8601     		.2byte	0x186
 1260 01ce 25000000 		.4byte	0x25
 1261 01d2 E5010000 		.4byte	.LLST12
 1262 01d6 07       		.uleb128 0x7
 1263 01d7 0C000000 		.4byte	.LASF21
 1264 01db 01       		.byte	0x1
 1265 01dc 8601     		.2byte	0x186
 1266 01de 09010000 		.4byte	0x109
 1267 01e2 03020000 		.4byte	.LLST13
 1268 01e6 08       		.uleb128 0x8
 1269 01e7 6C656E00 		.ascii	"len\000"
 1270 01eb 01       		.byte	0x1
 1271 01ec 8601     		.2byte	0x186
 1272 01ee 37000000 		.4byte	0x37
 1273 01f2 37020000 		.4byte	.LLST14
 1274 01f6 10       		.uleb128 0x10
 1275 01f7 D3000000 		.4byte	.LASF12
 1276 01fb 01       		.byte	0x1
 1277 01fc 8801     		.2byte	0x188
 1278 01fe 50000000 		.4byte	0x50
 1279 0202 60020000 		.4byte	.LLST15
 1280 0206 10       		.uleb128 0x10
 1281 0207 24000000 		.4byte	.LASF13
 1282 020b 01       		.byte	0x1
 1283 020c 8901     		.2byte	0x189
 1284 020e 25000000 		.4byte	0x25
 1285 0212 94020000 		.4byte	.LLST16
 1286 0216 0A       		.uleb128 0xa
 1287 0217 6900     		.ascii	"i\000"
 1288 0219 01       		.byte	0x1
 1289 021a 8A01     		.2byte	0x18a
 1290 021c 37000000 		.4byte	0x37
 1291 0220 C8020000 		.4byte	.LLST17
 1292 0224 00       		.byte	0x0
 1293 0225 06       		.uleb128 0x6
 1294 0226 A2020000 		.4byte	0x2a2
 1295 022a 01       		.byte	0x1
 1296 022b 2F010000 		.4byte	.LASF22
 1297 022f 01       		.byte	0x1
 1298 0230 0E01     		.2byte	0x10e
 1299 0232 01       		.byte	0x1
 1300 0233 50000000 		.4byte	0x50
 1301 0237 E4010000 		.4byte	.LFB4
 1302 023b 6C020000 		.4byte	.LFE4
 1303 023f E6020000 		.4byte	.LLST18
 1304 0243 07       		.uleb128 0x7
 1305 0244 B4000000 		.4byte	.LASF19
 1306 0248 01       		.byte	0x1
 1307 0249 0B01     		.2byte	0x10b
 1308 024b 37000000 		.4byte	0x37
 1309 024f 05030000 		.4byte	.LLST19
 1310 0253 07       		.uleb128 0x7
 1311 0254 0C000000 		.4byte	.LASF21
 1312 0258 01       		.byte	0x1
 1313 0259 0C01     		.2byte	0x10c
ARM GAS  /cygdrive/c/DOCUME~1/mkwapisz/LOCALS~1/Temp/ccI39Ras.s 			page 32


 1314 025b 09010000 		.4byte	0x109
 1315 025f 23030000 		.4byte	.LLST20
 1316 0263 08       		.uleb128 0x8
 1317 0264 6C656E00 		.ascii	"len\000"
 1318 0268 01       		.byte	0x1
 1319 0269 0D01     		.2byte	0x10d
 1320 026b 37000000 		.4byte	0x37
 1321 026f 57030000 		.4byte	.LLST21
 1322 0273 10       		.uleb128 0x10
 1323 0274 D3000000 		.4byte	.LASF12
 1324 0278 01       		.byte	0x1
 1325 0279 0F01     		.2byte	0x10f
 1326 027b 50000000 		.4byte	0x50
 1327 027f 80030000 		.4byte	.LLST22
 1328 0283 10       		.uleb128 0x10
 1329 0284 24000000 		.4byte	.LASF13
 1330 0288 01       		.byte	0x1
 1331 0289 1001     		.2byte	0x110
 1332 028b 25000000 		.4byte	0x25
 1333 028f B4030000 		.4byte	.LLST23
 1334 0293 0A       		.uleb128 0xa
 1335 0294 6900     		.ascii	"i\000"
 1336 0296 01       		.byte	0x1
 1337 0297 1101     		.2byte	0x111
 1338 0299 37000000 		.4byte	0x37
 1339 029d E8030000 		.4byte	.LLST24
 1340 02a1 00       		.byte	0x0
 1341 02a2 11       		.uleb128 0x11
 1342 02a3 F6000000 		.4byte	.LASF23
 1343 02a7 02       		.byte	0x2
 1344 02a8 66       		.byte	0x66
 1345 02a9 7B000000 		.4byte	0x7b
 1346 02ad 00       		.byte	0x0
 1347 02ae 00       		.byte	0x0
 1348              		.section	.debug_abbrev
 1349 0000 01       		.uleb128 0x1
 1350 0001 11       		.uleb128 0x11
 1351 0002 01       		.byte	0x1
 1352 0003 10       		.uleb128 0x10
 1353 0004 06       		.uleb128 0x6
 1354 0005 12       		.uleb128 0x12
 1355 0006 01       		.uleb128 0x1
 1356 0007 11       		.uleb128 0x11
 1357 0008 01       		.uleb128 0x1
 1358 0009 25       		.uleb128 0x25
 1359 000a 0E       		.uleb128 0xe
 1360 000b 13       		.uleb128 0x13
 1361 000c 0B       		.uleb128 0xb
 1362 000d 03       		.uleb128 0x3
 1363 000e 0E       		.uleb128 0xe
 1364 000f 1B       		.uleb128 0x1b
 1365 0010 0E       		.uleb128 0xe
 1366 0011 00       		.byte	0x0
 1367 0012 00       		.byte	0x0
 1368 0013 02       		.uleb128 0x2
 1369 0014 16       		.uleb128 0x16
 1370 0015 00       		.byte	0x0
ARM GAS  /cygdrive/c/DOCUME~1/mkwapisz/LOCALS~1/Temp/ccI39Ras.s 			page 33


 1371 0016 03       		.uleb128 0x3
 1372 0017 08       		.uleb128 0x8
 1373 0018 3A       		.uleb128 0x3a
 1374 0019 0B       		.uleb128 0xb
 1375 001a 3B       		.uleb128 0x3b
 1376 001b 0B       		.uleb128 0xb
 1377 001c 49       		.uleb128 0x49
 1378 001d 13       		.uleb128 0x13
 1379 001e 00       		.byte	0x0
 1380 001f 00       		.byte	0x0
 1381 0020 03       		.uleb128 0x3
 1382 0021 24       		.uleb128 0x24
 1383 0022 00       		.byte	0x0
 1384 0023 03       		.uleb128 0x3
 1385 0024 0E       		.uleb128 0xe
 1386 0025 0B       		.uleb128 0xb
 1387 0026 0B       		.uleb128 0xb
 1388 0027 3E       		.uleb128 0x3e
 1389 0028 0B       		.uleb128 0xb
 1390 0029 00       		.byte	0x0
 1391 002a 00       		.byte	0x0
 1392 002b 04       		.uleb128 0x4
 1393 002c 16       		.uleb128 0x16
 1394 002d 00       		.byte	0x0
 1395 002e 03       		.uleb128 0x3
 1396 002f 0E       		.uleb128 0xe
 1397 0030 3A       		.uleb128 0x3a
 1398 0031 0B       		.uleb128 0xb
 1399 0032 3B       		.uleb128 0x3b
 1400 0033 0B       		.uleb128 0xb
 1401 0034 49       		.uleb128 0x49
 1402 0035 13       		.uleb128 0x13
 1403 0036 00       		.byte	0x0
 1404 0037 00       		.byte	0x0
 1405 0038 05       		.uleb128 0x5
 1406 0039 24       		.uleb128 0x24
 1407 003a 00       		.byte	0x0
 1408 003b 03       		.uleb128 0x3
 1409 003c 08       		.uleb128 0x8
 1410 003d 0B       		.uleb128 0xb
 1411 003e 0B       		.uleb128 0xb
 1412 003f 3E       		.uleb128 0x3e
 1413 0040 0B       		.uleb128 0xb
 1414 0041 00       		.byte	0x0
 1415 0042 00       		.byte	0x0
 1416 0043 06       		.uleb128 0x6
 1417 0044 2E       		.uleb128 0x2e
 1418 0045 01       		.byte	0x1
 1419 0046 01       		.uleb128 0x1
 1420 0047 13       		.uleb128 0x13
 1421 0048 3F       		.uleb128 0x3f
 1422 0049 0C       		.uleb128 0xc
 1423 004a 03       		.uleb128 0x3
 1424 004b 0E       		.uleb128 0xe
 1425 004c 3A       		.uleb128 0x3a
 1426 004d 0B       		.uleb128 0xb
 1427 004e 3B       		.uleb128 0x3b
ARM GAS  /cygdrive/c/DOCUME~1/mkwapisz/LOCALS~1/Temp/ccI39Ras.s 			page 34


 1428 004f 05       		.uleb128 0x5
 1429 0050 27       		.uleb128 0x27
 1430 0051 0C       		.uleb128 0xc
 1431 0052 49       		.uleb128 0x49
 1432 0053 13       		.uleb128 0x13
 1433 0054 11       		.uleb128 0x11
 1434 0055 01       		.uleb128 0x1
 1435 0056 12       		.uleb128 0x12
 1436 0057 01       		.uleb128 0x1
 1437 0058 40       		.uleb128 0x40
 1438 0059 06       		.uleb128 0x6
 1439 005a 00       		.byte	0x0
 1440 005b 00       		.byte	0x0
 1441 005c 07       		.uleb128 0x7
 1442 005d 05       		.uleb128 0x5
 1443 005e 00       		.byte	0x0
 1444 005f 03       		.uleb128 0x3
 1445 0060 0E       		.uleb128 0xe
 1446 0061 3A       		.uleb128 0x3a
 1447 0062 0B       		.uleb128 0xb
 1448 0063 3B       		.uleb128 0x3b
 1449 0064 05       		.uleb128 0x5
 1450 0065 49       		.uleb128 0x49
 1451 0066 13       		.uleb128 0x13
 1452 0067 02       		.uleb128 0x2
 1453 0068 06       		.uleb128 0x6
 1454 0069 00       		.byte	0x0
 1455 006a 00       		.byte	0x0
 1456 006b 08       		.uleb128 0x8
 1457 006c 05       		.uleb128 0x5
 1458 006d 00       		.byte	0x0
 1459 006e 03       		.uleb128 0x3
 1460 006f 08       		.uleb128 0x8
 1461 0070 3A       		.uleb128 0x3a
 1462 0071 0B       		.uleb128 0xb
 1463 0072 3B       		.uleb128 0x3b
 1464 0073 05       		.uleb128 0x5
 1465 0074 49       		.uleb128 0x49
 1466 0075 13       		.uleb128 0x13
 1467 0076 02       		.uleb128 0x2
 1468 0077 06       		.uleb128 0x6
 1469 0078 00       		.byte	0x0
 1470 0079 00       		.byte	0x0
 1471 007a 09       		.uleb128 0x9
 1472 007b 34       		.uleb128 0x34
 1473 007c 00       		.byte	0x0
 1474 007d 03       		.uleb128 0x3
 1475 007e 0E       		.uleb128 0xe
 1476 007f 3A       		.uleb128 0x3a
 1477 0080 0B       		.uleb128 0xb
 1478 0081 3B       		.uleb128 0x3b
 1479 0082 05       		.uleb128 0x5
 1480 0083 49       		.uleb128 0x49
 1481 0084 13       		.uleb128 0x13
 1482 0085 00       		.byte	0x0
 1483 0086 00       		.byte	0x0
 1484 0087 0A       		.uleb128 0xa
ARM GAS  /cygdrive/c/DOCUME~1/mkwapisz/LOCALS~1/Temp/ccI39Ras.s 			page 35


 1485 0088 34       		.uleb128 0x34
 1486 0089 00       		.byte	0x0
 1487 008a 03       		.uleb128 0x3
 1488 008b 08       		.uleb128 0x8
 1489 008c 3A       		.uleb128 0x3a
 1490 008d 0B       		.uleb128 0xb
 1491 008e 3B       		.uleb128 0x3b
 1492 008f 05       		.uleb128 0x5
 1493 0090 49       		.uleb128 0x49
 1494 0091 13       		.uleb128 0x13
 1495 0092 02       		.uleb128 0x2
 1496 0093 06       		.uleb128 0x6
 1497 0094 00       		.byte	0x0
 1498 0095 00       		.byte	0x0
 1499 0096 0B       		.uleb128 0xb
 1500 0097 0F       		.uleb128 0xf
 1501 0098 00       		.byte	0x0
 1502 0099 0B       		.uleb128 0xb
 1503 009a 0B       		.uleb128 0xb
 1504 009b 49       		.uleb128 0x49
 1505 009c 13       		.uleb128 0x13
 1506 009d 00       		.byte	0x0
 1507 009e 00       		.byte	0x0
 1508 009f 0C       		.uleb128 0xc
 1509 00a0 2E       		.uleb128 0x2e
 1510 00a1 01       		.byte	0x1
 1511 00a2 01       		.uleb128 0x1
 1512 00a3 13       		.uleb128 0x13
 1513 00a4 3F       		.uleb128 0x3f
 1514 00a5 0C       		.uleb128 0xc
 1515 00a6 03       		.uleb128 0x3
 1516 00a7 0E       		.uleb128 0xe
 1517 00a8 3A       		.uleb128 0x3a
 1518 00a9 0B       		.uleb128 0xb
 1519 00aa 3B       		.uleb128 0x3b
 1520 00ab 0B       		.uleb128 0xb
 1521 00ac 27       		.uleb128 0x27
 1522 00ad 0C       		.uleb128 0xc
 1523 00ae 49       		.uleb128 0x49
 1524 00af 13       		.uleb128 0x13
 1525 00b0 11       		.uleb128 0x11
 1526 00b1 01       		.uleb128 0x1
 1527 00b2 12       		.uleb128 0x12
 1528 00b3 01       		.uleb128 0x1
 1529 00b4 40       		.uleb128 0x40
 1530 00b5 06       		.uleb128 0x6
 1531 00b6 00       		.byte	0x0
 1532 00b7 00       		.byte	0x0
 1533 00b8 0D       		.uleb128 0xd
 1534 00b9 34       		.uleb128 0x34
 1535 00ba 00       		.byte	0x0
 1536 00bb 03       		.uleb128 0x3
 1537 00bc 0E       		.uleb128 0xe
 1538 00bd 3A       		.uleb128 0x3a
 1539 00be 0B       		.uleb128 0xb
 1540 00bf 3B       		.uleb128 0x3b
 1541 00c0 0B       		.uleb128 0xb
ARM GAS  /cygdrive/c/DOCUME~1/mkwapisz/LOCALS~1/Temp/ccI39Ras.s 			page 36


 1542 00c1 49       		.uleb128 0x49
 1543 00c2 13       		.uleb128 0x13
 1544 00c3 00       		.byte	0x0
 1545 00c4 00       		.byte	0x0
 1546 00c5 0E       		.uleb128 0xe
 1547 00c6 34       		.uleb128 0x34
 1548 00c7 00       		.byte	0x0
 1549 00c8 03       		.uleb128 0x3
 1550 00c9 0E       		.uleb128 0xe
 1551 00ca 3A       		.uleb128 0x3a
 1552 00cb 0B       		.uleb128 0xb
 1553 00cc 3B       		.uleb128 0x3b
 1554 00cd 0B       		.uleb128 0xb
 1555 00ce 49       		.uleb128 0x49
 1556 00cf 13       		.uleb128 0x13
 1557 00d0 02       		.uleb128 0x2
 1558 00d1 06       		.uleb128 0x6
 1559 00d2 00       		.byte	0x0
 1560 00d3 00       		.byte	0x0
 1561 00d4 0F       		.uleb128 0xf
 1562 00d5 05       		.uleb128 0x5
 1563 00d6 00       		.byte	0x0
 1564 00d7 03       		.uleb128 0x3
 1565 00d8 0E       		.uleb128 0xe
 1566 00d9 3A       		.uleb128 0x3a
 1567 00da 0B       		.uleb128 0xb
 1568 00db 3B       		.uleb128 0x3b
 1569 00dc 0B       		.uleb128 0xb
 1570 00dd 49       		.uleb128 0x49
 1571 00de 13       		.uleb128 0x13
 1572 00df 02       		.uleb128 0x2
 1573 00e0 06       		.uleb128 0x6
 1574 00e1 00       		.byte	0x0
 1575 00e2 00       		.byte	0x0
 1576 00e3 10       		.uleb128 0x10
 1577 00e4 34       		.uleb128 0x34
 1578 00e5 00       		.byte	0x0
 1579 00e6 03       		.uleb128 0x3
 1580 00e7 0E       		.uleb128 0xe
 1581 00e8 3A       		.uleb128 0x3a
 1582 00e9 0B       		.uleb128 0xb
 1583 00ea 3B       		.uleb128 0x3b
 1584 00eb 05       		.uleb128 0x5
 1585 00ec 49       		.uleb128 0x49
 1586 00ed 13       		.uleb128 0x13
 1587 00ee 02       		.uleb128 0x2
 1588 00ef 06       		.uleb128 0x6
 1589 00f0 00       		.byte	0x0
 1590 00f1 00       		.byte	0x0
 1591 00f2 11       		.uleb128 0x11
 1592 00f3 34       		.uleb128 0x34
 1593 00f4 00       		.byte	0x0
 1594 00f5 03       		.uleb128 0x3
 1595 00f6 0E       		.uleb128 0xe
 1596 00f7 3A       		.uleb128 0x3a
 1597 00f8 0B       		.uleb128 0xb
 1598 00f9 3B       		.uleb128 0x3b
ARM GAS  /cygdrive/c/DOCUME~1/mkwapisz/LOCALS~1/Temp/ccI39Ras.s 			page 37


 1599 00fa 0B       		.uleb128 0xb
 1600 00fb 49       		.uleb128 0x49
 1601 00fc 13       		.uleb128 0x13
 1602 00fd 1C       		.uleb128 0x1c
 1603 00fe 0B       		.uleb128 0xb
 1604 00ff 00       		.byte	0x0
 1605 0100 00       		.byte	0x0
 1606 0101 00       		.byte	0x0
 1607              		.section	.debug_pubnames,"",%progbits
 1608 0000 61000000 		.4byte	0x61
 1609 0004 0200     		.2byte	0x2
 1610 0006 00000000 		.4byte	.Ldebug_info0
 1611 000a AF020000 		.4byte	0x2af
 1612 000e 94000000 		.4byte	0x94
 1613 0012 65657072 		.ascii	"eepromWrite\000"
 1613      6F6D5772 
 1613      69746500 
 1614 001e 0F010000 		.4byte	0x10f
 1615 0022 65657072 		.ascii	"eepromPoll\000"
 1615      6F6D506F 
 1615      6C6C00
 1616 002d 52010000 		.4byte	0x152
 1617 0031 65657072 		.ascii	"eepromStartRead\000"
 1617      6F6D5374 
 1617      61727452 
 1617      65616400 
 1618 0041 A8010000 		.4byte	0x1a8
 1619 0045 6C6D3735 		.ascii	"lm75Read\000"
 1619      52656164 
 1619      00
 1620 004e 25020000 		.4byte	0x225
 1621 0052 65657072 		.ascii	"eepromPageRead\000"
 1621      6F6D5061 
 1621      67655265 
 1621      616400
 1622 0061 00000000 		.4byte	0x0
 1623              		.section	.debug_aranges,"",%progbits
 1624 0000 1C000000 		.4byte	0x1c
 1625 0004 0200     		.2byte	0x2
 1626 0006 00000000 		.4byte	.Ldebug_info0
 1627 000a 04       		.byte	0x4
 1628 000b 00       		.byte	0x0
 1629 000c 0000     		.2byte	0x0
 1630 000e 0000     		.2byte	0x0
 1631 0010 00000000 		.4byte	.Ltext0
 1632 0014 6C020000 		.4byte	.Letext0-.Ltext0
 1633 0018 00000000 		.4byte	0x0
 1634 001c 00000000 		.4byte	0x0
 1635              		.section	.debug_str,"MS",%progbits,1
 1636              	.LASF14:
 1637 0000 65657072 		.ascii	"eepromWrite\000"
 1637      6F6D5772 
 1637      69746500 
 1638              	.LASF21:
 1639 000c 70427566 		.ascii	"pBuf\000"
 1639      00
 1640              	.LASF2:
ARM GAS  /cygdrive/c/DOCUME~1/mkwapisz/LOCALS~1/Temp/ccI39Ras.s 			page 38


 1641 0011 73686F72 		.ascii	"short unsigned int\000"
 1641      7420756E 
 1641      7369676E 
 1641      65642069 
 1641      6E7400
 1642              	.LASF13:
 1643 0024 73746174 		.ascii	"status\000"
 1643      757300
 1644              	.LASF10:
 1645 002b 61646472 		.ascii	"addr\000"
 1645      00
 1646              	.LASF26:
 1647 0030 2F637967 		.ascii	"/cygdrive/e/MP3Player/2148/testProgram_lpc2148_edu\000"
 1647      64726976 
 1647      652F652F 
 1647      4D503350 
 1647      6C617965 
 1648              	.LASF1:
 1649 0063 756E7369 		.ascii	"unsigned char\000"
 1649      676E6564 
 1649      20636861 
 1649      7200
 1650              	.LASF15:
 1651 0071 65657072 		.ascii	"eepromPoll\000"
 1651      6F6D506F 
 1651      6C6C00
 1652              	.LASF7:
 1653 007c 75696E74 		.ascii	"uint8\000"
 1653      3800
 1654              	.LASF17:
 1655 0082 65657072 		.ascii	"eepromStartRead\000"
 1655      6F6D5374 
 1655      61727452 
 1655      65616400 
 1656              	.LASF24:
 1657 0092 474E5520 		.ascii	"GNU C 4.1.1\000"
 1657      4320342E 
 1657      312E3100 
 1658              	.LASF20:
 1659 009e 6C6D3735 		.ascii	"lm75Read\000"
 1659      52656164 
 1659      00
 1660              	.LASF3:
 1661 00a7 756E7369 		.ascii	"unsigned int\000"
 1661      676E6564 
 1661      20696E74 
 1661      00
 1662              	.LASF19:
 1663 00b4 61646472 		.ascii	"address\000"
 1663      65737300 
 1664              	.LASF9:
 1665 00bc 6C6F6E67 		.ascii	"long long unsigned int\000"
 1665      206C6F6E 
 1665      6720756E 
 1665      7369676E 
 1665      65642069 
 1666              	.LASF12:
ARM GAS  /cygdrive/c/DOCUME~1/mkwapisz/LOCALS~1/Temp/ccI39Ras.s 			page 39


 1667 00d3 72657443 		.ascii	"retCode\000"
 1667      6F646500 
 1668              	.LASF16:
 1669 00db 6275726E 		.ascii	"burnEnd\000"
 1669      456E6400 
 1670              	.LASF0:
 1671 00e3 74553136 		.ascii	"tU16\000"
 1671      00
 1672              	.LASF8:
 1673 00e8 6C6F6E67 		.ascii	"long long int\000"
 1673      206C6F6E 
 1673      6720696E 
 1673      7400
 1674              	.LASF23:
 1675 00f6 53454D41 		.ascii	"SEMAFOR_SPI\000"
 1675      464F525F 
 1675      53504900 
 1676              	.LASF25:
 1677 0102 65657072 		.ascii	"eeprom.c\000"
 1677      6F6D2E63 
 1677      00
 1678              	.LASF5:
 1679 010b 73686F72 		.ascii	"short int\000"
 1679      7420696E 
 1679      7400
 1680              	.LASF18:
 1681 0115 64657641 		.ascii	"devAddr\000"
 1681      64647200 
 1682              	.LASF11:
 1683 011d 70446174 		.ascii	"pData\000"
 1683      6100
 1684              	.LASF4:
 1685 0123 7369676E 		.ascii	"signed char\000"
 1685      65642063 
 1685      68617200 
 1686              	.LASF22:
 1687 012f 65657072 		.ascii	"eepromPageRead\000"
 1687      6F6D5061 
 1687      67655265 
 1687      616400
 1688              	.LASF6:
 1689 013e 74426F6F 		.ascii	"tBool\000"
 1689      6C00
 1690              		.ident	"GCC: (GNU) 4.1.1"
ARM GAS  /cygdrive/c/DOCUME~1/mkwapisz/LOCALS~1/Temp/ccI39Ras.s 			page 40


DEFINED SYMBOLS
                            *ABS*:00000000 eeprom.c
/cygdrive/c/DOCUME~1/mkwapisz/LOCALS~1/Temp/ccI39Ras.s:1      .text:00000000 $t
/cygdrive/c/DOCUME~1/mkwapisz/LOCALS~1/Temp/ccI39Ras.s:16     .text:00000000 eepromWrite
/cygdrive/c/DOCUME~1/mkwapisz/LOCALS~1/Temp/ccI39Ras.s:113    .text:0000006c eepromPoll
/cygdrive/c/DOCUME~1/mkwapisz/LOCALS~1/Temp/ccI39Ras.s:187    .text:000000c4 eepromStartRead
/cygdrive/c/DOCUME~1/mkwapisz/LOCALS~1/Temp/ccI39Ras.s:324    .text:0000015c lm75Read
/cygdrive/c/DOCUME~1/mkwapisz/LOCALS~1/Temp/ccI39Ras.s:449    .text:000001e4 eepromPageRead

UNDEFINED SYMBOLS
i2cStart
i2cStop
i2cWriteWithWait
i2cPutChar
i2cCheckStatus
i2cRepeatStart
i2cGetChar
