ARM GAS  /cygdrive/c/DOCUME~1/mkwapisz/LOCALS~1/Temp/ccOQCEsf.s 			page 1


   1              		.code	16
   2              		.file	"i2c.c"
   3              		.section	.debug_abbrev,"",%progbits
   4              	.Ldebug_abbrev0:
   5              		.section	.debug_info,"",%progbits
   6              	.Ldebug_info0:
   7              		.section	.debug_line,"",%progbits
   8              	.Ldebug_line0:
   9 0000 33010000 		.text
   9      02003F00 
   9      00000201 
   9      FB0E0D00 
   9      01010101 
  10              	.Ltext0:
  11              		.align	2
  12              		.global	i2cCheckStatus
  13              		.code 16
  14              		.thumb_func
  15              		.type	i2cCheckStatus, %function
  16              	i2cCheckStatus:
  17              	.LFB2:
  18              		.file 1 "i2c.c"
   1:i2c.c         **** 
   2:i2c.c         **** 
   3:i2c.c         **** 
   4:i2c.c         **** 
   5:i2c.c         **** /******************************************************************************
   6:i2c.c         ****  * Includes
   7:i2c.c         ****  *****************************************************************************/
   8:i2c.c         **** 
   9:i2c.c         **** #include "../pre_emptive_os/api/general.h"
  10:i2c.c         **** #include "i2c.h"
  11:i2c.c         **** #include <lpc2xxx.h>
  12:i2c.c         **** 
  13:i2c.c         **** /******************************************************************************
  14:i2c.c         ****  * Defines and typedefs
  15:i2c.c         ****  *****************************************************************************/
  16:i2c.c         **** 
  17:i2c.c         **** #define I2C_CONSET (*((volatile unsigned char *) 0xE001C000))
  18:i2c.c         **** #define I2C_STAT   (*((volatile unsigned char *) 0xE001C004))
  19:i2c.c         **** #define I2C_DATA   (*((volatile unsigned char *) 0xE001C008))
  20:i2c.c         **** #define I2C_ADDR   (*((volatile unsigned char *) 0xE001C00C))
  21:i2c.c         **** #define I2C_SCLH   (*((volatile unsigned short*) 0xE001C010))
  22:i2c.c         **** #define I2C_SCLL   (*((volatile unsigned short*) 0xE001C014))
  23:i2c.c         **** #define I2C_CONCLR (*((volatile unsigned char *) 0xE001C018))
  24:i2c.c         **** 
  25:i2c.c         **** 
  26:i2c.c         **** #define I2C_REG_CONSET      0x00000040 /* Control Set Register         */
  27:i2c.c         **** #define I2C_REG_CONSET_MASK 0x0000007C /* Used bits                    */
  28:i2c.c         **** #define I2C_REG_DATA        0x00000000 /* Data register                */
  29:i2c.c         **** #define I2C_REG_DATA_MASK   0x000000FF /* Used bits                    */
  30:i2c.c         **** #define I2C_REG_ADDR        0x00000000 /* Slave address register       */
  31:i2c.c         **** #define I2C_REG_ADDR_MASK   0x000000FF /* Used bits                    */
  32:i2c.c         **** #define I2C_REG_SCLH        0x00000040 /* SCL Duty Cycle high register */
  33:i2c.c         **** #define I2C_REG_SCLH_MASK   0x0000FFFF /* Used bits                    */
  34:i2c.c         **** #define I2C_REG_SCLL        0x00000040 /* SCL Duty Cycle low register  */
  35:i2c.c         **** #define I2C_REG_SCLL_MASK   0x0000FFFF /* Used bits                    */
ARM GAS  /cygdrive/c/DOCUME~1/mkwapisz/LOCALS~1/Temp/ccOQCEsf.s 			page 2


  36:i2c.c         **** 
  37:i2c.c         **** /******************************************************************************
  38:i2c.c         ****  *
  39:i2c.c         ****  * Description:
  40:i2c.c         ****  *    Checks the I2C status.
  41:i2c.c         ****  *
  42:i2c.c         ****  *
  43:i2c.c         ****  *  Returns:
  44:i2c.c         ****  *      00h Bus error
  45:i2c.c         ****  *      08h START condition transmitted
  46:i2c.c         ****  *      10h Repeated START condition transmitted
  47:i2c.c         ****  *      18h SLA + W transmitted, ACK received
  48:i2c.c         ****  *      20h SLA + W transmitted, ACK not received
  49:i2c.c         ****  *      28h Data byte transmitted, ACK received
  50:i2c.c         ****  *      30h Data byte transmitted, ACK not received
  51:i2c.c         ****  *      38h Arbitration lost
  52:i2c.c         ****  *      40h SLA + R transmitted, ACK received
  53:i2c.c         ****  *      48h SLA + R transmitted, ACK not received
  54:i2c.c         ****  *      50h Data byte received in master mode, ACK transmitted
  55:i2c.c         ****  *      58h Data byte received in master mode, ACK not transmitted
  56:i2c.c         ****  *      60h SLA + W received, ACK transmitted
  57:i2c.c         ****  *      68h Arbitration lost, SLA + W received, ACK transmitted
  58:i2c.c         ****  *      70h General call address received, ACK transmitted
  59:i2c.c         ****  *      78h Arbitration lost, general call addr received, ACK transmitted
  60:i2c.c         ****  *      80h Data byte received with own SLA, ACK transmitted
  61:i2c.c         ****  *      88h Data byte received with own SLA, ACK not transmitted
  62:i2c.c         ****  *      90h Data byte received after general call, ACK transmitted
  63:i2c.c         ****  *      98h Data byte received after general call, ACK not transmitted
  64:i2c.c         ****  *      A0h STOP or repeated START condition received in slave mode
  65:i2c.c         ****  *      A8h SLA + R received, ACK transmitted
  66:i2c.c         ****  *      B0h Arbitration lost, SLA + R received, ACK transmitted
  67:i2c.c         ****  *      B8h Data byte transmitted in slave mode, ACK received
  68:i2c.c         ****  *      C0h Data byte transmitted in slave mode, ACK not received
  69:i2c.c         ****  *      C8h Last byte transmitted in slave mode, ACK received
  70:i2c.c         ****  *      F8h No relevant status information, SI=0
  71:i2c.c         ****  *      FFh Channel error
  72:i2c.c         ****  *
  73:i2c.c         ****  *****************************************************************************/
  74:i2c.c         **** tU8
  75:i2c.c         **** i2cCheckStatus(void)
  76:i2c.c         **** {
  19              		.loc 1 76 0
  20 0000 0349     		ldr	r1, .L8
  21              		@ lr needed for prologue
  22 0002 0822     		mov	r2, #8
  23              	.L2:
  77:i2c.c         ****   tU8 status = 0;
  78:i2c.c         **** 
  79:i2c.c         ****   /* wait for I2C Status changed */
  80:i2c.c         ****   while( (I2C_CONSET & 0x08)  == 0)   /* while SI == 0 */
  24              		.loc 1 80 0
  25 0004 0B78     		ldrb	r3, [r1]
  26 0006 1342     		tst	r3, r2
  27 0008 FCD0     		beq	.L2
  81:i2c.c         ****   {
  82:i2c.c         ****     ;
  83:i2c.c         ****   }
ARM GAS  /cygdrive/c/DOCUME~1/mkwapisz/LOCALS~1/Temp/ccOQCEsf.s 			page 3


  84:i2c.c         **** 
  85:i2c.c         ****   /* Read I2C State */
  86:i2c.c         ****   status = I2C_STAT;
  28              		.loc 1 86 0
  29 000a 024B     		ldr	r3, .L8+4
  30 000c 1878     		ldrb	r0, [r3]
  87:i2c.c         **** 
  88:i2c.c         ****   /* NOTE! SI flag is not cleared here */
  89:i2c.c         **** 
  90:i2c.c         ****   return status;
  91:i2c.c         **** }
  31              		.loc 1 91 0
  32              		@ sp needed for prologue
  33 000e 7047     		bx	lr
  34              	.L9:
  35              		.align	2
  36              	.L8:
  37 0010 00C001E0 		.word	-536756224
  38 0014 04C001E0 		.word	-536756220
  39              	.LFE2:
  40              		.size	i2cCheckStatus, .-i2cCheckStatus
  41              		.align	2
  42              		.global	i2cInit
  43              		.code 16
  44              		.thumb_func
  45              		.type	i2cInit, %function
  46              	i2cInit:
  47              	.LFB3:
  92:i2c.c         **** 
  93:i2c.c         **** /******************************************************************************
  94:i2c.c         ****  *
  95:i2c.c         ****  * Description:
  96:i2c.c         ****  *    Reset the I2C module.
  97:i2c.c         ****  *
  98:i2c.c         ****  *****************************************************************************/
  99:i2c.c         **** void
 100:i2c.c         **** i2cInit(void)
 101:i2c.c         **** {
  48              		.loc 1 101 0
 102:i2c.c         ****   PINSEL0  |= 0x50;
  49              		.loc 1 102 0
  50 0018 0E49     		ldr	r1, .L12
  51 001a 0B68     		ldr	r3, [r1]
  52 001c 5022     		mov	r2, #80
  53 001e 1343     		orr	r3, r3, r2
  54 0020 0B60     		str	r3, [r1]
 103:i2c.c         **** 
 104:i2c.c         ****   /* clear flags */
 105:i2c.c         ****   I2C_CONCLR = 0x6c;    
  55              		.loc 1 105 0
  56 0022 0D4B     		ldr	r3, .L12+4
  57 0024 6C22     		mov	r2, #108
  58 0026 1A70     		strb	r2, [r3]
 106:i2c.c         **** 
 107:i2c.c         ****   /* reset registers */
 108:i2c.c         ****   I2C_SCLL   = ( I2C_SCLL   & ~I2C_REG_SCLL_MASK )   | I2C_REG_SCLL;
  59              		.loc 1 108 0
ARM GAS  /cygdrive/c/DOCUME~1/mkwapisz/LOCALS~1/Temp/ccOQCEsf.s 			page 4


  60 0028 043B     		sub	r3, r3, #4
  61 002a 1A88     		ldrh	r2, [r3]
  62 002c 4022     		mov	r2, #64
  63 002e 1A80     		strh	r2, [r3]
 109:i2c.c         ****   I2C_SCLH   = ( I2C_SCLH   & ~I2C_REG_SCLH_MASK )   | I2C_REG_SCLH;
  64              		.loc 1 109 0
  65 0030 043B     		sub	r3, r3, #4
  66 0032 1988     		ldrh	r1, [r3]
  67 0034 1A80     		strh	r2, [r3]
 110:i2c.c         ****   I2C_ADDR   = ( I2C_ADDR   & ~I2C_REG_ADDR_MASK )   | I2C_REG_ADDR;
  68              		.loc 1 110 0
  69 0036 094A     		ldr	r2, .L12+8
  70 0038 1378     		ldrb	r3, [r2]
  71 003a 0023     		mov	r3, #0
  72 003c 1370     		strb	r3, [r2]
 111:i2c.c         ****   I2C_CONSET = ( I2C_CONSET & ~I2C_REG_CONSET_MASK ) | I2C_REG_CONSET;
  73              		.loc 1 111 0
  74 003e 0849     		ldr	r1, .L12+12
  75 0040 0B78     		ldrb	r3, [r1]
  76 0042 7C22     		mov	r2, #124
  77 0044 9343     		bic	r3, r3, r2
  78 0046 4022     		mov	r2, #64
  79 0048 1343     		orr	r3, r3, r2
  80 004a 1B06     		lsl	r3, r3, #24
  81 004c 1B0E     		lsr	r3, r3, #24
  82              		.loc 1 101 0
  83              		@ lr needed for prologue
  84              		.loc 1 111 0
  85 004e 0B70     		strb	r3, [r1]
 112:i2c.c         **** }
  86              		.loc 1 112 0
  87              		@ sp needed for prologue
  88 0050 7047     		bx	lr
  89              	.L13:
  90 0052 0000     		.align	2
  91              	.L12:
  92 0054 00C002E0 		.word	-536690688
  93 0058 18C001E0 		.word	-536756200
  94 005c 0CC001E0 		.word	-536756212
  95 0060 00C001E0 		.word	-536756224
  96              	.LFE3:
  97              		.size	i2cInit, .-i2cInit
  98              		.align	2
  99              		.global	i2cStart
 100              		.code 16
 101              		.thumb_func
 102              		.type	i2cStart, %function
 103              	i2cStart:
 104              	.LFB4:
 113:i2c.c         **** 
 114:i2c.c         **** /******************************************************************************
 115:i2c.c         ****  *
 116:i2c.c         ****  * Description:
 117:i2c.c         ****  *    Generates a start condition on I2C when bus is free.
 118:i2c.c         ****  *    Master mode will also automatically be entered.
 119:i2c.c         ****  *
 120:i2c.c         ****  *    Note: After a stop condition, you may need a bus free time before you 
ARM GAS  /cygdrive/c/DOCUME~1/mkwapisz/LOCALS~1/Temp/ccOQCEsf.s 			page 5


 121:i2c.c         ****  *          can generate a new start condition.
 122:i2c.c         ****  *
 123:i2c.c         ****  * Returns:
 124:i2c.c         ****  *    I2C_CODE_OK or I2C status code
 125:i2c.c         ****  *
 126:i2c.c         ****  *****************************************************************************/
 127:i2c.c         **** tS8
 128:i2c.c         **** i2cStart(void)
 129:i2c.c         **** {
 105              		.loc 1 129 0
 106 0064 30B5     		push	{r4, r5, lr}
 107              	.LCFI0:
 130:i2c.c         ****   tU8   status  = 0;
 131:i2c.c         ****   tS8   retCode = 0;
 132:i2c.c         **** 
 133:i2c.c         ****   /* issue a start condition */
 134:i2c.c         ****   I2C_CONSET |= 0x20; /* STA = 1, set start flag */
 108              		.loc 1 134 0
 109 0066 0E4B     		ldr	r3, .L25
 110 0068 1A78     		ldrb	r2, [r3]
 111 006a 2021     		mov	r1, #32
 112 006c 0A43     		orr	r2, r2, r1
 113 006e 1206     		lsl	r2, r2, #24
 114 0070 0C4D     		ldr	r5, .L25+4
 115 0072 120E     		lsr	r2, r2, #24
 116 0074 0824     		mov	r4, #8
 117 0076 1A70     		strb	r2, [r3]
 118 0078 04E0     		b	.L15
 119              	.L24:
 135:i2c.c         **** 
 136:i2c.c         ****   /* wait until START transmitted */
 137:i2c.c         ****   while(1)
 138:i2c.c         ****   {
 139:i2c.c         ****     status = i2cCheckStatus();
 140:i2c.c         **** 
 141:i2c.c         ****     /* start transmitted */
 142:i2c.c         ****     if((status == 0x08) || (status == 0x10))
 120              		.loc 1 142 0
 121 007a 1028     		cmp	r0, #16
 122 007c 06D0     		beq	.L16
 143:i2c.c         ****     {
 144:i2c.c         ****       retCode = I2C_CODE_OK;
 145:i2c.c         ****       break;
 146:i2c.c         ****     }
 147:i2c.c         **** 
 148:i2c.c         ****     /* error */
 149:i2c.c         ****     else if(status != 0xf8)
 123              		.loc 1 149 0
 124 007e F828     		cmp	r0, #248
 125 0080 0BD1     		bne	.L23
 150:i2c.c         ****     {
 151:i2c.c         ****       retCode = (tS8) status;
 152:i2c.c         ****       break;
 153:i2c.c         ****     }
 154:i2c.c         **** 
 155:i2c.c         ****     else
 156:i2c.c         ****     {
ARM GAS  /cygdrive/c/DOCUME~1/mkwapisz/LOCALS~1/Temp/ccOQCEsf.s 			page 6


 157:i2c.c         ****       /* clear SI flag */
 158:i2c.c         ****       I2C_CONCLR = 0x08;
 126              		.loc 1 158 0
 127 0082 2C70     		strb	r4, [r5]
 128              	.L15:
 129              		.loc 1 139 0
 130 0084 FFF7FEFF 		bl	i2cCheckStatus
 131              		.loc 1 142 0
 132 0088 0828     		cmp	r0, #8
 133 008a F6D1     		bne	.L24
 134              	.L16:
 159:i2c.c         ****     }    
 160:i2c.c         ****   }
 135              		.loc 1 160 0
 136 008c 0120     		mov	r0, #1
 137              	.L21:
 161:i2c.c         **** 
 162:i2c.c         ****   /* clear start flag */
 163:i2c.c         ****   I2C_CONCLR = 0x20;
 138              		.loc 1 163 0
 139 008e 054B     		ldr	r3, .L25+4
 140 0090 2022     		mov	r2, #32
 141 0092 1A70     		strb	r2, [r3]
 164:i2c.c         **** 
 165:i2c.c         ****   return retCode;
 166:i2c.c         **** }
 142              		.loc 1 166 0
 143              		@ sp needed for prologue
 144 0094 30BC     		pop	{r4, r5}
 145 0096 02BC     		pop	{r1}
 146 0098 0847     		bx	r1
 147              	.L23:
 148              		.loc 1 149 0
 149 009a 0306     		lsl	r3, r0, #24
 150 009c 1816     		asr	r0, r3, #24
 151 009e F6E7     		b	.L21
 152              	.L26:
 153              		.align	2
 154              	.L25:
 155 00a0 00C001E0 		.word	-536756224
 156 00a4 18C001E0 		.word	-536756200
 157              	.LFE4:
 158              		.size	i2cStart, .-i2cStart
 159              		.align	2
 160              		.global	i2cRepeatStart
 161              		.code 16
 162              		.thumb_func
 163              		.type	i2cRepeatStart, %function
 164              	i2cRepeatStart:
 165              	.LFB5:
 167:i2c.c         **** 
 168:i2c.c         **** /******************************************************************************
 169:i2c.c         ****  *
 170:i2c.c         ****  * Description:
 171:i2c.c         ****  *    Generates a start condition on I2C when bus is free.
 172:i2c.c         ****  *    Master mode will also automatically be entered.
 173:i2c.c         ****  *
ARM GAS  /cygdrive/c/DOCUME~1/mkwapisz/LOCALS~1/Temp/ccOQCEsf.s 			page 7


 174:i2c.c         ****  *    Note: After a stop condition, you may need a bus free time before you 
 175:i2c.c         ****  *          can generate a new start condition.
 176:i2c.c         ****  *
 177:i2c.c         ****  * Returns:
 178:i2c.c         ****  *    I2C_CODE_OK or I2C status code
 179:i2c.c         ****  *
 180:i2c.c         ****  *****************************************************************************/
 181:i2c.c         **** tS8
 182:i2c.c         **** i2cRepeatStart(void)
 183:i2c.c         **** {
 166              		.loc 1 183 0
 167 00a8 30B5     		push	{r4, r5, lr}
 168              	.LCFI1:
 184:i2c.c         ****   tU8   status  = 0;
 185:i2c.c         ****   tS8   retCode = 0;
 186:i2c.c         **** 
 187:i2c.c         ****   /* issue a start condition */
 188:i2c.c         ****   I2C_CONSET |= 0x20; /* STA = 1, set start flag */
 169              		.loc 1 188 0
 170 00aa 1049     		ldr	r1, .L38
 171 00ac 0B78     		ldrb	r3, [r1]
 172 00ae 2022     		mov	r2, #32
 173 00b0 1343     		orr	r3, r3, r2
 174 00b2 1B06     		lsl	r3, r3, #24
 189:i2c.c         ****   I2C_CONCLR = 0x08;  /* clear SI flag           */
 175              		.loc 1 189 0
 176 00b4 0E4A     		ldr	r2, .L38+4
 177              		.loc 1 188 0
 178 00b6 1B0E     		lsr	r3, r3, #24
 179 00b8 0B70     		strb	r3, [r1]
 180 00ba 151C     		mov	r5, r2
 181              		.loc 1 189 0
 182 00bc 0823     		mov	r3, #8
 183 00be 0824     		mov	r4, #8
 184 00c0 1370     		strb	r3, [r2]
 185 00c2 04E0     		b	.L28
 186              	.L37:
 190:i2c.c         **** 
 191:i2c.c         ****   /* wait until START transmitted */
 192:i2c.c         ****   while(1)
 193:i2c.c         ****   {
 194:i2c.c         ****     status = i2cCheckStatus();
 195:i2c.c         **** 
 196:i2c.c         ****     /* start transmitted */
 197:i2c.c         ****     if((status == 0x08) || (status == 0x10))
 187              		.loc 1 197 0
 188 00c4 1028     		cmp	r0, #16
 189 00c6 06D0     		beq	.L29
 198:i2c.c         ****     {
 199:i2c.c         ****       retCode = I2C_CODE_OK;
 200:i2c.c         ****       break;
 201:i2c.c         ****     }
 202:i2c.c         **** 
 203:i2c.c         ****     /* error */
 204:i2c.c         ****     else if(status != 0xf8)
 190              		.loc 1 204 0
 191 00c8 F828     		cmp	r0, #248
ARM GAS  /cygdrive/c/DOCUME~1/mkwapisz/LOCALS~1/Temp/ccOQCEsf.s 			page 8


 192 00ca 0BD1     		bne	.L36
 205:i2c.c         ****     {
 206:i2c.c         ****       retCode = (tS8) status;
 207:i2c.c         ****       break;
 208:i2c.c         ****     }
 209:i2c.c         **** 
 210:i2c.c         ****     else
 211:i2c.c         ****     {
 212:i2c.c         ****       /* clear SI flag */
 213:i2c.c         ****       I2C_CONCLR = 0x08;
 193              		.loc 1 213 0
 194 00cc 2C70     		strb	r4, [r5]
 195              	.L28:
 196              		.loc 1 194 0
 197 00ce FFF7FEFF 		bl	i2cCheckStatus
 198              		.loc 1 197 0
 199 00d2 0828     		cmp	r0, #8
 200 00d4 F6D1     		bne	.L37
 201              	.L29:
 214:i2c.c         ****     }    
 215:i2c.c         ****   }
 202              		.loc 1 215 0
 203 00d6 0120     		mov	r0, #1
 204              	.L34:
 216:i2c.c         **** 
 217:i2c.c         ****   /* clear start flag */
 218:i2c.c         ****   I2C_CONCLR = 0x20;
 205              		.loc 1 218 0
 206 00d8 054B     		ldr	r3, .L38+4
 207 00da 2022     		mov	r2, #32
 208 00dc 1A70     		strb	r2, [r3]
 219:i2c.c         **** 
 220:i2c.c         ****   return retCode;
 221:i2c.c         **** }
 209              		.loc 1 221 0
 210              		@ sp needed for prologue
 211 00de 30BC     		pop	{r4, r5}
 212 00e0 02BC     		pop	{r1}
 213 00e2 0847     		bx	r1
 214              	.L36:
 215              		.loc 1 204 0
 216 00e4 0306     		lsl	r3, r0, #24
 217 00e6 1816     		asr	r0, r3, #24
 218 00e8 F6E7     		b	.L34
 219              	.L39:
 220 00ea 0000     		.align	2
 221              	.L38:
 222 00ec 00C001E0 		.word	-536756224
 223 00f0 18C001E0 		.word	-536756200
 224              	.LFE5:
 225              		.size	i2cRepeatStart, .-i2cRepeatStart
 226              		.align	2
 227              		.global	i2cStop
 228              		.code 16
 229              		.thumb_func
 230              		.type	i2cStop, %function
 231              	i2cStop:
ARM GAS  /cygdrive/c/DOCUME~1/mkwapisz/LOCALS~1/Temp/ccOQCEsf.s 			page 9


 232              	.LFB6:
 222:i2c.c         **** 
 223:i2c.c         **** /******************************************************************************
 224:i2c.c         ****  *
 225:i2c.c         ****  * Description:
 226:i2c.c         ****  *    Generates a stop condition in master mode or recovers from an error
 227:i2c.c         ****  *    condition in slave mode.
 228:i2c.c         ****  *
 229:i2c.c         ****  *    Note: After this function is run, you may need a bus free time before
 230:i2c.c         ****  *          you can generate a new start condition.
 231:i2c.c         ****  *
 232:i2c.c         ****  * Returns:
 233:i2c.c         ****  *    I2C_CODE_OK
 234:i2c.c         ****  *
 235:i2c.c         ****  *****************************************************************************/
 236:i2c.c         **** tS8
 237:i2c.c         **** i2cStop(void)
 238:i2c.c         **** {
 233              		.loc 1 238 0
 239:i2c.c         ****   I2C_CONSET |= 0x10; /* STO = 1, set stop flag */ 
 234              		.loc 1 239 0
 235 00f4 0749     		ldr	r1, .L46
 236 00f6 0B78     		ldrb	r3, [r1]
 237 00f8 1022     		mov	r2, #16
 238 00fa 1343     		orr	r3, r3, r2
 239 00fc 1B06     		lsl	r3, r3, #24
 240 00fe 1B0E     		lsr	r3, r3, #24
 241 0100 0B70     		strb	r3, [r1]
 240:i2c.c         ****   I2C_CONCLR = 0x08;  /* clear SI flag          */ 
 242              		.loc 1 240 0
 243 0102 054B     		ldr	r3, .L46+4
 244 0104 0822     		mov	r2, #8
 245 0106 1A70     		strb	r2, [r3]
 246              		.loc 1 238 0
 247              		@ lr needed for prologue
 248 0108 1022     		mov	r2, #16
 249              	.L41:
 241:i2c.c         **** 
 242:i2c.c         ****   /* wait for STOP detected (while STO = 1) */
 243:i2c.c         ****   while((I2C_CONSET & 0x10) == 0x10 )
 250              		.loc 1 243 0
 251 010a 0B78     		ldrb	r3, [r1]
 252 010c 1342     		tst	r3, r2
 253 010e FCD1     		bne	.L41
 244:i2c.c         ****   {
 245:i2c.c         ****     /* do nothing */
 246:i2c.c         ****     ;
 247:i2c.c         ****   }
 248:i2c.c         **** 
 249:i2c.c         ****   return I2C_CODE_OK;
 250:i2c.c         **** }
 254              		.loc 1 250 0
 255 0110 0120     		mov	r0, #1
 256              		@ sp needed for prologue
 257 0112 7047     		bx	lr
 258              	.L47:
 259              		.align	2
ARM GAS  /cygdrive/c/DOCUME~1/mkwapisz/LOCALS~1/Temp/ccOQCEsf.s 			page 10


 260              	.L46:
 261 0114 00C001E0 		.word	-536756224
 262 0118 18C001E0 		.word	-536756200
 263              	.LFE6:
 264              		.size	i2cStop, .-i2cStop
 265              		.align	2
 266              		.global	i2cPutChar
 267              		.code 16
 268              		.thumb_func
 269              		.type	i2cPutChar, %function
 270              	i2cPutChar:
 271              	.LFB7:
 251:i2c.c         **** 
 252:i2c.c         **** /******************************************************************************
 253:i2c.c         ****  *
 254:i2c.c         ****  * Description:
 255:i2c.c         ****  *    Sends a character on the I2C network
 256:i2c.c         ****  *
 257:i2c.c         ****  * Params:
 258:i2c.c         ****  *    [in] data - the character to send
 259:i2c.c         ****  *
 260:i2c.c         ****  * Returns:
 261:i2c.c         ****  *    I2C_CODE_OK   - successful
 262:i2c.c         ****  *    I2C_CODE_BUSY - data register is not ready -> byte was not sent
 263:i2c.c         ****  *
 264:i2c.c         ****  *****************************************************************************/
 265:i2c.c         **** tS8
 266:i2c.c         **** i2cPutChar(tU8 data)
 267:i2c.c         **** {
 272              		.loc 1 267 0
 273              	.LVL0:
 268:i2c.c         ****   tS8 retCode = 0;
 269:i2c.c         **** 
 270:i2c.c         ****   /* check if I2C Data register can be accessed */
 271:i2c.c         ****   if((I2C_CONSET & 0x08) != 0)  /* if SI = 1 */
 274              		.loc 1 271 0
 275 011c 074B     		ldr	r3, .L54
 276 011e 1B78     		ldrb	r3, [r3]
 277              		.loc 1 267 0
 278 0120 0006     		lsl	r0, r0, #24
 279              	.LVL1:
 280              		.loc 1 271 0
 281 0122 0822     		mov	r2, #8
 282              		.loc 1 267 0
 283              		@ lr needed for prologue
 284              		.loc 1 267 0
 285 0124 000E     		lsr	r0, r0, #24
 286              	.LVL2:
 287              		.loc 1 271 0
 288 0126 1342     		tst	r3, r2
 289 0128 05D0     		beq	.L53
 272:i2c.c         ****   {
 273:i2c.c         ****     /* send data */
 274:i2c.c         ****     I2C_DATA   = data;
 290              		.loc 1 274 0
 291 012a 054B     		ldr	r3, .L54+4
 292 012c 1870     		strb	r0, [r3]
ARM GAS  /cygdrive/c/DOCUME~1/mkwapisz/LOCALS~1/Temp/ccOQCEsf.s 			page 11


 275:i2c.c         ****     I2C_CONCLR = 0x08; /* clear SI flag */ 
 293              		.loc 1 275 0
 294 012e 1033     		add	r3, r3, #16
 295 0130 1A70     		strb	r2, [r3]
 296 0132 0120     		mov	r0, #1
 297              	.LVL3:
 298              	.L51:
 276:i2c.c         ****     retCode    = I2C_CODE_OK;
 277:i2c.c         ****   }
 278:i2c.c         ****   else
 279:i2c.c         ****   {
 280:i2c.c         ****     /* data register not ready */
 281:i2c.c         ****     retCode = I2C_CODE_BUSY;
 282:i2c.c         ****   }
 283:i2c.c         **** 
 284:i2c.c         ****   return retCode;
 285:i2c.c         **** }
 299              		.loc 1 285 0
 300              		@ sp needed for prologue
 301 0134 7047     		bx	lr
 302              	.LVL4:
 303              	.L53:
 304              		.loc 1 271 0
 305 0136 0420     		mov	r0, #4
 306              	.LVL5:
 307 0138 4042     		neg	r0, r0
 308 013a FBE7     		b	.L51
 309              	.L55:
 310              		.align	2
 311              	.L54:
 312 013c 00C001E0 		.word	-536756224
 313 0140 08C001E0 		.word	-536756216
 314              	.LFE7:
 315              		.size	i2cPutChar, .-i2cPutChar
 316              		.align	2
 317              		.global	i2cGetChar
 318              		.code 16
 319              		.thumb_func
 320              		.type	i2cGetChar, %function
 321              	i2cGetChar:
 322              	.LFB8:
 286:i2c.c         **** 
 287:i2c.c         **** /******************************************************************************
 288:i2c.c         ****  *
 289:i2c.c         ****  * Description:
 290:i2c.c         ****  *    Read a character. I2C master mode is used.
 291:i2c.c         ****  *    This function is also used to prepare if the master shall generate
 292:i2c.c         ****  *    acknowledge or not acknowledge.
 293:i2c.c         ****  *
 294:i2c.c         ****  * Params:
 295:i2c.c         ****  *    [in]  mode  - I2C_MODE_ACK0 Set ACK=0. Slave sends next byte
 296:i2c.c         ****  *                  I2C_MODE_ACK1 Set ACK=1. Slave sends last byte
 297:i2c.c         ****  *                  I2C_MODE_READ Read data from data register
 298:i2c.c         ****  *    [out] pData - a pointer to where the data shall be saved.
 299:i2c.c         ****  *
 300:i2c.c         ****  * Returns:
 301:i2c.c         ****  *    I2C_CODE_OK    - successful
ARM GAS  /cygdrive/c/DOCUME~1/mkwapisz/LOCALS~1/Temp/ccOQCEsf.s 			page 12


 302:i2c.c         ****  *    I2C_CODE_EMPTY - no data is available
 303:i2c.c         ****  *
 304:i2c.c         ****  *****************************************************************************/
 305:i2c.c         **** tS8
 306:i2c.c         **** i2cGetChar(tU8  mode,
 307:i2c.c         ****            tU8* pData)
 308:i2c.c         **** {
 323              		.loc 1 308 0
 324              	.LVL6:
 325 0144 0006     		lsl	r0, r0, #24
 326              	.LVL7:
 327 0146 000E     		lsr	r0, r0, #24
 328              	.LVL8:
 329              		@ lr needed for prologue
 309:i2c.c         ****   tS8 retCode = I2C_CODE_OK;
 310:i2c.c         **** 
 311:i2c.c         ****   if(mode == I2C_MODE_ACK0)
 330              		.loc 1 311 0
 331 0148 0028     		cmp	r0, #0
 332 014a 0BD1     		bne	.L57
 312:i2c.c         ****   {
 313:i2c.c         ****     /* the operation mode is changed from master transmit to master receive */
 314:i2c.c         **** 
 315:i2c.c         ****     /* set ACK=0 (informs slave to send next byte) */
 316:i2c.c         **** 
 317:i2c.c         ****     I2C_CONSET |= 0x04; /* AA=1          */
 333              		.loc 1 317 0
 334 014c 1149     		ldr	r1, .L71
 335              	.LVL9:
 336 014e 0B78     		ldrb	r3, [r1]
 337 0150 0422     		mov	r2, #4
 338 0152 1343     		orr	r3, r3, r2
 339 0154 1B06     		lsl	r3, r3, #24
 340 0156 1B0E     		lsr	r3, r3, #24
 341 0158 0B70     		strb	r3, [r1]
 318:i2c.c         ****     I2C_CONCLR = 0x08;  /* clear SI flag */   
 342              		.loc 1 318 0
 343 015a 0F4B     		ldr	r3, .L71+4
 344 015c 0822     		mov	r2, #8
 345 015e 1A70     		strb	r2, [r3]
 346 0160 0120     		mov	r0, #1
 347              	.LVL10:
 348              	.L59:
 349              	.LVL11:
 319:i2c.c         ****   }
 320:i2c.c         ****   else if(mode == I2C_MODE_ACK1)
 321:i2c.c         ****   {
 322:i2c.c         ****     /* set ACK=1 (informs slave to send last byte) */
 323:i2c.c         ****     I2C_CONCLR = 0x04;     
 324:i2c.c         ****     I2C_CONCLR = 0x08; /* clear SI flag */ 
 325:i2c.c         ****   }
 326:i2c.c         ****   else if(mode == I2C_MODE_READ)
 327:i2c.c         ****   {
 328:i2c.c         ****     /* check if I2C Data register can be accessed */
 329:i2c.c         ****     if((I2C_CONSET & 0x08) != 0)  /* SI = 1 */
 330:i2c.c         ****     {
 331:i2c.c         ****       /* read data  */
ARM GAS  /cygdrive/c/DOCUME~1/mkwapisz/LOCALS~1/Temp/ccOQCEsf.s 			page 13


 332:i2c.c         ****       *pData = (tU8) I2C_DATA;
 333:i2c.c         ****     }
 334:i2c.c         ****     else
 335:i2c.c         ****     {
 336:i2c.c         ****       /* No data available */
 337:i2c.c         ****       retCode = I2C_CODE_EMPTY;
 338:i2c.c         ****     }
 339:i2c.c         ****   }
 340:i2c.c         **** 
 341:i2c.c         ****   return retCode;
 342:i2c.c         **** }
 350              		.loc 1 342 0
 351              		@ sp needed for prologue
 352 0162 7047     		bx	lr
 353              	.LVL12:
 354              	.L57:
 355              		.loc 1 320 0
 356 0164 0128     		cmp	r0, #1
 357 0166 0CD0     		beq	.L68
 358              		.loc 1 326 0
 359 0168 0228     		cmp	r0, #2
 360 016a 01D0     		beq	.L69
 361              		.loc 1 332 0
 362 016c 0120     		mov	r0, #1
 363              	.LVL13:
 364 016e F8E7     		b	.L59
 365              	.LVL14:
 366              	.L69:
 367              		.loc 1 329 0
 368 0170 084B     		ldr	r3, .L71
 369 0172 1B78     		ldrb	r3, [r3]
 370 0174 1A07     		lsl	r2, r3, #28
 371 0176 0AD5     		bpl	.L70
 372              		.loc 1 332 0
 373 0178 084B     		ldr	r3, .L71+8
 374 017a 1B78     		ldrb	r3, [r3]
 375 017c 0120     		mov	r0, #1
 376              	.LVL15:
 377 017e 0B70     		strb	r3, [r1]
 378 0180 EFE7     		b	.L59
 379              	.LVL16:
 380              	.L68:
 381              		.loc 1 323 0
 382 0182 054B     		ldr	r3, .L71+4
 383 0184 0422     		mov	r2, #4
 384 0186 1A70     		strb	r2, [r3]
 385              		.loc 1 324 0
 386 0188 0822     		mov	r2, #8
 387 018a 1A70     		strb	r2, [r3]
 388 018c E9E7     		b	.L59
 389              	.L70:
 390              		.loc 1 329 0
 391 018e 0320     		mov	r0, #3
 392              	.LVL17:
 393 0190 4042     		neg	r0, r0
 394 0192 E6E7     		b	.L59
 395              	.L72:
ARM GAS  /cygdrive/c/DOCUME~1/mkwapisz/LOCALS~1/Temp/ccOQCEsf.s 			page 14


 396              		.align	2
 397              	.L71:
 398 0194 00C001E0 		.word	-536756224
 399 0198 18C001E0 		.word	-536756200
 400 019c 08C001E0 		.word	-536756216
 401              	.LFE8:
 402              		.size	i2cGetChar, .-i2cGetChar
 403              		.align	2
 404              		.global	i2cWrite
 405              		.code 16
 406              		.thumb_func
 407              		.type	i2cWrite, %function
 408              	i2cWrite:
 409              	.LFB9:
 343:i2c.c         **** 
 344:i2c.c         **** /******************************************************************************
 345:i2c.c         ****  *
 346:i2c.c         ****  * Description:
 347:i2c.c         ****  *    Sends data on the I2C network
 348:i2c.c         ****  *
 349:i2c.c         ****  *    Note: After this function is run, you may need a bus free time before a 
 350:i2c.c         ****  *          new data transfer can be initiated.
 351:i2c.c         ****  *
 352:i2c.c         ****  * Params:
 353:i2c.c         ****  *    [in] addr  - address
 354:i2c.c         ****  *    [in] pData - data to transmit
 355:i2c.c         ****  *    [in] len   - number of bytes to transmit
 356:i2c.c         ****  *
 357:i2c.c         ****  * Returns:
 358:i2c.c         ****  *    I2C_CODE_OK    - successful
 359:i2c.c         ****  *    I2C_CODE_ERROR - an error occured
 360:i2c.c         ****  *
 361:i2c.c         ****  *****************************************************************************/
 362:i2c.c         **** tS8
 363:i2c.c         **** i2cWrite(tU8  addr,
 364:i2c.c         ****          tU8* pData,
 365:i2c.c         ****          tU16 len)
 366:i2c.c         **** {
 410              		.loc 1 366 0
 411 01a0 F0B5     		push	{r4, r5, r6, r7, lr}
 412              	.LCFI2:
 413              	.LVL18:
 414              		.loc 1 366 0
 415 01a2 0006     		lsl	r0, r0, #24
 416              	.LVL19:
 417 01a4 1204     		lsl	r2, r2, #16
 418              	.LVL20:
 419 01a6 0E1C     		mov	r6, r1
 420 01a8 050E     		lsr	r5, r0, #24
 421              	.LVL21:
 422 01aa 170C     		lsr	r7, r2, #16
 423              	.LVL22:
 367:i2c.c         ****   tS8 retCode = 0;
 368:i2c.c         ****   tU8 status  = 0;
 369:i2c.c         ****   tU8 i       = 0;
 370:i2c.c         **** 
 371:i2c.c         ****   /* generate Start condition */
ARM GAS  /cygdrive/c/DOCUME~1/mkwapisz/LOCALS~1/Temp/ccOQCEsf.s 			page 15


 372:i2c.c         ****   retCode = i2cStart();
 424              		.loc 1 372 0
 425 01ac FFF7FEFF 		bl	i2cStart
 426              	.LVL23:
 427 01b0 0006     		lsl	r0, r0, #24
 373:i2c.c         **** 
 374:i2c.c         ****   /* Transmit address */
 375:i2c.c         ****   if(retCode == I2C_CODE_OK)
 428              		.loc 1 375 0
 429 01b2 040E     		lsr	r4, r0, #24
 430              	.LVL24:
 431 01b4 0016     		asr	r0, r0, #24
 432 01b6 0128     		cmp	r0, #1
 433 01b8 0FD0     		beq	.L107
 434              	.LVL25:
 435              	.L100:
 376:i2c.c         ****   {
 377:i2c.c         ****     /* write SLA+W */
 378:i2c.c         ****     retCode = i2cPutChar(addr);
 379:i2c.c         ****     while(retCode == I2C_CODE_BUSY)
 380:i2c.c         ****     {
 381:i2c.c         ****       retCode = i2cPutChar(addr);
 382:i2c.c         ****     }
 383:i2c.c         ****   }
 384:i2c.c         **** 
 385:i2c.c         ****   if(retCode == I2C_CODE_OK)
 386:i2c.c         ****   {
 387:i2c.c         ****     /* wait until address transmitted and transmit data */
 388:i2c.c         ****     for(i = 0; i < len; i++)
 389:i2c.c         ****     {
 390:i2c.c         ****       /* wait until data transmitted */
 391:i2c.c         **** 
 392:i2c.c         ****       while(1)
 393:i2c.c         ****       {
 394:i2c.c         ****         /* get new status */
 395:i2c.c         ****         status = i2cCheckStatus();
 396:i2c.c         **** 
 397:i2c.c         ****         /* 
 398:i2c.c         ****          * SLA+W transmitted, ACK received or
 399:i2c.c         ****          * data byte transmitted, ACK received
 400:i2c.c         ****          */
 401:i2c.c         ****         if( (status == 0x18) || (status == 0x28) )
 402:i2c.c         ****         {
 403:i2c.c         ****           /* Data transmitted and ACK received */
 404:i2c.c         **** 
 405:i2c.c         ****           /* write data */
 406:i2c.c         ****           retCode = i2cPutChar(*pData);
 407:i2c.c         ****           while(retCode == I2C_CODE_BUSY)
 408:i2c.c         ****           {
 409:i2c.c         ****             retCode = i2cPutChar(*pData);
 410:i2c.c         ****           }
 411:i2c.c         ****           pData++;
 412:i2c.c         **** 
 413:i2c.c         ****           break;
 414:i2c.c         ****         }
 415:i2c.c         **** 
 416:i2c.c         ****         /* no relevant status information */
ARM GAS  /cygdrive/c/DOCUME~1/mkwapisz/LOCALS~1/Temp/ccOQCEsf.s 			page 16


 417:i2c.c         ****         else if( status != 0xf8 )
 418:i2c.c         ****         {
 419:i2c.c         ****           /* error */
 420:i2c.c         ****           i = len;
 421:i2c.c         ****           retCode = I2C_CODE_ERROR;
 422:i2c.c         ****           break;
 423:i2c.c         ****         }
 424:i2c.c         ****       }
 425:i2c.c         ****     }
 426:i2c.c         ****   }
 427:i2c.c         **** 
 428:i2c.c         ****   /* wait until data transmitted */
 429:i2c.c         ****   while(1)
 430:i2c.c         ****   {
 431:i2c.c         ****     /* get new status */
 432:i2c.c         ****     status = i2cCheckStatus();
 436              		.loc 1 432 0
 437 01ba FFF7FEFF 		bl	i2cCheckStatus
 438              	.LVL26:
 439              	.LVL27:
 433:i2c.c         **** 
 434:i2c.c         ****     /* 
 435:i2c.c         ****      * SLA+W transmitted, ACK received or
 436:i2c.c         ****      * data byte transmitted, ACK received
 437:i2c.c         ****      */
 438:i2c.c         ****     if( (status == 0x18) || (status == 0x28) )
 440              		.loc 1 438 0
 441 01be 1828     		cmp	r0, #24
 442 01c0 2AD0     		beq	.L108
 443 01c2 2828     		cmp	r0, #40
 444 01c4 28D0     		beq	.L108
 439:i2c.c         ****     {
 440:i2c.c         ****       /* data transmitted and ACK received */
 441:i2c.c         ****       break;
 442:i2c.c         ****     }
 443:i2c.c         **** 
 444:i2c.c         ****     /* no relevant status information */
 445:i2c.c         ****     else if(status != 0xf8 )
 445              		.loc 1 445 0
 446 01c6 F828     		cmp	r0, #248
 447 01c8 F7D0     		beq	.L100
 448 01ca 0124     		mov	r4, #1
 449              	.LVL28:
 450 01cc 6442     		neg	r4, r4
 451              	.L90:
 446:i2c.c         ****     {
 447:i2c.c         ****       /* error */
 448:i2c.c         ****       i = len;
 449:i2c.c         ****       retCode = I2C_CODE_ERROR;
 450:i2c.c         ****       break;
 451:i2c.c         ****     }
 452:i2c.c         ****   }
 453:i2c.c         **** 
 454:i2c.c         ****   /* generate Stop condition */
 455:i2c.c         ****   i2cStop();
 452              		.loc 1 455 0
 453 01ce FFF7FEFF 		bl	i2cStop
ARM GAS  /cygdrive/c/DOCUME~1/mkwapisz/LOCALS~1/Temp/ccOQCEsf.s 			page 17


 454              	.LVL29:
 456:i2c.c         **** 
 457:i2c.c         ****   return retCode;
 458:i2c.c         **** }
 455              		.loc 1 458 0
 456 01d2 201C     		mov	r0, r4
 457              		@ sp needed for prologue
 458              	.LVL30:
 459              	.LVL31:
 460              	.LVL32:
 461 01d4 F0BC     		pop	{r4, r5, r6, r7}
 462 01d6 02BC     		pop	{r1}
 463 01d8 0847     		bx	r1
 464              	.LVL33:
 465              	.L107:
 466              		.loc 1 378 0
 467 01da 281C     		mov	r0, r5
 468 01dc FFF7FEFF 		bl	i2cPutChar
 469 01e0 0006     		lsl	r0, r0, #24
 470 01e2 040E     		lsr	r4, r0, #24
 471              		.loc 1 379 0
 472 01e4 2306     		lsl	r3, r4, #24
 473 01e6 FC2C     		cmp	r4, #252
 474 01e8 F7D0     		beq	.L107
 475              		.loc 1 385 0
 476 01ea 1B16     		asr	r3, r3, #24
 477 01ec 012B     		cmp	r3, #1
 478 01ee E4D1     		bne	.L100
 479              		.loc 1 388 0
 480 01f0 002F     		cmp	r7, #0
 481 01f2 E2D0     		beq	.L100
 482 01f4 0025     		mov	r5, #0
 483              	.LVL34:
 484              	.LVL35:
 485              	.L109:
 486              		.loc 1 395 0
 487 01f6 FFF7FEFF 		bl	i2cCheckStatus
 488              	.LVL36:
 489              	.LVL37:
 490              		.loc 1 401 0
 491 01fa 1828     		cmp	r0, #24
 492 01fc 0FD0     		beq	.L81
 493 01fe 2828     		cmp	r0, #40
 494 0200 0DD0     		beq	.L81
 495              		.loc 1 417 0
 496 0202 F828     		cmp	r0, #248
 497 0204 F7D0     		beq	.L109
 498              		.loc 1 420 0
 499 0206 3B06     		lsl	r3, r7, #24
 500 0208 1D0E     		lsr	r5, r3, #24
 501 020a FF24     		mov	r4, #255
 502              	.L86:
 503              		.loc 1 388 0
 504 020c 6B1C     		add	r3, r5, #1
 505 020e 1B06     		lsl	r3, r3, #24
 506 0210 1D0E     		lsr	r5, r3, #24
 507 0212 AF42     		cmp	r7, r5
ARM GAS  /cygdrive/c/DOCUME~1/mkwapisz/LOCALS~1/Temp/ccOQCEsf.s 			page 18


 508 0214 EFD8     		bhi	.L109
 509 0216 D0E7     		b	.L100
 510              	.LVL38:
 511              	.L108:
 512              		.loc 1 438 0
 513 0218 2306     		lsl	r3, r4, #24
 514 021a 1C16     		asr	r4, r3, #24
 515              	.LVL39:
 516 021c D7E7     		b	.L90
 517              	.LVL40:
 518              	.L81:
 519              		.loc 1 406 0
 520 021e 3078     		ldrb	r0, [r6]
 521              	.LVL41:
 522 0220 FFF7FEFF 		bl	i2cPutChar
 523 0224 0006     		lsl	r0, r0, #24
 524              		.loc 1 407 0
 525 0226 040E     		lsr	r4, r0, #24
 526 0228 0016     		asr	r0, r0, #24
 527 022a 0430     		add	r0, r0, #4
 528 022c F7D0     		beq	.L81
 529              		.loc 1 411 0
 530 022e 0136     		add	r6, r6, #1
 531 0230 ECE7     		b	.L86
 532              	.LFE9:
 533              		.size	i2cWrite, .-i2cWrite
 534 0232 0000     		.align	2
 535              		.global	i2cWaitTransmit
 536              		.code 16
 537              		.thumb_func
 538              		.type	i2cWaitTransmit, %function
 539              	i2cWaitTransmit:
 540              	.LFB10:
 459:i2c.c         **** 
 460:i2c.c         **** tS8
 461:i2c.c         **** i2cWaitTransmit(void)
 462:i2c.c         **** {
 541              		.loc 1 462 0
 542 0234 00B5     		push	{lr}
 543              	.LCFI3:
 544              	.L111:
 463:i2c.c         ****   tU8 status = 0;
 464:i2c.c         **** 
 465:i2c.c         ****   /* wait until data transmitted */
 466:i2c.c         ****   while(1)
 467:i2c.c         ****   {
 468:i2c.c         ****     /* get new status */
 469:i2c.c         ****     status = i2cCheckStatus();
 545              		.loc 1 469 0
 546 0236 FFF7FEFF 		bl	i2cCheckStatus
 470:i2c.c         **** 
 471:i2c.c         ****     /* 
 472:i2c.c         ****      * SLA+W transmitted, ACK received or
 473:i2c.c         ****      * data byte transmitted, ACK received
 474:i2c.c         ****      */
 475:i2c.c         ****     if( (status == 0x18) || (status == 0x28) )
 547              		.loc 1 475 0
ARM GAS  /cygdrive/c/DOCUME~1/mkwapisz/LOCALS~1/Temp/ccOQCEsf.s 			page 19


 548 023a 1828     		cmp	r0, #24
 549 023c 07D0     		beq	.L112
 550 023e 2828     		cmp	r0, #40
 551 0240 05D0     		beq	.L112
 476:i2c.c         ****     {
 477:i2c.c         ****       /* data transmitted and ACK received */
 478:i2c.c         ****       return I2C_CODE_OK;
 479:i2c.c         ****     }
 480:i2c.c         **** 
 481:i2c.c         ****     /* no relevant status information */
 482:i2c.c         ****     else if(status != 0xf8 )
 552              		.loc 1 482 0
 553 0242 F828     		cmp	r0, #248
 554 0244 F7D0     		beq	.L111
 555 0246 0120     		mov	r0, #1
 556 0248 4042     		neg	r0, r0
 557              	.L116:
 483:i2c.c         ****     {
 484:i2c.c         ****       /* error */
 485:i2c.c         **** 
 486:i2c.c         ****       return I2C_CODE_ERROR;
 487:i2c.c         ****     }
 488:i2c.c         ****   }
 489:i2c.c         **** }
 558              		.loc 1 489 0
 559              		@ sp needed for prologue
 560 024a 02BC     		pop	{r1}
 561 024c 0847     		bx	r1
 562              	.L112:
 563              		.loc 1 482 0
 564 024e 0120     		mov	r0, #1
 565 0250 FBE7     		b	.L116
 566              	.LFE10:
 567              		.size	i2cWaitTransmit, .-i2cWaitTransmit
 568 0252 0000     		.align	2
 569              		.global	i2cWriteWithWait
 570              		.code 16
 571              		.thumb_func
 572              		.type	i2cWriteWithWait, %function
 573              	i2cWriteWithWait:
 574              	.LFB11:
 490:i2c.c         **** 
 491:i2c.c         **** tS8
 492:i2c.c         **** i2cWriteWithWait(tU8 data)
 493:i2c.c         **** {
 575              		.loc 1 493 0
 576 0254 10B5     		push	{r4, lr}
 577              	.LCFI4:
 578              	.LVL42:
 579 0256 0006     		lsl	r0, r0, #24
 580              	.LVL43:
 581 0258 040E     		lsr	r4, r0, #24
 582              	.L128:
 494:i2c.c         ****   tS8 retCode = 0;
 495:i2c.c         ****   
 496:i2c.c         ****   retCode = i2cPutChar(data);
 583              		.loc 1 496 0
ARM GAS  /cygdrive/c/DOCUME~1/mkwapisz/LOCALS~1/Temp/ccOQCEsf.s 			page 20


 584 025a 201C     		mov	r0, r4
 585 025c FFF7FEFF 		bl	i2cPutChar
 497:i2c.c         ****   while(retCode == I2C_CODE_BUSY)
 586              		.loc 1 497 0
 587 0260 0006     		lsl	r0, r0, #24
 588 0262 0316     		asr	r3, r0, #24
 589 0264 0433     		add	r3, r3, #4
 590 0266 F8D0     		beq	.L128
 498:i2c.c         ****   {
 499:i2c.c         ****     retCode = i2cPutChar(data);
 500:i2c.c         ****   }
 501:i2c.c         **** 
 502:i2c.c         ****   if(retCode == I2C_CODE_OK)
 591              		.loc 1 502 0
 592 0268 0316     		asr	r3, r0, #24
 593 026a 012B     		cmp	r3, #1
 594 026c 03D0     		beq	.L129
 595              	.L123:
 503:i2c.c         ****     retCode = i2cWaitTransmit();
 596              		.loc 1 503 0
 597 026e 0016     		asr	r0, r0, #24
 504:i2c.c         **** 
 505:i2c.c         ****   return retCode;
 506:i2c.c         **** }
 598              		.loc 1 506 0
 599              		@ sp needed for prologue
 600 0270 10BC     		pop	{r4}
 601 0272 02BC     		pop	{r1}
 602 0274 0847     		bx	r1
 603              	.L129:
 604              		.loc 1 503 0
 605 0276 FFF7FEFF 		bl	i2cWaitTransmit
 606 027a 0006     		lsl	r0, r0, #24
 607 027c F7E7     		b	.L123
 608              	.LFE11:
 609              		.size	i2cWriteWithWait, .-i2cWriteWithWait
 610 027e 0000     		.align	2
 611              		.global	i2cMyWrite
 612              		.code 16
 613              		.thumb_func
 614              		.type	i2cMyWrite, %function
 615              	i2cMyWrite:
 616              	.LFB12:
 507:i2c.c         **** 
 508:i2c.c         **** tS8
 509:i2c.c         **** i2cMyWrite(tU8  addr,
 510:i2c.c         ****            tU8* pData,
 511:i2c.c         ****            tU16 len)
 512:i2c.c         **** {
 617              		.loc 1 512 0
 618 0280 70B5     		push	{r4, r5, r6, lr}
 619              	.LCFI5:
 620              	.LVL44:
 621              		.loc 1 512 0
 622 0282 0006     		lsl	r0, r0, #24
 623              	.LVL45:
 624 0284 1204     		lsl	r2, r2, #16
ARM GAS  /cygdrive/c/DOCUME~1/mkwapisz/LOCALS~1/Temp/ccOQCEsf.s 			page 21


 625              	.LVL46:
 626 0286 0D1C     		mov	r5, r1
 627 0288 040E     		lsr	r4, r0, #24
 628              	.LVL47:
 629 028a 160C     		lsr	r6, r2, #16
 630              	.LVL48:
 513:i2c.c         ****   tS8 retCode = 0;
 514:i2c.c         ****   tU8 i       = 0;
 515:i2c.c         **** 
 516:i2c.c         ****   do
 517:i2c.c         ****   {
 518:i2c.c         ****     /* generate Start condition */
 519:i2c.c         ****     retCode = i2cStart();
 631              		.loc 1 519 0
 632 028c FFF7FEFF 		bl	i2cStart
 633              	.LVL49:
 520:i2c.c         ****     if(retCode != I2C_CODE_OK)
 634              		.loc 1 520 0
 635 0290 0006     		lsl	r0, r0, #24
 636 0292 0016     		asr	r0, r0, #24
 637 0294 0128     		cmp	r0, #1
 638 0296 06D0     		beq	.L145
 639              	.LVL50:
 640              	.L143:
 521:i2c.c         ****       break;
 522:i2c.c         **** 
 523:i2c.c         ****     /* write address */
 524:i2c.c         ****     retCode = i2cWriteWithWait(addr);
 525:i2c.c         ****     if(retCode != I2C_CODE_OK)
 526:i2c.c         ****       break;
 527:i2c.c         **** 
 528:i2c.c         ****     for(i = 0; i <len; i++)
 529:i2c.c         ****     {
 530:i2c.c         ****       retCode = i2cWriteWithWait(*pData);
 531:i2c.c         ****       if(retCode != I2C_CODE_OK)
 641              		.loc 1 531 0
 642 0298 041C     		mov	r4, r0
 643              	.LVL51:
 644              	.L133:
 532:i2c.c         ****         break;
 533:i2c.c         **** 
 534:i2c.c         ****       pData++;
 535:i2c.c         ****     }
 536:i2c.c         **** 
 537:i2c.c         ****   } while(0);
 538:i2c.c         **** 
 539:i2c.c         ****   /* generate Stop condition */
 540:i2c.c         ****   i2cStop();
 645              		.loc 1 540 0
 646 029a FFF7FEFF 		bl	i2cStop
 541:i2c.c         **** 
 542:i2c.c         **** 
 543:i2c.c         ****   return retCode;
 544:i2c.c         **** }
 647              		.loc 1 544 0
 648 029e 201C     		mov	r0, r4
 649              		@ sp needed for prologue
ARM GAS  /cygdrive/c/DOCUME~1/mkwapisz/LOCALS~1/Temp/ccOQCEsf.s 			page 22


 650              	.LVL52:
 651              	.LVL53:
 652 02a0 70BC     		pop	{r4, r5, r6}
 653 02a2 02BC     		pop	{r1}
 654 02a4 0847     		bx	r1
 655              	.LVL54:
 656              	.L145:
 657              		.loc 1 524 0
 658 02a6 201C     		mov	r0, r4
 659 02a8 FFF7FEFF 		bl	i2cWriteWithWait
 660              		.loc 1 525 0
 661 02ac 0006     		lsl	r0, r0, #24
 662 02ae 0016     		asr	r0, r0, #24
 663 02b0 0128     		cmp	r0, #1
 664 02b2 F1D1     		bne	.L143
 665              		.loc 1 528 0
 666 02b4 002E     		cmp	r6, #0
 667 02b6 0FD0     		beq	.L136
 668 02b8 0024     		mov	r4, #0
 669              	.LVL55:
 670 02ba 05E0     		b	.L138
 671              	.L146:
 672 02bc 631C     		add	r3, r4, #1
 673 02be 1B06     		lsl	r3, r3, #24
 674 02c0 1C0E     		lsr	r4, r3, #24
 675 02c2 B442     		cmp	r4, r6
 676 02c4 08D2     		bcs	.L136
 677              		.loc 1 534 0
 678 02c6 0135     		add	r5, r5, #1
 679              	.L138:
 680              		.loc 1 530 0
 681 02c8 2878     		ldrb	r0, [r5]
 682 02ca FFF7FEFF 		bl	i2cWriteWithWait
 683              		.loc 1 531 0
 684 02ce 0006     		lsl	r0, r0, #24
 685 02d0 0016     		asr	r0, r0, #24
 686 02d2 0128     		cmp	r0, #1
 687 02d4 F2D0     		beq	.L146
 688 02d6 DFE7     		b	.L143
 689              	.LVL56:
 690              	.L136:
 691              		.loc 1 534 0
 692 02d8 0124     		mov	r4, #1
 693              	.LVL57:
 694 02da DEE7     		b	.L133
 695              	.LFE12:
 696              		.size	i2cMyWrite, .-i2cMyWrite
 697              		.align	2
 698              		.global	i2cRead
 699              		.code 16
 700              		.thumb_func
 701              		.type	i2cRead, %function
 702              	i2cRead:
 703              	.LFB13:
 545:i2c.c         **** 
 546:i2c.c         **** 
 547:i2c.c         **** /******************************************************************************
ARM GAS  /cygdrive/c/DOCUME~1/mkwapisz/LOCALS~1/Temp/ccOQCEsf.s 			page 23


 548:i2c.c         ****  *
 549:i2c.c         ****  * Description:
 550:i2c.c         ****  *    Read a specified number of bytes from the I2C network.
 551:i2c.c         ****  *
 552:i2c.c         ****  *    Note: After this function is run, you may need a bus free time before a 
 553:i2c.c         ****  *          new data transfer can be initiated.
 554:i2c.c         ****  *
 555:i2c.c         ****  * Params:
 556:i2c.c         ****  *    [in] addr - address
 557:i2c.c         ****  *    [in] pBuf - receive buffer
 558:i2c.c         ****  *    [in] len  - number of bytes to receive
 559:i2c.c         ****  *
 560:i2c.c         ****  * Returns:
 561:i2c.c         ****  *    I2C_CODE_OK or I2C status code
 562:i2c.c         ****  *
 563:i2c.c         ****  *****************************************************************************/
 564:i2c.c         **** tS8
 565:i2c.c         **** i2cRead(tU8  addr,
 566:i2c.c         ****         tU8* pBuf,
 567:i2c.c         ****         tU16 len)
 568:i2c.c         **** {
 704              		.loc 1 568 0
 705 02dc F0B5     		push	{r4, r5, r6, r7, lr}
 706              	.LCFI6:
 707              	.LVL58:
 708              		.loc 1 568 0
 709 02de 0006     		lsl	r0, r0, #24
 710              	.LVL59:
 711 02e0 1204     		lsl	r2, r2, #16
 712              	.LVL60:
 713 02e2 0D1C     		mov	r5, r1
 714 02e4 040E     		lsr	r4, r0, #24
 715              	.LVL61:
 716 02e6 160C     		lsr	r6, r2, #16
 717              	.LVL62:
 569:i2c.c         ****   tS8 retCode = 0;
 570:i2c.c         ****   tU8 status  = 0;
 571:i2c.c         ****   tU8 i       = 0;
 572:i2c.c         **** 
 573:i2c.c         ****   /* Generate Start condition */
 574:i2c.c         ****   retCode = i2cStart();
 718              		.loc 1 574 0
 719 02e8 FFF7FEFF 		bl	i2cStart
 720              	.LVL63:
 575:i2c.c         **** 
 576:i2c.c         ****   /* Transmit address */
 577:i2c.c         ****   if(retCode == I2C_CODE_OK )
 721              		.loc 1 577 0
 722 02ec 0006     		lsl	r0, r0, #24
 723 02ee 0016     		asr	r0, r0, #24
 724 02f0 0128     		cmp	r0, #1
 725 02f2 06D0     		beq	.L148
 726              	.L180:
 578:i2c.c         ****   {
 579:i2c.c         ****     /* write SLA+R */
 580:i2c.c         ****     retCode = i2cPutChar(addr);
 581:i2c.c         ****     while(retCode == I2C_CODE_BUSY)
ARM GAS  /cygdrive/c/DOCUME~1/mkwapisz/LOCALS~1/Temp/ccOQCEsf.s 			page 24


 582:i2c.c         ****     {
 583:i2c.c         ****       retCode = i2cPutChar(addr);
 584:i2c.c         ****     }
 585:i2c.c         ****   }
 586:i2c.c         **** 
 587:i2c.c         ****   if(retCode == I2C_CODE_OK )
 727              		.loc 1 587 0
 728 02f4 041C     		mov	r4, r0
 729              	.LVL64:
 730              	.L150:
 588:i2c.c         ****   {
 589:i2c.c         ****     /* wait until address transmitted and receive data */
 590:i2c.c         ****     for(i = 1; i <= len; i++ )
 591:i2c.c         ****     {
 592:i2c.c         ****       /* wait until data transmitted */
 593:i2c.c         ****       while(1)
 594:i2c.c         ****       {
 595:i2c.c         ****         /* get new status */
 596:i2c.c         ****         status = i2cCheckStatus();
 597:i2c.c         **** 
 598:i2c.c         ****         /*
 599:i2c.c         ****          * SLA+R transmitted, ACK received or
 600:i2c.c         ****          * SLA+R transmitted, ACK not received
 601:i2c.c         ****          * data byte received in master mode, ACK transmitted
 602:i2c.c         ****          */
 603:i2c.c         ****         if((status == 0x40 ) || (status == 0x48 ) || (status == 0x50 ))
 604:i2c.c         ****         {
 605:i2c.c         ****           /* data received */
 606:i2c.c         **** 
 607:i2c.c         ****           if(i == len)
 608:i2c.c         ****           {
 609:i2c.c         ****             /* Set generate NACK */
 610:i2c.c         ****             retCode = i2cGetChar(I2C_MODE_ACK1, pBuf);
 611:i2c.c         ****           }
 612:i2c.c         ****           else
 613:i2c.c         ****           {
 614:i2c.c         ****             retCode = i2cGetChar(I2C_MODE_ACK0, pBuf);
 615:i2c.c         ****           }
 616:i2c.c         **** 
 617:i2c.c         ****           /* Read data */
 618:i2c.c         ****           retCode = i2cGetChar(I2C_MODE_READ, pBuf);
 619:i2c.c         ****           while(retCode == I2C_CODE_EMPTY)
 620:i2c.c         ****           {
 621:i2c.c         ****             retCode = i2cGetChar(I2C_MODE_READ, pBuf);
 622:i2c.c         ****           }
 623:i2c.c         ****           pBuf++;
 624:i2c.c         **** 
 625:i2c.c         ****           break;
 626:i2c.c         ****         }
 627:i2c.c         **** 
 628:i2c.c         ****         /* no relevant status information */
 629:i2c.c         ****         else if(status != 0xf8 )
 630:i2c.c         ****         {
 631:i2c.c         ****           /* error */
 632:i2c.c         ****           i = len;
 633:i2c.c         ****           retCode = I2C_CODE_ERROR;
 634:i2c.c         ****           break;
ARM GAS  /cygdrive/c/DOCUME~1/mkwapisz/LOCALS~1/Temp/ccOQCEsf.s 			page 25


 635:i2c.c         ****         }
 636:i2c.c         ****       }
 637:i2c.c         ****     }
 638:i2c.c         ****   }
 639:i2c.c         **** 
 640:i2c.c         ****   /*--- Generate Stop condition ---*/
 641:i2c.c         ****   i2cStop();
 731              		.loc 1 641 0
 732 02f6 FFF7FEFF 		bl	i2cStop
 733              	.LVL65:
 642:i2c.c         **** 
 643:i2c.c         ****   return retCode;
 644:i2c.c         **** }
 734              		.loc 1 644 0
 735 02fa 201C     		mov	r0, r4
 736              		@ sp needed for prologue
 737              	.LVL66:
 738              	.LVL67:
 739              	.LVL68:
 740 02fc F0BC     		pop	{r4, r5, r6, r7}
 741 02fe 02BC     		pop	{r1}
 742 0300 0847     		bx	r1
 743              	.LVL69:
 744              	.L148:
 745              		.loc 1 580 0
 746 0302 201C     		mov	r0, r4
 747 0304 FFF7FEFF 		bl	i2cPutChar
 748              		.loc 1 581 0
 749 0308 0006     		lsl	r0, r0, #24
 750 030a 0316     		asr	r3, r0, #24
 751 030c 0433     		add	r3, r3, #4
 752 030e F8D0     		beq	.L148
 753              		.loc 1 587 0
 754 0310 0016     		asr	r0, r0, #24
 755 0312 0128     		cmp	r0, #1
 756 0314 EED1     		bne	.L180
 757              		.loc 1 590 0
 758 0316 002E     		cmp	r6, #0
 759 0318 2DD0     		beq	.L182
 760 031a 0127     		mov	r7, #1
 761              	.LVL70:
 762 031c 0124     		mov	r4, #1
 763              	.LVL71:
 764              	.LVL72:
 765              	.L181:
 766              		.loc 1 596 0
 767 031e FFF7FEFF 		bl	i2cCheckStatus
 768              	.LVL73:
 769              	.LVL74:
 770              		.loc 1 603 0
 771 0322 4028     		cmp	r0, #64
 772 0324 11D0     		beq	.L158
 773 0326 4828     		cmp	r0, #72
 774 0328 0FD0     		beq	.L158
 775 032a 5028     		cmp	r0, #80
 776 032c 0DD0     		beq	.L158
 777              		.loc 1 629 0
ARM GAS  /cygdrive/c/DOCUME~1/mkwapisz/LOCALS~1/Temp/ccOQCEsf.s 			page 26


 778 032e F828     		cmp	r0, #248
 779 0330 F5D0     		beq	.L181
 780              		.loc 1 632 0
 781 0332 3306     		lsl	r3, r6, #24
 782 0334 1F0E     		lsr	r7, r3, #24
 783 0336 FF22     		mov	r2, #255
 784              	.LVL75:
 785              	.L167:
 786              		.loc 1 590 0
 787 0338 7B1C     		add	r3, r7, #1
 788 033a 1B06     		lsl	r3, r3, #24
 789 033c 1C0E     		lsr	r4, r3, #24
 790 033e 271C     		mov	r7, r4
 791 0340 B442     		cmp	r4, r6
 792 0342 ECD9     		bls	.L181
 793 0344 1306     		lsl	r3, r2, #24
 794 0346 1C16     		asr	r4, r3, #24
 795 0348 D5E7     		b	.L150
 796              	.LVL76:
 797              	.L158:
 798              		.loc 1 607 0
 799 034a A642     		cmp	r6, r4
 800 034c 0ED0     		beq	.L183
 801              		.loc 1 614 0
 802 034e 0020     		mov	r0, #0
 803              	.LVL77:
 804 0350 291C     		mov	r1, r5
 805 0352 FFF7FEFF 		bl	i2cGetChar
 806              	.L164:
 807              		.loc 1 618 0
 808 0356 0220     		mov	r0, #2
 809 0358 291C     		mov	r1, r5
 810 035a FFF7FEFF 		bl	i2cGetChar
 811 035e 0006     		lsl	r0, r0, #24
 812              		.loc 1 619 0
 813 0360 020E     		lsr	r2, r0, #24
 814              	.LVL78:
 815 0362 0016     		asr	r0, r0, #24
 816 0364 0330     		add	r0, r0, #3
 817 0366 F6D0     		beq	.L164
 818              		.loc 1 623 0
 819 0368 0135     		add	r5, r5, #1
 820 036a E5E7     		b	.L167
 821              	.LVL79:
 822              	.L183:
 823              		.loc 1 610 0
 824 036c 291C     		mov	r1, r5
 825 036e 0120     		mov	r0, #1
 826              	.LVL80:
 827 0370 FFF7FEFF 		bl	i2cGetChar
 828 0374 EFE7     		b	.L164
 829              	.LVL81:
 830              	.L182:
 831              		.loc 1 590 0
 832 0376 0124     		mov	r4, #1
 833              	.LVL82:
 834 0378 BDE7     		b	.L150
ARM GAS  /cygdrive/c/DOCUME~1/mkwapisz/LOCALS~1/Temp/ccOQCEsf.s 			page 27


 835              	.LFE13:
 836              		.size	i2cRead, .-i2cRead
 837              		.section	.debug_frame,"",%progbits
 838              	.Lframe0:
 839 0000 0C000000 		.4byte	.LECIE0-.LSCIE0
 840              	.LSCIE0:
 841 0004 FFFFFFFF 		.4byte	0xffffffff
 842 0008 01       		.byte	0x1
 843 0009 00       		.ascii	"\000"
 844 000a 01       		.uleb128 0x1
 845 000b 7C       		.sleb128 -4
 846 000c 0E       		.byte	0xe
 847 000d 0C       		.byte	0xc
 848 000e 0D       		.uleb128 0xd
 849 000f 00       		.uleb128 0x0
 850              		.align	2
 851              	.LECIE0:
 852              	.LSFDE0:
 853 0010 0C000000 		.4byte	.LEFDE0-.LASFDE0
 854              	.LASFDE0:
 855 0014 00000000 		.4byte	.Lframe0
 856 0018 00000000 		.4byte	.LFB2
 857 001c 18000000 		.4byte	.LFE2-.LFB2
 858              		.align	2
 859              	.LEFDE0:
 860              	.LSFDE2:
 861 0020 0C000000 		.4byte	.LEFDE2-.LASFDE2
 862              	.LASFDE2:
 863 0024 00000000 		.4byte	.Lframe0
 864 0028 18000000 		.4byte	.LFB3
 865 002c 4C000000 		.4byte	.LFE3-.LFB3
 866              		.align	2
 867              	.LEFDE2:
 868              	.LSFDE4:
 869 0030 18000000 		.4byte	.LEFDE4-.LASFDE4
 870              	.LASFDE4:
 871 0034 00000000 		.4byte	.Lframe0
 872 0038 64000000 		.4byte	.LFB4
 873 003c 44000000 		.4byte	.LFE4-.LFB4
 874 0040 42       		.byte	0x4
 875              		.4byte	.LCFI0-.LFB4
 876 0041 0E       		.byte	0xe
 877 0042 0C       		.uleb128 0xc
 878 0043 84       		.byte	0x84
 879 0044 03       		.uleb128 0x3
 880 0045 85       		.byte	0x85
 881 0046 02       		.uleb128 0x2
 882 0047 8E       		.byte	0x8e
 883 0048 01       		.uleb128 0x1
 884 0049 000000   		.align	2
 885              	.LEFDE4:
 886              	.LSFDE6:
 887 004c 18000000 		.4byte	.LEFDE6-.LASFDE6
 888              	.LASFDE6:
 889 0050 00000000 		.4byte	.Lframe0
 890 0054 A8000000 		.4byte	.LFB5
 891 0058 4C000000 		.4byte	.LFE5-.LFB5
ARM GAS  /cygdrive/c/DOCUME~1/mkwapisz/LOCALS~1/Temp/ccOQCEsf.s 			page 28


 892 005c 42       		.byte	0x4
 893              		.4byte	.LCFI1-.LFB5
 894 005d 0E       		.byte	0xe
 895 005e 0C       		.uleb128 0xc
 896 005f 84       		.byte	0x84
 897 0060 03       		.uleb128 0x3
 898 0061 85       		.byte	0x85
 899 0062 02       		.uleb128 0x2
 900 0063 8E       		.byte	0x8e
 901 0064 01       		.uleb128 0x1
 902 0065 000000   		.align	2
 903              	.LEFDE6:
 904              	.LSFDE8:
 905 0068 0C000000 		.4byte	.LEFDE8-.LASFDE8
 906              	.LASFDE8:
 907 006c 00000000 		.4byte	.Lframe0
 908 0070 F4000000 		.4byte	.LFB6
 909 0074 28000000 		.4byte	.LFE6-.LFB6
 910              		.align	2
 911              	.LEFDE8:
 912              	.LSFDE10:
 913 0078 0C000000 		.4byte	.LEFDE10-.LASFDE10
 914              	.LASFDE10:
 915 007c 00000000 		.4byte	.Lframe0
 916 0080 1C010000 		.4byte	.LFB7
 917 0084 28000000 		.4byte	.LFE7-.LFB7
 918              		.align	2
 919              	.LEFDE10:
 920              	.LSFDE12:
 921 0088 0C000000 		.4byte	.LEFDE12-.LASFDE12
 922              	.LASFDE12:
 923 008c 00000000 		.4byte	.Lframe0
 924 0090 44010000 		.4byte	.LFB8
 925 0094 5C000000 		.4byte	.LFE8-.LFB8
 926              		.align	2
 927              	.LEFDE12:
 928              	.LSFDE14:
 929 0098 1C000000 		.4byte	.LEFDE14-.LASFDE14
 930              	.LASFDE14:
 931 009c 00000000 		.4byte	.Lframe0
 932 00a0 A0010000 		.4byte	.LFB9
 933 00a4 92000000 		.4byte	.LFE9-.LFB9
 934 00a8 42       		.byte	0x4
 935              		.4byte	.LCFI2-.LFB9
 936 00a9 0E       		.byte	0xe
 937 00aa 14       		.uleb128 0x14
 938 00ab 84       		.byte	0x84
 939 00ac 05       		.uleb128 0x5
 940 00ad 85       		.byte	0x85
 941 00ae 04       		.uleb128 0x4
 942 00af 86       		.byte	0x86
 943 00b0 03       		.uleb128 0x3
 944 00b1 87       		.byte	0x87
 945 00b2 02       		.uleb128 0x2
 946 00b3 8E       		.byte	0x8e
 947 00b4 01       		.uleb128 0x1
 948 00b5 000000   		.align	2
ARM GAS  /cygdrive/c/DOCUME~1/mkwapisz/LOCALS~1/Temp/ccOQCEsf.s 			page 29


 949              	.LEFDE14:
 950              	.LSFDE16:
 951 00b8 14000000 		.4byte	.LEFDE16-.LASFDE16
 952              	.LASFDE16:
 953 00bc 00000000 		.4byte	.Lframe0
 954 00c0 34020000 		.4byte	.LFB10
 955 00c4 1E000000 		.4byte	.LFE10-.LFB10
 956 00c8 42       		.byte	0x4
 957              		.4byte	.LCFI3-.LFB10
 958 00c9 0E       		.byte	0xe
 959 00ca 04       		.uleb128 0x4
 960 00cb 8E       		.byte	0x8e
 961 00cc 01       		.uleb128 0x1
 962 00cd 000000   		.align	2
 963              	.LEFDE16:
 964              	.LSFDE18:
 965 00d0 14000000 		.4byte	.LEFDE18-.LASFDE18
 966              	.LASFDE18:
 967 00d4 00000000 		.4byte	.Lframe0
 968 00d8 54020000 		.4byte	.LFB11
 969 00dc 2A000000 		.4byte	.LFE11-.LFB11
 970 00e0 42       		.byte	0x4
 971              		.4byte	.LCFI4-.LFB11
 972 00e1 0E       		.byte	0xe
 973 00e2 08       		.uleb128 0x8
 974 00e3 84       		.byte	0x84
 975 00e4 02       		.uleb128 0x2
 976 00e5 8E       		.byte	0x8e
 977 00e6 01       		.uleb128 0x1
 978 00e7 00       		.align	2
 979              	.LEFDE18:
 980              	.LSFDE20:
 981 00e8 18000000 		.4byte	.LEFDE20-.LASFDE20
 982              	.LASFDE20:
 983 00ec 00000000 		.4byte	.Lframe0
 984 00f0 80020000 		.4byte	.LFB12
 985 00f4 5C000000 		.4byte	.LFE12-.LFB12
 986 00f8 42       		.byte	0x4
 987              		.4byte	.LCFI5-.LFB12
 988 00f9 0E       		.byte	0xe
 989 00fa 10       		.uleb128 0x10
 990 00fb 84       		.byte	0x84
 991 00fc 04       		.uleb128 0x4
 992 00fd 85       		.byte	0x85
 993 00fe 03       		.uleb128 0x3
 994 00ff 86       		.byte	0x86
 995 0100 02       		.uleb128 0x2
 996 0101 8E       		.byte	0x8e
 997 0102 01       		.uleb128 0x1
 998 0103 00       		.align	2
 999              	.LEFDE20:
 1000              	.LSFDE22:
 1001 0104 1C000000 		.4byte	.LEFDE22-.LASFDE22
 1002              	.LASFDE22:
 1003 0108 00000000 		.4byte	.Lframe0
 1004 010c DC020000 		.4byte	.LFB13
 1005 0110 9E000000 		.4byte	.LFE13-.LFB13
ARM GAS  /cygdrive/c/DOCUME~1/mkwapisz/LOCALS~1/Temp/ccOQCEsf.s 			page 30


 1006 0114 42       		.byte	0x4
 1007              		.4byte	.LCFI6-.LFB13
 1008 0115 0E       		.byte	0xe
 1009 0116 14       		.uleb128 0x14
 1010 0117 84       		.byte	0x84
 1011 0118 05       		.uleb128 0x5
 1012 0119 85       		.byte	0x85
 1013 011a 04       		.uleb128 0x4
 1014 011b 86       		.byte	0x86
 1015 011c 03       		.uleb128 0x3
 1016 011d 87       		.byte	0x87
 1017 011e 02       		.uleb128 0x2
 1018 011f 8E       		.byte	0x8e
 1019 0120 01       		.uleb128 0x1
 1020 0121 000000   		.align	2
 1021              	.LEFDE22:
 1022              		.file 2 "../pre_emptive_os/api/general.h"
 1023              		.text
 1024              	.Letext0:
 1025 037a C046     		.section	.debug_loc,"",%progbits
 1026              	.Ldebug_loc0:
 1027              	.LLST2:
 1028 0000 64000000 		.4byte	.LFB4-.Ltext0
 1029 0004 66000000 		.4byte	.LCFI0-.Ltext0
 1030 0008 0100     		.2byte	0x1
 1031 000a 5D       		.byte	0x5d
 1032 000b 66000000 		.4byte	.LCFI0-.Ltext0
 1033 000f A8000000 		.4byte	.LFE4-.Ltext0
 1034 0013 0200     		.2byte	0x2
 1035 0015 7D       		.byte	0x7d
 1036 0016 0C       		.sleb128 12
 1037 0017 00000000 		.4byte	0x0
 1038 001b 00000000 		.4byte	0x0
 1039              	.LLST3:
 1040 001f A8000000 		.4byte	.LFB5-.Ltext0
 1041 0023 AA000000 		.4byte	.LCFI1-.Ltext0
 1042 0027 0100     		.2byte	0x1
 1043 0029 5D       		.byte	0x5d
 1044 002a AA000000 		.4byte	.LCFI1-.Ltext0
 1045 002e F4000000 		.4byte	.LFE5-.Ltext0
 1046 0032 0200     		.2byte	0x2
 1047 0034 7D       		.byte	0x7d
 1048 0035 0C       		.sleb128 12
 1049 0036 00000000 		.4byte	0x0
 1050 003a 00000000 		.4byte	0x0
 1051              	.LLST6:
 1052 003e 1C010000 		.4byte	.LVL0-.Ltext0
 1053 0042 22010000 		.4byte	.LVL1-.Ltext0
 1054 0046 0100     		.2byte	0x1
 1055 0048 50       		.byte	0x50
 1056 0049 26010000 		.4byte	.LVL2-.Ltext0
 1057 004d 34010000 		.4byte	.LVL3-.Ltext0
 1058 0051 0100     		.2byte	0x1
 1059 0053 50       		.byte	0x50
 1060 0054 36010000 		.4byte	.LVL4-.Ltext0
 1061 0058 38010000 		.4byte	.LVL5-.Ltext0
 1062 005c 0100     		.2byte	0x1
ARM GAS  /cygdrive/c/DOCUME~1/mkwapisz/LOCALS~1/Temp/ccOQCEsf.s 			page 31


 1063 005e 50       		.byte	0x50
 1064 005f 00000000 		.4byte	0x0
 1065 0063 00000000 		.4byte	0x0
 1066              	.LLST8:
 1067 0067 44010000 		.4byte	.LVL6-.Ltext0
 1068 006b 46010000 		.4byte	.LVL7-.Ltext0
 1069 006f 0100     		.2byte	0x1
 1070 0071 50       		.byte	0x50
 1071 0072 48010000 		.4byte	.LVL8-.Ltext0
 1072 0076 62010000 		.4byte	.LVL10-.Ltext0
 1073 007a 0100     		.2byte	0x1
 1074 007c 50       		.byte	0x50
 1075 007d 62010000 		.4byte	.LVL10-.Ltext0
 1076 0081 62010000 		.4byte	.LVL11-.Ltext0
 1077 0085 0100     		.2byte	0x1
 1078 0087 50       		.byte	0x50
 1079 0088 64010000 		.4byte	.LVL12-.Ltext0
 1080 008c 6E010000 		.4byte	.LVL13-.Ltext0
 1081 0090 0100     		.2byte	0x1
 1082 0092 50       		.byte	0x50
 1083 0093 70010000 		.4byte	.LVL14-.Ltext0
 1084 0097 7E010000 		.4byte	.LVL15-.Ltext0
 1085 009b 0100     		.2byte	0x1
 1086 009d 50       		.byte	0x50
 1087 009e 82010000 		.4byte	.LVL16-.Ltext0
 1088 00a2 90010000 		.4byte	.LVL17-.Ltext0
 1089 00a6 0100     		.2byte	0x1
 1090 00a8 50       		.byte	0x50
 1091 00a9 00000000 		.4byte	0x0
 1092 00ad 00000000 		.4byte	0x0
 1093              	.LLST9:
 1094 00b1 44010000 		.4byte	.LVL6-.Ltext0
 1095 00b5 4E010000 		.4byte	.LVL9-.Ltext0
 1096 00b9 0100     		.2byte	0x1
 1097 00bb 51       		.byte	0x51
 1098 00bc 62010000 		.4byte	.LVL10-.Ltext0
 1099 00c0 A0010000 		.4byte	.LFE8-.Ltext0
 1100 00c4 0100     		.2byte	0x1
 1101 00c6 51       		.byte	0x51
 1102 00c7 00000000 		.4byte	0x0
 1103 00cb 00000000 		.4byte	0x0
 1104              	.LLST10:
 1105 00cf A0010000 		.4byte	.LFB9-.Ltext0
 1106 00d3 A2010000 		.4byte	.LCFI2-.Ltext0
 1107 00d7 0100     		.2byte	0x1
 1108 00d9 5D       		.byte	0x5d
 1109 00da A2010000 		.4byte	.LCFI2-.Ltext0
 1110 00de 32020000 		.4byte	.LFE9-.Ltext0
 1111 00e2 0200     		.2byte	0x2
 1112 00e4 7D       		.byte	0x7d
 1113 00e5 14       		.sleb128 20
 1114 00e6 00000000 		.4byte	0x0
 1115 00ea 00000000 		.4byte	0x0
 1116              	.LLST11:
 1117 00ee A2010000 		.4byte	.LVL18-.Ltext0
 1118 00f2 A4010000 		.4byte	.LVL19-.Ltext0
 1119 00f6 0100     		.2byte	0x1
ARM GAS  /cygdrive/c/DOCUME~1/mkwapisz/LOCALS~1/Temp/ccOQCEsf.s 			page 32


 1120 00f8 50       		.byte	0x50
 1121 00f9 AA010000 		.4byte	.LVL21-.Ltext0
 1122 00fd D4010000 		.4byte	.LVL30-.Ltext0
 1123 0101 0100     		.2byte	0x1
 1124 0103 55       		.byte	0x55
 1125 0104 DA010000 		.4byte	.LVL33-.Ltext0
 1126 0108 F6010000 		.4byte	.LVL34-.Ltext0
 1127 010c 0100     		.2byte	0x1
 1128 010e 55       		.byte	0x55
 1129 010f 18020000 		.4byte	.LVL38-.Ltext0
 1130 0113 1E020000 		.4byte	.LVL40-.Ltext0
 1131 0117 0100     		.2byte	0x1
 1132 0119 55       		.byte	0x55
 1133 011a 00000000 		.4byte	0x0
 1134 011e 00000000 		.4byte	0x0
 1135              	.LLST12:
 1136 0122 A2010000 		.4byte	.LVL18-.Ltext0
 1137 0126 B0010000 		.4byte	.LVL23-.Ltext0
 1138 012a 0100     		.2byte	0x1
 1139 012c 51       		.byte	0x51
 1140 012d B0010000 		.4byte	.LVL23-.Ltext0
 1141 0131 D4010000 		.4byte	.LVL31-.Ltext0
 1142 0135 0100     		.2byte	0x1
 1143 0137 56       		.byte	0x56
 1144 0138 DA010000 		.4byte	.LVL33-.Ltext0
 1145 013c 32020000 		.4byte	.LFE9-.Ltext0
 1146 0140 0100     		.2byte	0x1
 1147 0142 56       		.byte	0x56
 1148 0143 00000000 		.4byte	0x0
 1149 0147 00000000 		.4byte	0x0
 1150              	.LLST13:
 1151 014b A2010000 		.4byte	.LVL18-.Ltext0
 1152 014f A6010000 		.4byte	.LVL20-.Ltext0
 1153 0153 0100     		.2byte	0x1
 1154 0155 52       		.byte	0x52
 1155 0156 AC010000 		.4byte	.LVL22-.Ltext0
 1156 015a D4010000 		.4byte	.LVL32-.Ltext0
 1157 015e 0100     		.2byte	0x1
 1158 0160 57       		.byte	0x57
 1159 0161 DA010000 		.4byte	.LVL33-.Ltext0
 1160 0165 32020000 		.4byte	.LFE9-.Ltext0
 1161 0169 0100     		.2byte	0x1
 1162 016b 57       		.byte	0x57
 1163 016c 00000000 		.4byte	0x0
 1164 0170 00000000 		.4byte	0x0
 1165              	.LLST14:
 1166 0174 B4010000 		.4byte	.LVL24-.Ltext0
 1167 0178 CC010000 		.4byte	.LVL28-.Ltext0
 1168 017c 0100     		.2byte	0x1
 1169 017e 54       		.byte	0x54
 1170 017f DA010000 		.4byte	.LVL33-.Ltext0
 1171 0183 1C020000 		.4byte	.LVL39-.Ltext0
 1172 0187 0100     		.2byte	0x1
 1173 0189 54       		.byte	0x54
 1174 018a 1E020000 		.4byte	.LVL40-.Ltext0
 1175 018e 32020000 		.4byte	.LFE9-.Ltext0
 1176 0192 0100     		.2byte	0x1
ARM GAS  /cygdrive/c/DOCUME~1/mkwapisz/LOCALS~1/Temp/ccOQCEsf.s 			page 33


 1177 0194 54       		.byte	0x54
 1178 0195 00000000 		.4byte	0x0
 1179 0199 00000000 		.4byte	0x0
 1180              	.LLST15:
 1181 019d BA010000 		.4byte	.LVL25-.Ltext0
 1182 01a1 BE010000 		.4byte	.LVL26-.Ltext0
 1183 01a5 0100     		.2byte	0x1
 1184 01a7 50       		.byte	0x50
 1185 01a8 BE010000 		.4byte	.LVL27-.Ltext0
 1186 01ac D2010000 		.4byte	.LVL29-.Ltext0
 1187 01b0 0100     		.2byte	0x1
 1188 01b2 50       		.byte	0x50
 1189 01b3 F6010000 		.4byte	.LVL35-.Ltext0
 1190 01b7 FA010000 		.4byte	.LVL36-.Ltext0
 1191 01bb 0100     		.2byte	0x1
 1192 01bd 50       		.byte	0x50
 1193 01be FA010000 		.4byte	.LVL37-.Ltext0
 1194 01c2 18020000 		.4byte	.LVL38-.Ltext0
 1195 01c6 0100     		.2byte	0x1
 1196 01c8 50       		.byte	0x50
 1197 01c9 1E020000 		.4byte	.LVL40-.Ltext0
 1198 01cd 20020000 		.4byte	.LVL41-.Ltext0
 1199 01d1 0100     		.2byte	0x1
 1200 01d3 50       		.byte	0x50
 1201 01d4 00000000 		.4byte	0x0
 1202 01d8 00000000 		.4byte	0x0
 1203              	.LLST16:
 1204 01dc BA010000 		.4byte	.LVL25-.Ltext0
 1205 01e0 D4010000 		.4byte	.LVL30-.Ltext0
 1206 01e4 0100     		.2byte	0x1
 1207 01e6 55       		.byte	0x55
 1208 01e7 F6010000 		.4byte	.LVL34-.Ltext0
 1209 01eb 32020000 		.4byte	.LFE9-.Ltext0
 1210 01ef 0100     		.2byte	0x1
 1211 01f1 55       		.byte	0x55
 1212 01f2 00000000 		.4byte	0x0
 1213 01f6 00000000 		.4byte	0x0
 1214              	.LLST17:
 1215 01fa 34020000 		.4byte	.LFB10-.Ltext0
 1216 01fe 36020000 		.4byte	.LCFI3-.Ltext0
 1217 0202 0100     		.2byte	0x1
 1218 0204 5D       		.byte	0x5d
 1219 0205 36020000 		.4byte	.LCFI3-.Ltext0
 1220 0209 52020000 		.4byte	.LFE10-.Ltext0
 1221 020d 0200     		.2byte	0x2
 1222 020f 7D       		.byte	0x7d
 1223 0210 04       		.sleb128 4
 1224 0211 00000000 		.4byte	0x0
 1225 0215 00000000 		.4byte	0x0
 1226              	.LLST18:
 1227 0219 54020000 		.4byte	.LFB11-.Ltext0
 1228 021d 56020000 		.4byte	.LCFI4-.Ltext0
 1229 0221 0100     		.2byte	0x1
 1230 0223 5D       		.byte	0x5d
 1231 0224 56020000 		.4byte	.LCFI4-.Ltext0
 1232 0228 7E020000 		.4byte	.LFE11-.Ltext0
 1233 022c 0200     		.2byte	0x2
ARM GAS  /cygdrive/c/DOCUME~1/mkwapisz/LOCALS~1/Temp/ccOQCEsf.s 			page 34


 1234 022e 7D       		.byte	0x7d
 1235 022f 08       		.sleb128 8
 1236 0230 00000000 		.4byte	0x0
 1237 0234 00000000 		.4byte	0x0
 1238              	.LLST19:
 1239 0238 56020000 		.4byte	.LVL42-.Ltext0
 1240 023c 58020000 		.4byte	.LVL43-.Ltext0
 1241 0240 0100     		.2byte	0x1
 1242 0242 50       		.byte	0x50
 1243 0243 00000000 		.4byte	0x0
 1244 0247 00000000 		.4byte	0x0
 1245              	.LLST20:
 1246 024b 80020000 		.4byte	.LFB12-.Ltext0
 1247 024f 82020000 		.4byte	.LCFI5-.Ltext0
 1248 0253 0100     		.2byte	0x1
 1249 0255 5D       		.byte	0x5d
 1250 0256 82020000 		.4byte	.LCFI5-.Ltext0
 1251 025a DC020000 		.4byte	.LFE12-.Ltext0
 1252 025e 0200     		.2byte	0x2
 1253 0260 7D       		.byte	0x7d
 1254 0261 10       		.sleb128 16
 1255 0262 00000000 		.4byte	0x0
 1256 0266 00000000 		.4byte	0x0
 1257              	.LLST21:
 1258 026a 82020000 		.4byte	.LVL44-.Ltext0
 1259 026e 84020000 		.4byte	.LVL45-.Ltext0
 1260 0272 0100     		.2byte	0x1
 1261 0274 50       		.byte	0x50
 1262 0275 8A020000 		.4byte	.LVL47-.Ltext0
 1263 0279 9A020000 		.4byte	.LVL51-.Ltext0
 1264 027d 0100     		.2byte	0x1
 1265 027f 54       		.byte	0x54
 1266 0280 A6020000 		.4byte	.LVL54-.Ltext0
 1267 0284 BA020000 		.4byte	.LVL55-.Ltext0
 1268 0288 0100     		.2byte	0x1
 1269 028a 54       		.byte	0x54
 1270 028b D8020000 		.4byte	.LVL56-.Ltext0
 1271 028f DA020000 		.4byte	.LVL57-.Ltext0
 1272 0293 0100     		.2byte	0x1
 1273 0295 54       		.byte	0x54
 1274 0296 00000000 		.4byte	0x0
 1275 029a 00000000 		.4byte	0x0
 1276              	.LLST22:
 1277 029e 82020000 		.4byte	.LVL44-.Ltext0
 1278 02a2 90020000 		.4byte	.LVL49-.Ltext0
 1279 02a6 0100     		.2byte	0x1
 1280 02a8 51       		.byte	0x51
 1281 02a9 90020000 		.4byte	.LVL49-.Ltext0
 1282 02ad A0020000 		.4byte	.LVL52-.Ltext0
 1283 02b1 0100     		.2byte	0x1
 1284 02b3 55       		.byte	0x55
 1285 02b4 A6020000 		.4byte	.LVL54-.Ltext0
 1286 02b8 DC020000 		.4byte	.LFE12-.Ltext0
 1287 02bc 0100     		.2byte	0x1
 1288 02be 55       		.byte	0x55
 1289 02bf 00000000 		.4byte	0x0
 1290 02c3 00000000 		.4byte	0x0
ARM GAS  /cygdrive/c/DOCUME~1/mkwapisz/LOCALS~1/Temp/ccOQCEsf.s 			page 35


 1291              	.LLST23:
 1292 02c7 82020000 		.4byte	.LVL44-.Ltext0
 1293 02cb 86020000 		.4byte	.LVL46-.Ltext0
 1294 02cf 0100     		.2byte	0x1
 1295 02d1 52       		.byte	0x52
 1296 02d2 8C020000 		.4byte	.LVL48-.Ltext0
 1297 02d6 A0020000 		.4byte	.LVL53-.Ltext0
 1298 02da 0100     		.2byte	0x1
 1299 02dc 56       		.byte	0x56
 1300 02dd A6020000 		.4byte	.LVL54-.Ltext0
 1301 02e1 DC020000 		.4byte	.LFE12-.Ltext0
 1302 02e5 0100     		.2byte	0x1
 1303 02e7 56       		.byte	0x56
 1304 02e8 00000000 		.4byte	0x0
 1305 02ec 00000000 		.4byte	0x0
 1306              	.LLST24:
 1307 02f0 98020000 		.4byte	.LVL50-.Ltext0
 1308 02f4 9A020000 		.4byte	.LVL51-.Ltext0
 1309 02f8 0100     		.2byte	0x1
 1310 02fa 54       		.byte	0x54
 1311 02fb BA020000 		.4byte	.LVL55-.Ltext0
 1312 02ff DA020000 		.4byte	.LVL57-.Ltext0
 1313 0303 0100     		.2byte	0x1
 1314 0305 54       		.byte	0x54
 1315 0306 00000000 		.4byte	0x0
 1316 030a 00000000 		.4byte	0x0
 1317              	.LLST25:
 1318 030e DC020000 		.4byte	.LFB13-.Ltext0
 1319 0312 DE020000 		.4byte	.LCFI6-.Ltext0
 1320 0316 0100     		.2byte	0x1
 1321 0318 5D       		.byte	0x5d
 1322 0319 DE020000 		.4byte	.LCFI6-.Ltext0
 1323 031d 7A030000 		.4byte	.LFE13-.Ltext0
 1324 0321 0200     		.2byte	0x2
 1325 0323 7D       		.byte	0x7d
 1326 0324 14       		.sleb128 20
 1327 0325 00000000 		.4byte	0x0
 1328 0329 00000000 		.4byte	0x0
 1329              	.LLST26:
 1330 032d DE020000 		.4byte	.LVL58-.Ltext0
 1331 0331 E0020000 		.4byte	.LVL59-.Ltext0
 1332 0335 0100     		.2byte	0x1
 1333 0337 50       		.byte	0x50
 1334 0338 E6020000 		.4byte	.LVL61-.Ltext0
 1335 033c F6020000 		.4byte	.LVL64-.Ltext0
 1336 0340 0100     		.2byte	0x1
 1337 0342 54       		.byte	0x54
 1338 0343 02030000 		.4byte	.LVL69-.Ltext0
 1339 0347 1E030000 		.4byte	.LVL71-.Ltext0
 1340 034b 0100     		.2byte	0x1
 1341 034d 54       		.byte	0x54
 1342 034e 76030000 		.4byte	.LVL81-.Ltext0
 1343 0352 78030000 		.4byte	.LVL82-.Ltext0
 1344 0356 0100     		.2byte	0x1
 1345 0358 54       		.byte	0x54
 1346 0359 00000000 		.4byte	0x0
 1347 035d 00000000 		.4byte	0x0
ARM GAS  /cygdrive/c/DOCUME~1/mkwapisz/LOCALS~1/Temp/ccOQCEsf.s 			page 36


 1348              	.LLST27:
 1349 0361 DE020000 		.4byte	.LVL58-.Ltext0
 1350 0365 EC020000 		.4byte	.LVL63-.Ltext0
 1351 0369 0100     		.2byte	0x1
 1352 036b 51       		.byte	0x51
 1353 036c EC020000 		.4byte	.LVL63-.Ltext0
 1354 0370 FC020000 		.4byte	.LVL66-.Ltext0
 1355 0374 0100     		.2byte	0x1
 1356 0376 55       		.byte	0x55
 1357 0377 02030000 		.4byte	.LVL69-.Ltext0
 1358 037b 7A030000 		.4byte	.LFE13-.Ltext0
 1359 037f 0100     		.2byte	0x1
 1360 0381 55       		.byte	0x55
 1361 0382 00000000 		.4byte	0x0
 1362 0386 00000000 		.4byte	0x0
 1363              	.LLST28:
 1364 038a DE020000 		.4byte	.LVL58-.Ltext0
 1365 038e E2020000 		.4byte	.LVL60-.Ltext0
 1366 0392 0100     		.2byte	0x1
 1367 0394 52       		.byte	0x52
 1368 0395 E8020000 		.4byte	.LVL62-.Ltext0
 1369 0399 FC020000 		.4byte	.LVL67-.Ltext0
 1370 039d 0100     		.2byte	0x1
 1371 039f 56       		.byte	0x56
 1372 03a0 02030000 		.4byte	.LVL69-.Ltext0
 1373 03a4 7A030000 		.4byte	.LFE13-.Ltext0
 1374 03a8 0100     		.2byte	0x1
 1375 03aa 56       		.byte	0x56
 1376 03ab 00000000 		.4byte	0x0
 1377 03af 00000000 		.4byte	0x0
 1378              	.LLST29:
 1379 03b3 F6020000 		.4byte	.LVL64-.Ltext0
 1380 03b7 FA020000 		.4byte	.LVL65-.Ltext0
 1381 03bb 0100     		.2byte	0x1
 1382 03bd 52       		.byte	0x52
 1383 03be 1E030000 		.4byte	.LVL72-.Ltext0
 1384 03c2 22030000 		.4byte	.LVL73-.Ltext0
 1385 03c6 0100     		.2byte	0x1
 1386 03c8 52       		.byte	0x52
 1387 03c9 38030000 		.4byte	.LVL75-.Ltext0
 1388 03cd 4A030000 		.4byte	.LVL76-.Ltext0
 1389 03d1 0100     		.2byte	0x1
 1390 03d3 52       		.byte	0x52
 1391 03d4 62030000 		.4byte	.LVL78-.Ltext0
 1392 03d8 6C030000 		.4byte	.LVL79-.Ltext0
 1393 03dc 0100     		.2byte	0x1
 1394 03de 52       		.byte	0x52
 1395 03df 00000000 		.4byte	0x0
 1396 03e3 00000000 		.4byte	0x0
 1397              	.LLST30:
 1398 03e7 F6020000 		.4byte	.LVL64-.Ltext0
 1399 03eb FA020000 		.4byte	.LVL65-.Ltext0
 1400 03ef 0100     		.2byte	0x1
 1401 03f1 50       		.byte	0x50
 1402 03f2 1E030000 		.4byte	.LVL72-.Ltext0
 1403 03f6 22030000 		.4byte	.LVL73-.Ltext0
 1404 03fa 0100     		.2byte	0x1
ARM GAS  /cygdrive/c/DOCUME~1/mkwapisz/LOCALS~1/Temp/ccOQCEsf.s 			page 37


 1405 03fc 50       		.byte	0x50
 1406 03fd 22030000 		.4byte	.LVL74-.Ltext0
 1407 0401 50030000 		.4byte	.LVL77-.Ltext0
 1408 0405 0100     		.2byte	0x1
 1409 0407 50       		.byte	0x50
 1410 0408 6C030000 		.4byte	.LVL79-.Ltext0
 1411 040c 70030000 		.4byte	.LVL80-.Ltext0
 1412 0410 0100     		.2byte	0x1
 1413 0412 50       		.byte	0x50
 1414 0413 00000000 		.4byte	0x0
 1415 0417 00000000 		.4byte	0x0
 1416              	.LLST31:
 1417 041b F6020000 		.4byte	.LVL64-.Ltext0
 1418 041f FC020000 		.4byte	.LVL68-.Ltext0
 1419 0423 0100     		.2byte	0x1
 1420 0425 57       		.byte	0x57
 1421 0426 1C030000 		.4byte	.LVL70-.Ltext0
 1422 042a 76030000 		.4byte	.LVL81-.Ltext0
 1423 042e 0100     		.2byte	0x1
 1424 0430 57       		.byte	0x57
 1425 0431 00000000 		.4byte	0x0
 1426 0435 00000000 		.4byte	0x0
 1427              		.section	.debug_info
 1428 0000 9E030000 		.4byte	0x39e
 1429 0004 0200     		.2byte	0x2
 1430 0006 00000000 		.4byte	.Ldebug_abbrev0
 1431 000a 04       		.byte	0x4
 1432 000b 01       		.uleb128 0x1
 1433 000c 00000000 		.4byte	.Ldebug_line0
 1434 0010 7A030000 		.4byte	.Letext0
 1435 0014 00000000 		.4byte	.Ltext0
 1436 0018 02010000 		.4byte	.LASF29
 1437 001c 01       		.byte	0x1
 1438 001d C8000000 		.4byte	.LASF30
 1439 0021 54000000 		.4byte	.LASF31
 1440 0025 02       		.uleb128 0x2
 1441 0026 74553800 		.ascii	"tU8\000"
 1442 002a 02       		.byte	0x2
 1443 002b 48       		.byte	0x48
 1444 002c 30000000 		.4byte	0x30
 1445 0030 03       		.uleb128 0x3
 1446 0031 87000000 		.4byte	.LASF1
 1447 0035 01       		.byte	0x1
 1448 0036 08       		.byte	0x8
 1449 0037 04       		.uleb128 0x4
 1450 0038 0E010000 		.4byte	.LASF0
 1451 003c 02       		.byte	0x2
 1452 003d 49       		.byte	0x49
 1453 003e 42000000 		.4byte	0x42
 1454 0042 03       		.uleb128 0x3
 1455 0043 0E000000 		.4byte	.LASF2
 1456 0047 02       		.byte	0x2
 1457 0048 07       		.byte	0x7
 1458 0049 03       		.uleb128 0x3
 1459 004a D9000000 		.4byte	.LASF3
 1460 004e 04       		.byte	0x4
 1461 004f 07       		.byte	0x7
ARM GAS  /cygdrive/c/DOCUME~1/mkwapisz/LOCALS~1/Temp/ccOQCEsf.s 			page 38


 1462 0050 02       		.uleb128 0x2
 1463 0051 74533800 		.ascii	"tS8\000"
 1464 0055 02       		.byte	0x2
 1465 0056 4B       		.byte	0x4b
 1466 0057 5B000000 		.4byte	0x5b
 1467 005b 03       		.uleb128 0x3
 1468 005c 60010000 		.4byte	.LASF4
 1469 0060 01       		.byte	0x1
 1470 0061 06       		.byte	0x6
 1471 0062 03       		.uleb128 0x3
 1472 0063 38010000 		.4byte	.LASF5
 1473 0067 02       		.byte	0x2
 1474 0068 05       		.byte	0x5
 1475 0069 05       		.uleb128 0x5
 1476 006a 696E7400 		.ascii	"int\000"
 1477 006e 04       		.byte	0x4
 1478 006f 05       		.byte	0x5
 1479 0070 04       		.uleb128 0x4
 1480 0071 AF000000 		.4byte	.LASF6
 1481 0075 02       		.byte	0x2
 1482 0076 57       		.byte	0x57
 1483 0077 30000000 		.4byte	0x30
 1484 007b 03       		.uleb128 0x3
 1485 007c 13010000 		.4byte	.LASF7
 1486 0080 08       		.byte	0x8
 1487 0081 05       		.byte	0x5
 1488 0082 03       		.uleb128 0x3
 1489 0083 3D000000 		.4byte	.LASF8
 1490 0087 08       		.byte	0x8
 1491 0088 07       		.byte	0x7
 1492 0089 06       		.uleb128 0x6
 1493 008a B2000000 		.4byte	0xb2
 1494 008e 01       		.byte	0x1
 1495 008f E6000000 		.4byte	.LASF9
 1496 0093 01       		.byte	0x1
 1497 0094 4C       		.byte	0x4c
 1498 0095 01       		.byte	0x1
 1499 0096 25000000 		.4byte	0x25
 1500 009a 00000000 		.4byte	.LFB2
 1501 009e 18000000 		.4byte	.LFE2
 1502 00a2 01       		.byte	0x1
 1503 00a3 5D       		.byte	0x5d
 1504 00a4 07       		.uleb128 0x7
 1505 00a5 21000000 		.4byte	.LASF11
 1506 00a9 01       		.byte	0x1
 1507 00aa 4D       		.byte	0x4d
 1508 00ab 25000000 		.4byte	0x25
 1509 00af 01       		.byte	0x1
 1510 00b0 50       		.byte	0x50
 1511 00b1 00       		.byte	0x0
 1512 00b2 08       		.uleb128 0x8
 1513 00b3 01       		.byte	0x1
 1514 00b4 B5000000 		.4byte	.LASF14
 1515 00b8 01       		.byte	0x1
 1516 00b9 65       		.byte	0x65
 1517 00ba 01       		.byte	0x1
 1518 00bb 18000000 		.4byte	.LFB3
ARM GAS  /cygdrive/c/DOCUME~1/mkwapisz/LOCALS~1/Temp/ccOQCEsf.s 			page 39


 1519 00bf 64000000 		.4byte	.LFE3
 1520 00c3 01       		.byte	0x1
 1521 00c4 5D       		.byte	0x5d
 1522 00c5 09       		.uleb128 0x9
 1523 00c6 F9000000 		.4byte	0xf9
 1524 00ca 01       		.byte	0x1
 1525 00cb 00000000 		.4byte	.LASF10
 1526 00cf 01       		.byte	0x1
 1527 00d0 81       		.byte	0x81
 1528 00d1 01       		.byte	0x1
 1529 00d2 50000000 		.4byte	0x50
 1530 00d6 64000000 		.4byte	.LFB4
 1531 00da A8000000 		.4byte	.LFE4
 1532 00de 00000000 		.4byte	.LLST2
 1533 00e2 0A       		.uleb128 0xa
 1534 00e3 21000000 		.4byte	.LASF11
 1535 00e7 01       		.byte	0x1
 1536 00e8 82       		.byte	0x82
 1537 00e9 25000000 		.4byte	0x25
 1538 00ed 0A       		.uleb128 0xa
 1539 00ee FA000000 		.4byte	.LASF12
 1540 00f2 01       		.byte	0x1
 1541 00f3 83       		.byte	0x83
 1542 00f4 50000000 		.4byte	0x50
 1543 00f8 00       		.byte	0x0
 1544 00f9 09       		.uleb128 0x9
 1545 00fa 2D010000 		.4byte	0x12d
 1546 00fe 01       		.byte	0x1
 1547 00ff 21010000 		.4byte	.LASF13
 1548 0103 01       		.byte	0x1
 1549 0104 B7       		.byte	0xb7
 1550 0105 01       		.byte	0x1
 1551 0106 50000000 		.4byte	0x50
 1552 010a A8000000 		.4byte	.LFB5
 1553 010e F4000000 		.4byte	.LFE5
 1554 0112 1F000000 		.4byte	.LLST3
 1555 0116 0A       		.uleb128 0xa
 1556 0117 21000000 		.4byte	.LASF11
 1557 011b 01       		.byte	0x1
 1558 011c B8       		.byte	0xb8
 1559 011d 25000000 		.4byte	0x25
 1560 0121 0A       		.uleb128 0xa
 1561 0122 FA000000 		.4byte	.LASF12
 1562 0126 01       		.byte	0x1
 1563 0127 B9       		.byte	0xb9
 1564 0128 50000000 		.4byte	0x50
 1565 012c 00       		.byte	0x0
 1566 012d 0B       		.uleb128 0xb
 1567 012e 01       		.byte	0x1
 1568 012f 30010000 		.4byte	.LASF15
 1569 0133 01       		.byte	0x1
 1570 0134 EE       		.byte	0xee
 1571 0135 01       		.byte	0x1
 1572 0136 50000000 		.4byte	0x50
 1573 013a F4000000 		.4byte	.LFB6
 1574 013e 1C010000 		.4byte	.LFE6
 1575 0142 01       		.byte	0x1
ARM GAS  /cygdrive/c/DOCUME~1/mkwapisz/LOCALS~1/Temp/ccOQCEsf.s 			page 40


 1576 0143 5D       		.byte	0x5d
 1577 0144 0C       		.uleb128 0xc
 1578 0145 7D010000 		.4byte	0x17d
 1579 0149 01       		.byte	0x1
 1580 014a 2D000000 		.4byte	.LASF16
 1581 014e 01       		.byte	0x1
 1582 014f 0B01     		.2byte	0x10b
 1583 0151 01       		.byte	0x1
 1584 0152 50000000 		.4byte	0x50
 1585 0156 1C010000 		.4byte	.LFB7
 1586 015a 44010000 		.4byte	.LFE7
 1587 015e 01       		.byte	0x1
 1588 015f 5D       		.byte	0x5d
 1589 0160 0D       		.uleb128 0xd
 1590 0161 38000000 		.4byte	.LASF18
 1591 0165 01       		.byte	0x1
 1592 0166 0A01     		.2byte	0x10a
 1593 0168 25000000 		.4byte	0x25
 1594 016c 3E000000 		.4byte	.LLST6
 1595 0170 0E       		.uleb128 0xe
 1596 0171 FA000000 		.4byte	.LASF12
 1597 0175 01       		.byte	0x1
 1598 0176 0C01     		.2byte	0x10c
 1599 0178 50000000 		.4byte	0x50
 1600 017c 00       		.byte	0x0
 1601 017d 0C       		.uleb128 0xc
 1602 017e C6010000 		.4byte	0x1c6
 1603 0182 01       		.byte	0x1
 1604 0183 CE000000 		.4byte	.LASF17
 1605 0187 01       		.byte	0x1
 1606 0188 3401     		.2byte	0x134
 1607 018a 01       		.byte	0x1
 1608 018b 50000000 		.4byte	0x50
 1609 018f 44010000 		.4byte	.LFB8
 1610 0193 A0010000 		.4byte	.LFE8
 1611 0197 01       		.byte	0x1
 1612 0198 5D       		.byte	0x5d
 1613 0199 0D       		.uleb128 0xd
 1614 019a F5000000 		.4byte	.LASF19
 1615 019e 01       		.byte	0x1
 1616 019f 3201     		.2byte	0x132
 1617 01a1 25000000 		.4byte	0x25
 1618 01a5 67000000 		.4byte	.LLST8
 1619 01a9 0D       		.uleb128 0xd
 1620 01aa 42010000 		.4byte	.LASF20
 1621 01ae 01       		.byte	0x1
 1622 01af 3301     		.2byte	0x133
 1623 01b1 C6010000 		.4byte	0x1c6
 1624 01b5 B1000000 		.4byte	.LLST9
 1625 01b9 0E       		.uleb128 0xe
 1626 01ba FA000000 		.4byte	.LASF12
 1627 01be 01       		.byte	0x1
 1628 01bf 3501     		.2byte	0x135
 1629 01c1 50000000 		.4byte	0x50
 1630 01c5 00       		.byte	0x0
 1631 01c6 0F       		.uleb128 0xf
 1632 01c7 04       		.byte	0x4
ARM GAS  /cygdrive/c/DOCUME~1/mkwapisz/LOCALS~1/Temp/ccOQCEsf.s 			page 41


 1633 01c8 25000000 		.4byte	0x25
 1634 01cc 10       		.uleb128 0x10
 1635 01cd 49020000 		.4byte	0x249
 1636 01d1 01       		.byte	0x1
 1637 01d2 95000000 		.4byte	.LASF21
 1638 01d6 01       		.byte	0x1
 1639 01d7 6E01     		.2byte	0x16e
 1640 01d9 01       		.byte	0x1
 1641 01da 50000000 		.4byte	0x50
 1642 01de A0010000 		.4byte	.LFB9
 1643 01e2 32020000 		.4byte	.LFE9
 1644 01e6 CF000000 		.4byte	.LLST10
 1645 01ea 0D       		.uleb128 0xd
 1646 01eb 28000000 		.4byte	.LASF22
 1647 01ef 01       		.byte	0x1
 1648 01f0 6B01     		.2byte	0x16b
 1649 01f2 25000000 		.4byte	0x25
 1650 01f6 EE000000 		.4byte	.LLST11
 1651 01fa 0D       		.uleb128 0xd
 1652 01fb 42010000 		.4byte	.LASF20
 1653 01ff 01       		.byte	0x1
 1654 0200 6C01     		.2byte	0x16c
 1655 0202 C6010000 		.4byte	0x1c6
 1656 0206 22010000 		.4byte	.LLST12
 1657 020a 11       		.uleb128 0x11
 1658 020b 6C656E00 		.ascii	"len\000"
 1659 020f 01       		.byte	0x1
 1660 0210 6D01     		.2byte	0x16d
 1661 0212 37000000 		.4byte	0x37
 1662 0216 4B010000 		.4byte	.LLST13
 1663 021a 12       		.uleb128 0x12
 1664 021b FA000000 		.4byte	.LASF12
 1665 021f 01       		.byte	0x1
 1666 0220 6F01     		.2byte	0x16f
 1667 0222 50000000 		.4byte	0x50
 1668 0226 74010000 		.4byte	.LLST14
 1669 022a 12       		.uleb128 0x12
 1670 022b 21000000 		.4byte	.LASF11
 1671 022f 01       		.byte	0x1
 1672 0230 7001     		.2byte	0x170
 1673 0232 25000000 		.4byte	0x25
 1674 0236 9D010000 		.4byte	.LLST15
 1675 023a 13       		.uleb128 0x13
 1676 023b 6900     		.ascii	"i\000"
 1677 023d 01       		.byte	0x1
 1678 023e 7101     		.2byte	0x171
 1679 0240 25000000 		.4byte	0x25
 1680 0244 DC010000 		.4byte	.LLST16
 1681 0248 00       		.byte	0x0
 1682 0249 10       		.uleb128 0x10
 1683 024a 74020000 		.4byte	0x274
 1684 024e 01       		.byte	0x1
 1685 024f 50010000 		.4byte	.LASF23
 1686 0253 01       		.byte	0x1
 1687 0254 CE01     		.2byte	0x1ce
 1688 0256 01       		.byte	0x1
 1689 0257 50000000 		.4byte	0x50
ARM GAS  /cygdrive/c/DOCUME~1/mkwapisz/LOCALS~1/Temp/ccOQCEsf.s 			page 42


 1690 025b 34020000 		.4byte	.LFB10
 1691 025f 52020000 		.4byte	.LFE10
 1692 0263 FA010000 		.4byte	.LLST17
 1693 0267 0E       		.uleb128 0xe
 1694 0268 21000000 		.4byte	.LASF11
 1695 026c 01       		.byte	0x1
 1696 026d CF01     		.2byte	0x1cf
 1697 026f 25000000 		.4byte	0x25
 1698 0273 00       		.byte	0x0
 1699 0274 10       		.uleb128 0x10
 1700 0275 AF020000 		.4byte	0x2af
 1701 0279 01       		.byte	0x1
 1702 027a 9E000000 		.4byte	.LASF24
 1703 027e 01       		.byte	0x1
 1704 027f ED01     		.2byte	0x1ed
 1705 0281 01       		.byte	0x1
 1706 0282 50000000 		.4byte	0x50
 1707 0286 54020000 		.4byte	.LFB11
 1708 028a 7E020000 		.4byte	.LFE11
 1709 028e 19020000 		.4byte	.LLST18
 1710 0292 0D       		.uleb128 0xd
 1711 0293 38000000 		.4byte	.LASF18
 1712 0297 01       		.byte	0x1
 1713 0298 EC01     		.2byte	0x1ec
 1714 029a 25000000 		.4byte	0x25
 1715 029e 38020000 		.4byte	.LLST19
 1716 02a2 0E       		.uleb128 0xe
 1717 02a3 FA000000 		.4byte	.LASF12
 1718 02a7 01       		.byte	0x1
 1719 02a8 EE01     		.2byte	0x1ee
 1720 02aa 50000000 		.4byte	0x50
 1721 02ae 00       		.byte	0x0
 1722 02af 10       		.uleb128 0x10
 1723 02b0 18030000 		.4byte	0x318
 1724 02b4 01       		.byte	0x1
 1725 02b5 BD000000 		.4byte	.LASF25
 1726 02b9 01       		.byte	0x1
 1727 02ba 0002     		.2byte	0x200
 1728 02bc 01       		.byte	0x1
 1729 02bd 50000000 		.4byte	0x50
 1730 02c1 80020000 		.4byte	.LFB12
 1731 02c5 DC020000 		.4byte	.LFE12
 1732 02c9 4B020000 		.4byte	.LLST20
 1733 02cd 0D       		.uleb128 0xd
 1734 02ce 28000000 		.4byte	.LASF22
 1735 02d2 01       		.byte	0x1
 1736 02d3 FD01     		.2byte	0x1fd
 1737 02d5 25000000 		.4byte	0x25
 1738 02d9 6A020000 		.4byte	.LLST21
 1739 02dd 0D       		.uleb128 0xd
 1740 02de 42010000 		.4byte	.LASF20
 1741 02e2 01       		.byte	0x1
 1742 02e3 FE01     		.2byte	0x1fe
 1743 02e5 C6010000 		.4byte	0x1c6
 1744 02e9 9E020000 		.4byte	.LLST22
 1745 02ed 11       		.uleb128 0x11
 1746 02ee 6C656E00 		.ascii	"len\000"
ARM GAS  /cygdrive/c/DOCUME~1/mkwapisz/LOCALS~1/Temp/ccOQCEsf.s 			page 43


 1747 02f2 01       		.byte	0x1
 1748 02f3 FF01     		.2byte	0x1ff
 1749 02f5 37000000 		.4byte	0x37
 1750 02f9 C7020000 		.4byte	.LLST23
 1751 02fd 0E       		.uleb128 0xe
 1752 02fe FA000000 		.4byte	.LASF12
 1753 0302 01       		.byte	0x1
 1754 0303 0102     		.2byte	0x201
 1755 0305 50000000 		.4byte	0x50
 1756 0309 13       		.uleb128 0x13
 1757 030a 6900     		.ascii	"i\000"
 1758 030c 01       		.byte	0x1
 1759 030d 0202     		.2byte	0x202
 1760 030f 25000000 		.4byte	0x25
 1761 0313 F0020000 		.4byte	.LLST24
 1762 0317 00       		.byte	0x0
 1763 0318 10       		.uleb128 0x10
 1764 0319 95030000 		.4byte	0x395
 1765 031d 01       		.byte	0x1
 1766 031e 48010000 		.4byte	.LASF26
 1767 0322 01       		.byte	0x1
 1768 0323 3802     		.2byte	0x238
 1769 0325 01       		.byte	0x1
 1770 0326 50000000 		.4byte	0x50
 1771 032a DC020000 		.4byte	.LFB13
 1772 032e 7A030000 		.4byte	.LFE13
 1773 0332 0E030000 		.4byte	.LLST25
 1774 0336 0D       		.uleb128 0xd
 1775 0337 28000000 		.4byte	.LASF22
 1776 033b 01       		.byte	0x1
 1777 033c 3502     		.2byte	0x235
 1778 033e 25000000 		.4byte	0x25
 1779 0342 2D030000 		.4byte	.LLST26
 1780 0346 0D       		.uleb128 0xd
 1781 0347 09000000 		.4byte	.LASF27
 1782 034b 01       		.byte	0x1
 1783 034c 3602     		.2byte	0x236
 1784 034e C6010000 		.4byte	0x1c6
 1785 0352 61030000 		.4byte	.LLST27
 1786 0356 11       		.uleb128 0x11
 1787 0357 6C656E00 		.ascii	"len\000"
 1788 035b 01       		.byte	0x1
 1789 035c 3702     		.2byte	0x237
 1790 035e 37000000 		.4byte	0x37
 1791 0362 8A030000 		.4byte	.LLST28
 1792 0366 12       		.uleb128 0x12
 1793 0367 FA000000 		.4byte	.LASF12
 1794 036b 01       		.byte	0x1
 1795 036c 3902     		.2byte	0x239
 1796 036e 50000000 		.4byte	0x50
 1797 0372 B3030000 		.4byte	.LLST29
 1798 0376 12       		.uleb128 0x12
 1799 0377 21000000 		.4byte	.LASF11
 1800 037b 01       		.byte	0x1
 1801 037c 3A02     		.2byte	0x23a
 1802 037e 25000000 		.4byte	0x25
 1803 0382 E7030000 		.4byte	.LLST30
ARM GAS  /cygdrive/c/DOCUME~1/mkwapisz/LOCALS~1/Temp/ccOQCEsf.s 			page 44


 1804 0386 13       		.uleb128 0x13
 1805 0387 6900     		.ascii	"i\000"
 1806 0389 01       		.byte	0x1
 1807 038a 3B02     		.2byte	0x23b
 1808 038c 25000000 		.4byte	0x25
 1809 0390 1B040000 		.4byte	.LLST31
 1810 0394 00       		.byte	0x0
 1811 0395 14       		.uleb128 0x14
 1812 0396 6C010000 		.4byte	.LASF28
 1813 039a 02       		.byte	0x2
 1814 039b 66       		.byte	0x66
 1815 039c 70000000 		.4byte	0x70
 1816 03a0 00       		.byte	0x0
 1817 03a1 00       		.byte	0x0
 1818              		.section	.debug_abbrev
 1819 0000 01       		.uleb128 0x1
 1820 0001 11       		.uleb128 0x11
 1821 0002 01       		.byte	0x1
 1822 0003 10       		.uleb128 0x10
 1823 0004 06       		.uleb128 0x6
 1824 0005 12       		.uleb128 0x12
 1825 0006 01       		.uleb128 0x1
 1826 0007 11       		.uleb128 0x11
 1827 0008 01       		.uleb128 0x1
 1828 0009 25       		.uleb128 0x25
 1829 000a 0E       		.uleb128 0xe
 1830 000b 13       		.uleb128 0x13
 1831 000c 0B       		.uleb128 0xb
 1832 000d 03       		.uleb128 0x3
 1833 000e 0E       		.uleb128 0xe
 1834 000f 1B       		.uleb128 0x1b
 1835 0010 0E       		.uleb128 0xe
 1836 0011 00       		.byte	0x0
 1837 0012 00       		.byte	0x0
 1838 0013 02       		.uleb128 0x2
 1839 0014 16       		.uleb128 0x16
 1840 0015 00       		.byte	0x0
 1841 0016 03       		.uleb128 0x3
 1842 0017 08       		.uleb128 0x8
 1843 0018 3A       		.uleb128 0x3a
 1844 0019 0B       		.uleb128 0xb
 1845 001a 3B       		.uleb128 0x3b
 1846 001b 0B       		.uleb128 0xb
 1847 001c 49       		.uleb128 0x49
 1848 001d 13       		.uleb128 0x13
 1849 001e 00       		.byte	0x0
 1850 001f 00       		.byte	0x0
 1851 0020 03       		.uleb128 0x3
 1852 0021 24       		.uleb128 0x24
 1853 0022 00       		.byte	0x0
 1854 0023 03       		.uleb128 0x3
 1855 0024 0E       		.uleb128 0xe
 1856 0025 0B       		.uleb128 0xb
 1857 0026 0B       		.uleb128 0xb
 1858 0027 3E       		.uleb128 0x3e
 1859 0028 0B       		.uleb128 0xb
 1860 0029 00       		.byte	0x0
ARM GAS  /cygdrive/c/DOCUME~1/mkwapisz/LOCALS~1/Temp/ccOQCEsf.s 			page 45


 1861 002a 00       		.byte	0x0
 1862 002b 04       		.uleb128 0x4
 1863 002c 16       		.uleb128 0x16
 1864 002d 00       		.byte	0x0
 1865 002e 03       		.uleb128 0x3
 1866 002f 0E       		.uleb128 0xe
 1867 0030 3A       		.uleb128 0x3a
 1868 0031 0B       		.uleb128 0xb
 1869 0032 3B       		.uleb128 0x3b
 1870 0033 0B       		.uleb128 0xb
 1871 0034 49       		.uleb128 0x49
 1872 0035 13       		.uleb128 0x13
 1873 0036 00       		.byte	0x0
 1874 0037 00       		.byte	0x0
 1875 0038 05       		.uleb128 0x5
 1876 0039 24       		.uleb128 0x24
 1877 003a 00       		.byte	0x0
 1878 003b 03       		.uleb128 0x3
 1879 003c 08       		.uleb128 0x8
 1880 003d 0B       		.uleb128 0xb
 1881 003e 0B       		.uleb128 0xb
 1882 003f 3E       		.uleb128 0x3e
 1883 0040 0B       		.uleb128 0xb
 1884 0041 00       		.byte	0x0
 1885 0042 00       		.byte	0x0
 1886 0043 06       		.uleb128 0x6
 1887 0044 2E       		.uleb128 0x2e
 1888 0045 01       		.byte	0x1
 1889 0046 01       		.uleb128 0x1
 1890 0047 13       		.uleb128 0x13
 1891 0048 3F       		.uleb128 0x3f
 1892 0049 0C       		.uleb128 0xc
 1893 004a 03       		.uleb128 0x3
 1894 004b 0E       		.uleb128 0xe
 1895 004c 3A       		.uleb128 0x3a
 1896 004d 0B       		.uleb128 0xb
 1897 004e 3B       		.uleb128 0x3b
 1898 004f 0B       		.uleb128 0xb
 1899 0050 27       		.uleb128 0x27
 1900 0051 0C       		.uleb128 0xc
 1901 0052 49       		.uleb128 0x49
 1902 0053 13       		.uleb128 0x13
 1903 0054 11       		.uleb128 0x11
 1904 0055 01       		.uleb128 0x1
 1905 0056 12       		.uleb128 0x12
 1906 0057 01       		.uleb128 0x1
 1907 0058 40       		.uleb128 0x40
 1908 0059 0A       		.uleb128 0xa
 1909 005a 00       		.byte	0x0
 1910 005b 00       		.byte	0x0
 1911 005c 07       		.uleb128 0x7
 1912 005d 34       		.uleb128 0x34
 1913 005e 00       		.byte	0x0
 1914 005f 03       		.uleb128 0x3
 1915 0060 0E       		.uleb128 0xe
 1916 0061 3A       		.uleb128 0x3a
 1917 0062 0B       		.uleb128 0xb
ARM GAS  /cygdrive/c/DOCUME~1/mkwapisz/LOCALS~1/Temp/ccOQCEsf.s 			page 46


 1918 0063 3B       		.uleb128 0x3b
 1919 0064 0B       		.uleb128 0xb
 1920 0065 49       		.uleb128 0x49
 1921 0066 13       		.uleb128 0x13
 1922 0067 02       		.uleb128 0x2
 1923 0068 0A       		.uleb128 0xa
 1924 0069 00       		.byte	0x0
 1925 006a 00       		.byte	0x0
 1926 006b 08       		.uleb128 0x8
 1927 006c 2E       		.uleb128 0x2e
 1928 006d 00       		.byte	0x0
 1929 006e 3F       		.uleb128 0x3f
 1930 006f 0C       		.uleb128 0xc
 1931 0070 03       		.uleb128 0x3
 1932 0071 0E       		.uleb128 0xe
 1933 0072 3A       		.uleb128 0x3a
 1934 0073 0B       		.uleb128 0xb
 1935 0074 3B       		.uleb128 0x3b
 1936 0075 0B       		.uleb128 0xb
 1937 0076 27       		.uleb128 0x27
 1938 0077 0C       		.uleb128 0xc
 1939 0078 11       		.uleb128 0x11
 1940 0079 01       		.uleb128 0x1
 1941 007a 12       		.uleb128 0x12
 1942 007b 01       		.uleb128 0x1
 1943 007c 40       		.uleb128 0x40
 1944 007d 0A       		.uleb128 0xa
 1945 007e 00       		.byte	0x0
 1946 007f 00       		.byte	0x0
 1947 0080 09       		.uleb128 0x9
 1948 0081 2E       		.uleb128 0x2e
 1949 0082 01       		.byte	0x1
 1950 0083 01       		.uleb128 0x1
 1951 0084 13       		.uleb128 0x13
 1952 0085 3F       		.uleb128 0x3f
 1953 0086 0C       		.uleb128 0xc
 1954 0087 03       		.uleb128 0x3
 1955 0088 0E       		.uleb128 0xe
 1956 0089 3A       		.uleb128 0x3a
 1957 008a 0B       		.uleb128 0xb
 1958 008b 3B       		.uleb128 0x3b
 1959 008c 0B       		.uleb128 0xb
 1960 008d 27       		.uleb128 0x27
 1961 008e 0C       		.uleb128 0xc
 1962 008f 49       		.uleb128 0x49
 1963 0090 13       		.uleb128 0x13
 1964 0091 11       		.uleb128 0x11
 1965 0092 01       		.uleb128 0x1
 1966 0093 12       		.uleb128 0x12
 1967 0094 01       		.uleb128 0x1
 1968 0095 40       		.uleb128 0x40
 1969 0096 06       		.uleb128 0x6
 1970 0097 00       		.byte	0x0
 1971 0098 00       		.byte	0x0
 1972 0099 0A       		.uleb128 0xa
 1973 009a 34       		.uleb128 0x34
 1974 009b 00       		.byte	0x0
ARM GAS  /cygdrive/c/DOCUME~1/mkwapisz/LOCALS~1/Temp/ccOQCEsf.s 			page 47


 1975 009c 03       		.uleb128 0x3
 1976 009d 0E       		.uleb128 0xe
 1977 009e 3A       		.uleb128 0x3a
 1978 009f 0B       		.uleb128 0xb
 1979 00a0 3B       		.uleb128 0x3b
 1980 00a1 0B       		.uleb128 0xb
 1981 00a2 49       		.uleb128 0x49
 1982 00a3 13       		.uleb128 0x13
 1983 00a4 00       		.byte	0x0
 1984 00a5 00       		.byte	0x0
 1985 00a6 0B       		.uleb128 0xb
 1986 00a7 2E       		.uleb128 0x2e
 1987 00a8 00       		.byte	0x0
 1988 00a9 3F       		.uleb128 0x3f
 1989 00aa 0C       		.uleb128 0xc
 1990 00ab 03       		.uleb128 0x3
 1991 00ac 0E       		.uleb128 0xe
 1992 00ad 3A       		.uleb128 0x3a
 1993 00ae 0B       		.uleb128 0xb
 1994 00af 3B       		.uleb128 0x3b
 1995 00b0 0B       		.uleb128 0xb
 1996 00b1 27       		.uleb128 0x27
 1997 00b2 0C       		.uleb128 0xc
 1998 00b3 49       		.uleb128 0x49
 1999 00b4 13       		.uleb128 0x13
 2000 00b5 11       		.uleb128 0x11
 2001 00b6 01       		.uleb128 0x1
 2002 00b7 12       		.uleb128 0x12
 2003 00b8 01       		.uleb128 0x1
 2004 00b9 40       		.uleb128 0x40
 2005 00ba 0A       		.uleb128 0xa
 2006 00bb 00       		.byte	0x0
 2007 00bc 00       		.byte	0x0
 2008 00bd 0C       		.uleb128 0xc
 2009 00be 2E       		.uleb128 0x2e
 2010 00bf 01       		.byte	0x1
 2011 00c0 01       		.uleb128 0x1
 2012 00c1 13       		.uleb128 0x13
 2013 00c2 3F       		.uleb128 0x3f
 2014 00c3 0C       		.uleb128 0xc
 2015 00c4 03       		.uleb128 0x3
 2016 00c5 0E       		.uleb128 0xe
 2017 00c6 3A       		.uleb128 0x3a
 2018 00c7 0B       		.uleb128 0xb
 2019 00c8 3B       		.uleb128 0x3b
 2020 00c9 05       		.uleb128 0x5
 2021 00ca 27       		.uleb128 0x27
 2022 00cb 0C       		.uleb128 0xc
 2023 00cc 49       		.uleb128 0x49
 2024 00cd 13       		.uleb128 0x13
 2025 00ce 11       		.uleb128 0x11
 2026 00cf 01       		.uleb128 0x1
 2027 00d0 12       		.uleb128 0x12
 2028 00d1 01       		.uleb128 0x1
 2029 00d2 40       		.uleb128 0x40
 2030 00d3 0A       		.uleb128 0xa
 2031 00d4 00       		.byte	0x0
ARM GAS  /cygdrive/c/DOCUME~1/mkwapisz/LOCALS~1/Temp/ccOQCEsf.s 			page 48


 2032 00d5 00       		.byte	0x0
 2033 00d6 0D       		.uleb128 0xd
 2034 00d7 05       		.uleb128 0x5
 2035 00d8 00       		.byte	0x0
 2036 00d9 03       		.uleb128 0x3
 2037 00da 0E       		.uleb128 0xe
 2038 00db 3A       		.uleb128 0x3a
 2039 00dc 0B       		.uleb128 0xb
 2040 00dd 3B       		.uleb128 0x3b
 2041 00de 05       		.uleb128 0x5
 2042 00df 49       		.uleb128 0x49
 2043 00e0 13       		.uleb128 0x13
 2044 00e1 02       		.uleb128 0x2
 2045 00e2 06       		.uleb128 0x6
 2046 00e3 00       		.byte	0x0
 2047 00e4 00       		.byte	0x0
 2048 00e5 0E       		.uleb128 0xe
 2049 00e6 34       		.uleb128 0x34
 2050 00e7 00       		.byte	0x0
 2051 00e8 03       		.uleb128 0x3
 2052 00e9 0E       		.uleb128 0xe
 2053 00ea 3A       		.uleb128 0x3a
 2054 00eb 0B       		.uleb128 0xb
 2055 00ec 3B       		.uleb128 0x3b
 2056 00ed 05       		.uleb128 0x5
 2057 00ee 49       		.uleb128 0x49
 2058 00ef 13       		.uleb128 0x13
 2059 00f0 00       		.byte	0x0
 2060 00f1 00       		.byte	0x0
 2061 00f2 0F       		.uleb128 0xf
 2062 00f3 0F       		.uleb128 0xf
 2063 00f4 00       		.byte	0x0
 2064 00f5 0B       		.uleb128 0xb
 2065 00f6 0B       		.uleb128 0xb
 2066 00f7 49       		.uleb128 0x49
 2067 00f8 13       		.uleb128 0x13
 2068 00f9 00       		.byte	0x0
 2069 00fa 00       		.byte	0x0
 2070 00fb 10       		.uleb128 0x10
 2071 00fc 2E       		.uleb128 0x2e
 2072 00fd 01       		.byte	0x1
 2073 00fe 01       		.uleb128 0x1
 2074 00ff 13       		.uleb128 0x13
 2075 0100 3F       		.uleb128 0x3f
 2076 0101 0C       		.uleb128 0xc
 2077 0102 03       		.uleb128 0x3
 2078 0103 0E       		.uleb128 0xe
 2079 0104 3A       		.uleb128 0x3a
 2080 0105 0B       		.uleb128 0xb
 2081 0106 3B       		.uleb128 0x3b
 2082 0107 05       		.uleb128 0x5
 2083 0108 27       		.uleb128 0x27
 2084 0109 0C       		.uleb128 0xc
 2085 010a 49       		.uleb128 0x49
 2086 010b 13       		.uleb128 0x13
 2087 010c 11       		.uleb128 0x11
 2088 010d 01       		.uleb128 0x1
ARM GAS  /cygdrive/c/DOCUME~1/mkwapisz/LOCALS~1/Temp/ccOQCEsf.s 			page 49


 2089 010e 12       		.uleb128 0x12
 2090 010f 01       		.uleb128 0x1
 2091 0110 40       		.uleb128 0x40
 2092 0111 06       		.uleb128 0x6
 2093 0112 00       		.byte	0x0
 2094 0113 00       		.byte	0x0
 2095 0114 11       		.uleb128 0x11
 2096 0115 05       		.uleb128 0x5
 2097 0116 00       		.byte	0x0
 2098 0117 03       		.uleb128 0x3
 2099 0118 08       		.uleb128 0x8
 2100 0119 3A       		.uleb128 0x3a
 2101 011a 0B       		.uleb128 0xb
 2102 011b 3B       		.uleb128 0x3b
 2103 011c 05       		.uleb128 0x5
 2104 011d 49       		.uleb128 0x49
 2105 011e 13       		.uleb128 0x13
 2106 011f 02       		.uleb128 0x2
 2107 0120 06       		.uleb128 0x6
 2108 0121 00       		.byte	0x0
 2109 0122 00       		.byte	0x0
 2110 0123 12       		.uleb128 0x12
 2111 0124 34       		.uleb128 0x34
 2112 0125 00       		.byte	0x0
 2113 0126 03       		.uleb128 0x3
 2114 0127 0E       		.uleb128 0xe
 2115 0128 3A       		.uleb128 0x3a
 2116 0129 0B       		.uleb128 0xb
 2117 012a 3B       		.uleb128 0x3b
 2118 012b 05       		.uleb128 0x5
 2119 012c 49       		.uleb128 0x49
 2120 012d 13       		.uleb128 0x13
 2121 012e 02       		.uleb128 0x2
 2122 012f 06       		.uleb128 0x6
 2123 0130 00       		.byte	0x0
 2124 0131 00       		.byte	0x0
 2125 0132 13       		.uleb128 0x13
 2126 0133 34       		.uleb128 0x34
 2127 0134 00       		.byte	0x0
 2128 0135 03       		.uleb128 0x3
 2129 0136 08       		.uleb128 0x8
 2130 0137 3A       		.uleb128 0x3a
 2131 0138 0B       		.uleb128 0xb
 2132 0139 3B       		.uleb128 0x3b
 2133 013a 05       		.uleb128 0x5
 2134 013b 49       		.uleb128 0x49
 2135 013c 13       		.uleb128 0x13
 2136 013d 02       		.uleb128 0x2
 2137 013e 06       		.uleb128 0x6
 2138 013f 00       		.byte	0x0
 2139 0140 00       		.byte	0x0
 2140 0141 14       		.uleb128 0x14
 2141 0142 34       		.uleb128 0x34
 2142 0143 00       		.byte	0x0
 2143 0144 03       		.uleb128 0x3
 2144 0145 0E       		.uleb128 0xe
 2145 0146 3A       		.uleb128 0x3a
ARM GAS  /cygdrive/c/DOCUME~1/mkwapisz/LOCALS~1/Temp/ccOQCEsf.s 			page 50


 2146 0147 0B       		.uleb128 0xb
 2147 0148 3B       		.uleb128 0x3b
 2148 0149 0B       		.uleb128 0xb
 2149 014a 49       		.uleb128 0x49
 2150 014b 13       		.uleb128 0x13
 2151 014c 1C       		.uleb128 0x1c
 2152 014d 0B       		.uleb128 0xb
 2153 014e 00       		.byte	0x0
 2154 014f 00       		.byte	0x0
 2155 0150 00       		.byte	0x0
 2156              		.section	.debug_pubnames,"",%progbits
 2157 0000 C8000000 		.4byte	0xc8
 2158 0004 0200     		.2byte	0x2
 2159 0006 00000000 		.4byte	.Ldebug_info0
 2160 000a A2030000 		.4byte	0x3a2
 2161 000e 89000000 		.4byte	0x89
 2162 0012 69326343 		.ascii	"i2cCheckStatus\000"
 2162      6865636B 
 2162      53746174 
 2162      757300
 2163 0021 B2000000 		.4byte	0xb2
 2164 0025 69326349 		.ascii	"i2cInit\000"
 2164      6E697400 
 2165 002d C5000000 		.4byte	0xc5
 2166 0031 69326353 		.ascii	"i2cStart\000"
 2166      74617274 
 2166      00
 2167 003a F9000000 		.4byte	0xf9
 2168 003e 69326352 		.ascii	"i2cRepeatStart\000"
 2168      65706561 
 2168      74537461 
 2168      727400
 2169 004d 2D010000 		.4byte	0x12d
 2170 0051 69326353 		.ascii	"i2cStop\000"
 2170      746F7000 
 2171 0059 44010000 		.4byte	0x144
 2172 005d 69326350 		.ascii	"i2cPutChar\000"
 2172      75744368 
 2172      617200
 2173 0068 7D010000 		.4byte	0x17d
 2174 006c 69326347 		.ascii	"i2cGetChar\000"
 2174      65744368 
 2174      617200
 2175 0077 CC010000 		.4byte	0x1cc
 2176 007b 69326357 		.ascii	"i2cWrite\000"
 2176      72697465 
 2176      00
 2177 0084 49020000 		.4byte	0x249
 2178 0088 69326357 		.ascii	"i2cWaitTransmit\000"
 2178      61697454 
 2178      72616E73 
 2178      6D697400 
 2179 0098 74020000 		.4byte	0x274
 2180 009c 69326357 		.ascii	"i2cWriteWithWait\000"
 2180      72697465 
 2180      57697468 
 2180      57616974 
ARM GAS  /cygdrive/c/DOCUME~1/mkwapisz/LOCALS~1/Temp/ccOQCEsf.s 			page 51


 2180      00
 2181 00ad AF020000 		.4byte	0x2af
 2182 00b1 6932634D 		.ascii	"i2cMyWrite\000"
 2182      79577269 
 2182      746500
 2183 00bc 18030000 		.4byte	0x318
 2184 00c0 69326352 		.ascii	"i2cRead\000"
 2184      65616400 
 2185 00c8 00000000 		.4byte	0x0
 2186              		.section	.debug_aranges,"",%progbits
 2187 0000 1C000000 		.4byte	0x1c
 2188 0004 0200     		.2byte	0x2
 2189 0006 00000000 		.4byte	.Ldebug_info0
 2190 000a 04       		.byte	0x4
 2191 000b 00       		.byte	0x0
 2192 000c 0000     		.2byte	0x0
 2193 000e 0000     		.2byte	0x0
 2194 0010 00000000 		.4byte	.Ltext0
 2195 0014 7A030000 		.4byte	.Letext0-.Ltext0
 2196 0018 00000000 		.4byte	0x0
 2197 001c 00000000 		.4byte	0x0
 2198              		.section	.debug_str,"MS",%progbits,1
 2199              	.LASF10:
 2200 0000 69326353 		.ascii	"i2cStart\000"
 2200      74617274 
 2200      00
 2201              	.LASF27:
 2202 0009 70427566 		.ascii	"pBuf\000"
 2202      00
 2203              	.LASF2:
 2204 000e 73686F72 		.ascii	"short unsigned int\000"
 2204      7420756E 
 2204      7369676E 
 2204      65642069 
 2204      6E7400
 2205              	.LASF11:
 2206 0021 73746174 		.ascii	"status\000"
 2206      757300
 2207              	.LASF22:
 2208 0028 61646472 		.ascii	"addr\000"
 2208      00
 2209              	.LASF16:
 2210 002d 69326350 		.ascii	"i2cPutChar\000"
 2210      75744368 
 2210      617200
 2211              	.LASF18:
 2212 0038 64617461 		.ascii	"data\000"
 2212      00
 2213              	.LASF8:
 2214 003d 6C6F6E67 		.ascii	"long long unsigned int\000"
 2214      206C6F6E 
 2214      6720756E 
 2214      7369676E 
 2214      65642069 
 2215              	.LASF31:
 2216 0054 2F637967 		.ascii	"/cygdrive/e/MP3Player/2148/testProgram_lpc2148_edu\000"
 2216      64726976 
ARM GAS  /cygdrive/c/DOCUME~1/mkwapisz/LOCALS~1/Temp/ccOQCEsf.s 			page 52


 2216      652F652F 
 2216      4D503350 
 2216      6C617965 
 2217              	.LASF1:
 2218 0087 756E7369 		.ascii	"unsigned char\000"
 2218      676E6564 
 2218      20636861 
 2218      7200
 2219              	.LASF21:
 2220 0095 69326357 		.ascii	"i2cWrite\000"
 2220      72697465 
 2220      00
 2221              	.LASF24:
 2222 009e 69326357 		.ascii	"i2cWriteWithWait\000"
 2222      72697465 
 2222      57697468 
 2222      57616974 
 2222      00
 2223              	.LASF6:
 2224 00af 75696E74 		.ascii	"uint8\000"
 2224      3800
 2225              	.LASF14:
 2226 00b5 69326349 		.ascii	"i2cInit\000"
 2226      6E697400 
 2227              	.LASF25:
 2228 00bd 6932634D 		.ascii	"i2cMyWrite\000"
 2228      79577269 
 2228      746500
 2229              	.LASF30:
 2230 00c8 6932632E 		.ascii	"i2c.c\000"
 2230      6300
 2231              	.LASF17:
 2232 00ce 69326347 		.ascii	"i2cGetChar\000"
 2232      65744368 
 2232      617200
 2233              	.LASF3:
 2234 00d9 756E7369 		.ascii	"unsigned int\000"
 2234      676E6564 
 2234      20696E74 
 2234      00
 2235              	.LASF9:
 2236 00e6 69326343 		.ascii	"i2cCheckStatus\000"
 2236      6865636B 
 2236      53746174 
 2236      757300
 2237              	.LASF19:
 2238 00f5 6D6F6465 		.ascii	"mode\000"
 2238      00
 2239              	.LASF12:
 2240 00fa 72657443 		.ascii	"retCode\000"
 2240      6F646500 
 2241              	.LASF29:
 2242 0102 474E5520 		.ascii	"GNU C 4.1.1\000"
 2242      4320342E 
 2242      312E3100 
 2243              	.LASF0:
 2244 010e 74553136 		.ascii	"tU16\000"
ARM GAS  /cygdrive/c/DOCUME~1/mkwapisz/LOCALS~1/Temp/ccOQCEsf.s 			page 53


 2244      00
 2245              	.LASF7:
 2246 0113 6C6F6E67 		.ascii	"long long int\000"
 2246      206C6F6E 
 2246      6720696E 
 2246      7400
 2247              	.LASF13:
 2248 0121 69326352 		.ascii	"i2cRepeatStart\000"
 2248      65706561 
 2248      74537461 
 2248      727400
 2249              	.LASF15:
 2250 0130 69326353 		.ascii	"i2cStop\000"
 2250      746F7000 
 2251              	.LASF5:
 2252 0138 73686F72 		.ascii	"short int\000"
 2252      7420696E 
 2252      7400
 2253              	.LASF20:
 2254 0142 70446174 		.ascii	"pData\000"
 2254      6100
 2255              	.LASF26:
 2256 0148 69326352 		.ascii	"i2cRead\000"
 2256      65616400 
 2257              	.LASF23:
 2258 0150 69326357 		.ascii	"i2cWaitTransmit\000"
 2258      61697454 
 2258      72616E73 
 2258      6D697400 
 2259              	.LASF4:
 2260 0160 7369676E 		.ascii	"signed char\000"
 2260      65642063 
 2260      68617200 
 2261              	.LASF28:
 2262 016c 53454D41 		.ascii	"SEMAFOR_SPI\000"
 2262      464F525F 
 2262      53504900 
 2263              		.ident	"GCC: (GNU) 4.1.1"
ARM GAS  /cygdrive/c/DOCUME~1/mkwapisz/LOCALS~1/Temp/ccOQCEsf.s 			page 54


DEFINED SYMBOLS
                            *ABS*:00000000 i2c.c
/cygdrive/c/DOCUME~1/mkwapisz/LOCALS~1/Temp/ccOQCEsf.s:1      .text:00000000 $t
/cygdrive/c/DOCUME~1/mkwapisz/LOCALS~1/Temp/ccOQCEsf.s:16     .text:00000000 i2cCheckStatus
/cygdrive/c/DOCUME~1/mkwapisz/LOCALS~1/Temp/ccOQCEsf.s:37     .text:00000010 $d
/cygdrive/c/DOCUME~1/mkwapisz/LOCALS~1/Temp/ccOQCEsf.s:46     .text:00000018 i2cInit
/cygdrive/c/DOCUME~1/mkwapisz/LOCALS~1/Temp/ccOQCEsf.s:43     .text:00000018 $t
/cygdrive/c/DOCUME~1/mkwapisz/LOCALS~1/Temp/ccOQCEsf.s:92     .text:00000054 $d
/cygdrive/c/DOCUME~1/mkwapisz/LOCALS~1/Temp/ccOQCEsf.s:103    .text:00000064 i2cStart
/cygdrive/c/DOCUME~1/mkwapisz/LOCALS~1/Temp/ccOQCEsf.s:100    .text:00000064 $t
/cygdrive/c/DOCUME~1/mkwapisz/LOCALS~1/Temp/ccOQCEsf.s:155    .text:000000a0 $d
/cygdrive/c/DOCUME~1/mkwapisz/LOCALS~1/Temp/ccOQCEsf.s:164    .text:000000a8 i2cRepeatStart
/cygdrive/c/DOCUME~1/mkwapisz/LOCALS~1/Temp/ccOQCEsf.s:161    .text:000000a8 $t
/cygdrive/c/DOCUME~1/mkwapisz/LOCALS~1/Temp/ccOQCEsf.s:222    .text:000000ec $d
/cygdrive/c/DOCUME~1/mkwapisz/LOCALS~1/Temp/ccOQCEsf.s:231    .text:000000f4 i2cStop
/cygdrive/c/DOCUME~1/mkwapisz/LOCALS~1/Temp/ccOQCEsf.s:228    .text:000000f4 $t
/cygdrive/c/DOCUME~1/mkwapisz/LOCALS~1/Temp/ccOQCEsf.s:261    .text:00000114 $d
/cygdrive/c/DOCUME~1/mkwapisz/LOCALS~1/Temp/ccOQCEsf.s:270    .text:0000011c i2cPutChar
/cygdrive/c/DOCUME~1/mkwapisz/LOCALS~1/Temp/ccOQCEsf.s:267    .text:0000011c $t
/cygdrive/c/DOCUME~1/mkwapisz/LOCALS~1/Temp/ccOQCEsf.s:312    .text:0000013c $d
/cygdrive/c/DOCUME~1/mkwapisz/LOCALS~1/Temp/ccOQCEsf.s:321    .text:00000144 i2cGetChar
/cygdrive/c/DOCUME~1/mkwapisz/LOCALS~1/Temp/ccOQCEsf.s:318    .text:00000144 $t
/cygdrive/c/DOCUME~1/mkwapisz/LOCALS~1/Temp/ccOQCEsf.s:398    .text:00000194 $d
/cygdrive/c/DOCUME~1/mkwapisz/LOCALS~1/Temp/ccOQCEsf.s:408    .text:000001a0 i2cWrite
/cygdrive/c/DOCUME~1/mkwapisz/LOCALS~1/Temp/ccOQCEsf.s:405    .text:000001a0 $t
/cygdrive/c/DOCUME~1/mkwapisz/LOCALS~1/Temp/ccOQCEsf.s:539    .text:00000234 i2cWaitTransmit
/cygdrive/c/DOCUME~1/mkwapisz/LOCALS~1/Temp/ccOQCEsf.s:573    .text:00000254 i2cWriteWithWait
/cygdrive/c/DOCUME~1/mkwapisz/LOCALS~1/Temp/ccOQCEsf.s:615    .text:00000280 i2cMyWrite
/cygdrive/c/DOCUME~1/mkwapisz/LOCALS~1/Temp/ccOQCEsf.s:702    .text:000002dc i2cRead

NO UNDEFINED SYMBOLS
