ARM GAS  /cygdrive/c/DOCUME~1/mkwapisz/LOCALS~1/Temp/ccJRkhJb.s 			page 1


   1              		.code	16
   2              		.file	"lcd_hw.c"
   3              		.section	.debug_abbrev,"",%progbits
   4              	.Ldebug_abbrev0:
   5              		.section	.debug_info,"",%progbits
   6              	.Ldebug_info0:
   7              		.section	.debug_line,"",%progbits
   8              	.Ldebug_line0:
   9 0000 82000000 		.text
   9      02004200 
   9      00000201 
   9      FB0E0D00 
   9      01010101 
  10              	.Ltext0:
  11              		.align	2
  12              		.global	sendToLCD
  13              		.code 16
  14              		.thumb_func
  15              		.type	sendToLCD, %function
  16              	sendToLCD:
  17              	.LFB2:
  18              		.file 1 "lcd_hw.c"
   1:lcd_hw.c      **** #include "../startup/lpc2xxx.h"
   2:lcd_hw.c      **** #include "lcd_hw.h"
   3:lcd_hw.c      **** 
   4:lcd_hw.c      **** /*****************************************************************************
   5:lcd_hw.c      ****  *
   6:lcd_hw.c      ****  * Description:
   7:lcd_hw.c      ****  *    Send 9-bit data to LCD controller
   8:lcd_hw.c      ****  *
   9:lcd_hw.c      ****  ****************************************************************************/
  10:lcd_hw.c      **** void sendToLCD (uint8_t firstBit, uint8_t data)
  11:lcd_hw.c      **** {
  19              		.loc 1 11 0
  20 0000 30B5     		push	{r4, r5, lr}
  21              	.LCFI0:
  22              	.LVL0:
  12:lcd_hw.c      **** 	//disable SPI
  13:lcd_hw.c      **** 	IOCLR0 = LCD_CLK;
  23              		.loc 1 13 0
  24 0002 174C     		ldr	r4, .L12
  25              		.loc 1 11 0
  26 0004 0906     		lsl	r1, r1, #24
  27              	.LVL1:
  28              		.loc 1 13 0
  29 0006 1023     		mov	r3, #16
  30 0008 2360     		str	r3, [r4]
  31              		.loc 1 11 0
  32 000a 0D0E     		lsr	r5, r1, #24
  33              	.LVL2:
  14:lcd_hw.c      **** 	PINSEL0 &= 0xffffc0ff;
  34              		.loc 1 14 0
  35 000c 1549     		ldr	r1, .L12+4
  36 000e 164A     		ldr	r2, .L12+8
  37 0010 0B68     		ldr	r3, [r1]
  38              		.loc 1 11 0
  39 0012 0006     		lsl	r0, r0, #24
ARM GAS  /cygdrive/c/DOCUME~1/mkwapisz/LOCALS~1/Temp/ccJRkhJb.s 			page 2


  40              	.LVL3:
  41              		.loc 1 14 0
  42 0014 1340     		and	r3, r3, r2
  43              		.loc 1 11 0
  44 0016 000E     		lsr	r0, r0, #24
  45              	.LVL4:
  46              		.loc 1 14 0
  47 0018 0B60     		str	r3, [r1]
  15:lcd_hw.c      **** 
  16:lcd_hw.c      **** 	if (1 == firstBit)
  48              		.loc 1 16 0
  49 001a 0128     		cmp	r0, #1
  50 001c 1CD0     		beq	.L11
  17:lcd_hw.c      **** 	{
  18:lcd_hw.c      **** 		IOSET0 = LCD_MOSI; //set MOSI
  19:lcd_hw.c      **** 	}
  20:lcd_hw.c      **** 	else
  21:lcd_hw.c      **** 	{
  22:lcd_hw.c      **** 		IOCLR0 = LCD_MOSI; //reset MOSI
  51              		.loc 1 22 0
  52 001e 4023     		mov	r3, #64
  53 0020 2360     		str	r3, [r4]
  54              	.L4:
  23:lcd_hw.c      **** 	}
  24:lcd_hw.c      **** 
  25:lcd_hw.c      **** 	//Set clock high
  26:lcd_hw.c      **** 	IOSET0 = LCD_CLK;
  55              		.loc 1 26 0
  56 0022 124B     		ldr	r3, .L12+12
  57 0024 1022     		mov	r2, #16
  58 0026 1A60     		str	r2, [r3]
  27:lcd_hw.c      **** 
  28:lcd_hw.c      **** 	//Set clock low
  29:lcd_hw.c      **** 	IOCLR0 = LCD_CLK;
  59              		.loc 1 29 0
  60 0028 0833     		add	r3, r3, #8
  61 002a 1A60     		str	r2, [r3]
  30:lcd_hw.c      **** 
  31:lcd_hw.c      **** 	/*
  32:lcd_hw.c      **** 	 * Enable SPI again
  33:lcd_hw.c      **** 	 */
  34:lcd_hw.c      **** 	//initialize SPI interface
  35:lcd_hw.c      **** 	S0SPCCR = 0x08;
  62              		.loc 1 35 0
  63 002c 104B     		ldr	r3, .L12+16
  64 002e 0822     		mov	r2, #8
  65 0030 1A60     		str	r2, [r3]
  36:lcd_hw.c      **** 	S0SPCR = 0x20;
  66              		.loc 1 36 0
  67 0032 2022     		mov	r2, #32
  68 0034 0C3B     		sub	r3, r3, #12
  69 0036 1A60     		str	r2, [r3]
  37:lcd_hw.c      **** 
  38:lcd_hw.c      **** 	//connect SPI bus to IO-pins
  39:lcd_hw.c      **** 	PINSEL0 |= 0x00001500;
  70              		.loc 1 39 0
  71 0038 0A49     		ldr	r1, .L12+4
ARM GAS  /cygdrive/c/DOCUME~1/mkwapisz/LOCALS~1/Temp/ccJRkhJb.s 			page 3


  72 003a A823     		mov	r3, #168
  73 003c 0A68     		ldr	r2, [r1]
  74 003e 5B01     		lsl	r3, r3, #5
  75 0040 1A43     		orr	r2, r2, r3
  40:lcd_hw.c      **** 
  41:lcd_hw.c      **** 	//send byte
  42:lcd_hw.c      **** 	S0SPDR = data;
  76              		.loc 1 42 0
  77 0042 0C4B     		ldr	r3, .L12+20
  78              		.loc 1 39 0
  79 0044 0A60     		str	r2, [r1]
  80              		.loc 1 42 0
  81 0046 1D60     		str	r5, [r3]
  82 0048 0B49     		ldr	r1, .L12+24
  83 004a 8022     		mov	r2, #128
  84              	.L5:
  43:lcd_hw.c      **** 	while ((S0SPSR & 0x80) == 0)
  85              		.loc 1 43 0
  86 004c 0B68     		ldr	r3, [r1]
  87 004e 1342     		tst	r3, r2
  88 0050 FCD0     		beq	.L5
  44:lcd_hw.c      **** 	{
  45:lcd_hw.c      **** 		// Nic nie rób.
  46:lcd_hw.c      **** 	}
  47:lcd_hw.c      **** }
  89              		.loc 1 47 0
  90              		@ sp needed for prologue
  91              	.LVL5:
  92 0052 30BC     		pop	{r4, r5}
  93 0054 01BC     		pop	{r0}
  94 0056 0047     		bx	r0
  95              	.LVL6:
  96              	.L11:
  97              		.loc 1 18 0
  98 0058 044B     		ldr	r3, .L12+12
  99 005a 4022     		mov	r2, #64
 100 005c 1A60     		str	r2, [r3]
 101 005e E0E7     		b	.L4
 102              	.L13:
 103              		.align	2
 104              	.L12:
 105 0060 0C8002E0 		.word	-536707060
 106 0064 00C002E0 		.word	-536690688
 107 0068 FFC0FFFF 		.word	-16129
 108 006c 048002E0 		.word	-536707068
 109 0070 0C0002E0 		.word	-536739828
 110 0074 080002E0 		.word	-536739832
 111 0078 040002E0 		.word	-536739836
 112              	.LFE2:
 113              		.size	sendToLCD, .-sendToLCD
 114              		.align	2
 115              		.global	selectLCD
 116              		.code 16
 117              		.thumb_func
 118              		.type	selectLCD, %function
 119              	selectLCD:
 120              	.LFB4:
ARM GAS  /cygdrive/c/DOCUME~1/mkwapisz/LOCALS~1/Temp/ccJRkhJb.s 			page 4


  48:lcd_hw.c      **** 
  49:lcd_hw.c      **** /*****************************************************************************
  50:lcd_hw.c      ****  *
  51:lcd_hw.c      ****  * Description:
  52:lcd_hw.c      ****  *    Initialize the SPI interface for the LCD controller
  53:lcd_hw.c      ****  *
  54:lcd_hw.c      ****  ****************************************************************************/
  55:lcd_hw.c      **** void initSpiForLcd (void)
  56:lcd_hw.c      **** {
  57:lcd_hw.c      **** 	//make SPI slave chip select an output and set signal high
  58:lcd_hw.c      **** 	IODIR0 |= (LCD_CS | LCD_CLK | LCD_MOSI);
  59:lcd_hw.c      **** 
  60:lcd_hw.c      **** 	//deselect controller
  61:lcd_hw.c      **** 	selectLCD (FALSE);
  62:lcd_hw.c      **** 
  63:lcd_hw.c      **** 	//connect SPI bus to IO-pins
  64:lcd_hw.c      **** 	PINSEL0 |= 0x00001500;
  65:lcd_hw.c      **** 
  66:lcd_hw.c      **** 	//initialize SPI interface
  67:lcd_hw.c      **** 	S0SPCCR = 0x08;
  68:lcd_hw.c      **** 	S0SPCR = 0x20;
  69:lcd_hw.c      **** }
  70:lcd_hw.c      **** 
  71:lcd_hw.c      **** /*****************************************************************************
  72:lcd_hw.c      ****  *
  73:lcd_hw.c      ****  * Description:
  74:lcd_hw.c      ****  *    Select/deselect LCD controller (by controlling chip select signal)
  75:lcd_hw.c      ****  *
  76:lcd_hw.c      ****  ****************************************************************************/
  77:lcd_hw.c      **** void selectLCD (tBool select)
  78:lcd_hw.c      **** {
 121              		.loc 1 78 0
 122              	.LVL7:
 123 007c 0006     		lsl	r0, r0, #24
 124              	.LVL8:
 125 007e 000E     		lsr	r0, r0, #24
 126              	.LVL9:
 127              		@ lr needed for prologue
  79:lcd_hw.c      **** 	if (TRUE == select)
 128              		.loc 1 79 0
 129 0080 0128     		cmp	r0, #1
 130 0082 03D0     		beq	.L19
  80:lcd_hw.c      **** 	{
  81:lcd_hw.c      **** 		IOCLR0 = LCD_CS;
  82:lcd_hw.c      **** 	} else
  83:lcd_hw.c      **** 	{
  84:lcd_hw.c      **** 		IOSET0 = LCD_CS;
 131              		.loc 1 84 0
 132 0084 034B     		ldr	r3, .L20
 133 0086 8022     		mov	r2, #128
 134 0088 1A60     		str	r2, [r3]
 135              	.L18:
  85:lcd_hw.c      **** 	}
  86:lcd_hw.c      **** }
 136              		.loc 1 86 0
 137              		@ sp needed for prologue
 138 008a 7047     		bx	lr
ARM GAS  /cygdrive/c/DOCUME~1/mkwapisz/LOCALS~1/Temp/ccJRkhJb.s 			page 5


 139              	.L19:
 140              		.loc 1 81 0
 141 008c 024B     		ldr	r3, .L20+4
 142 008e 8022     		mov	r2, #128
 143 0090 1A60     		str	r2, [r3]
 144 0092 FAE7     		b	.L18
 145              	.L21:
 146              		.align	2
 147              	.L20:
 148 0094 048002E0 		.word	-536707068
 149 0098 0C8002E0 		.word	-536707060
 150              	.LFE4:
 151              		.size	selectLCD, .-selectLCD
 152              		.align	2
 153              		.global	initSpiForLcd
 154              		.code 16
 155              		.thumb_func
 156              		.type	initSpiForLcd, %function
 157              	initSpiForLcd:
 158              	.LFB3:
 159              		.loc 1 56 0
 160 009c 00B5     		push	{lr}
 161              	.LCFI1:
 162              		.loc 1 58 0
 163 009e 0B49     		ldr	r1, .L24
 164 00a0 0B68     		ldr	r3, [r1]
 165 00a2 D022     		mov	r2, #208
 166 00a4 1343     		orr	r3, r3, r2
 167 00a6 0B60     		str	r3, [r1]
 168              		.loc 1 61 0
 169 00a8 0020     		mov	r0, #0
 170 00aa FFF7FEFF 		bl	selectLCD
 171              		.loc 1 64 0
 172 00ae 0849     		ldr	r1, .L24+4
 173 00b0 A823     		mov	r3, #168
 174 00b2 0A68     		ldr	r2, [r1]
 175 00b4 5B01     		lsl	r3, r3, #5
 176 00b6 1A43     		orr	r2, r2, r3
 177              		.loc 1 67 0
 178 00b8 064B     		ldr	r3, .L24+8
 179              		.loc 1 64 0
 180 00ba 0A60     		str	r2, [r1]
 181              		.loc 1 67 0
 182 00bc 0822     		mov	r2, #8
 183 00be 1A60     		str	r2, [r3]
 184              		.loc 1 68 0
 185 00c0 2022     		mov	r2, #32
 186 00c2 0C3B     		sub	r3, r3, #12
 187 00c4 1A60     		str	r2, [r3]
 188              		.loc 1 69 0
 189              		@ sp needed for prologue
 190 00c6 01BC     		pop	{r0}
 191 00c8 0047     		bx	r0
 192              	.L25:
 193 00ca 0000     		.align	2
 194              	.L24:
 195 00cc 088002E0 		.word	-536707064
ARM GAS  /cygdrive/c/DOCUME~1/mkwapisz/LOCALS~1/Temp/ccJRkhJb.s 			page 6


 196 00d0 00C002E0 		.word	-536690688
 197 00d4 0C0002E0 		.word	-536739828
 198              	.LFE3:
 199              		.size	initSpiForLcd, .-initSpiForLcd
 200              		.section	.debug_frame,"",%progbits
 201              	.Lframe0:
 202 0000 0C000000 		.4byte	.LECIE0-.LSCIE0
 203              	.LSCIE0:
 204 0004 FFFFFFFF 		.4byte	0xffffffff
 205 0008 01       		.byte	0x1
 206 0009 00       		.ascii	"\000"
 207 000a 01       		.uleb128 0x1
 208 000b 7C       		.sleb128 -4
 209 000c 0E       		.byte	0xe
 210 000d 0C       		.byte	0xc
 211 000e 0D       		.uleb128 0xd
 212 000f 00       		.uleb128 0x0
 213              		.align	2
 214              	.LECIE0:
 215              	.LSFDE0:
 216 0010 18000000 		.4byte	.LEFDE0-.LASFDE0
 217              	.LASFDE0:
 218 0014 00000000 		.4byte	.Lframe0
 219 0018 00000000 		.4byte	.LFB2
 220 001c 7C000000 		.4byte	.LFE2-.LFB2
 221 0020 42       		.byte	0x4
 222              		.4byte	.LCFI0-.LFB2
 223 0021 0E       		.byte	0xe
 224 0022 0C       		.uleb128 0xc
 225 0023 84       		.byte	0x84
 226 0024 03       		.uleb128 0x3
 227 0025 85       		.byte	0x85
 228 0026 02       		.uleb128 0x2
 229 0027 8E       		.byte	0x8e
 230 0028 01       		.uleb128 0x1
 231 0029 000000   		.align	2
 232              	.LEFDE0:
 233              	.LSFDE2:
 234 002c 0C000000 		.4byte	.LEFDE2-.LASFDE2
 235              	.LASFDE2:
 236 0030 00000000 		.4byte	.Lframe0
 237 0034 7C000000 		.4byte	.LFB4
 238 0038 20000000 		.4byte	.LFE4-.LFB4
 239              		.align	2
 240              	.LEFDE2:
 241              	.LSFDE4:
 242 003c 14000000 		.4byte	.LEFDE4-.LASFDE4
 243              	.LASFDE4:
 244 0040 00000000 		.4byte	.Lframe0
 245 0044 9C000000 		.4byte	.LFB3
 246 0048 3C000000 		.4byte	.LFE3-.LFB3
 247 004c 42       		.byte	0x4
 248              		.4byte	.LCFI1-.LFB3
 249 004d 0E       		.byte	0xe
 250 004e 04       		.uleb128 0x4
 251 004f 8E       		.byte	0x8e
 252 0050 01       		.uleb128 0x1
ARM GAS  /cygdrive/c/DOCUME~1/mkwapisz/LOCALS~1/Temp/ccJRkhJb.s 			page 7


 253 0051 000000   		.align	2
 254              	.LEFDE4:
 255              		.file 2 "../pre_emptive_os/api/general.h"
 256              		.text
 257              	.Letext0:
 258              		.section	.debug_loc,"",%progbits
 259              	.Ldebug_loc0:
 260              	.LLST0:
 261 0000 00000000 		.4byte	.LFB2-.Ltext0
 262 0004 02000000 		.4byte	.LCFI0-.Ltext0
 263 0008 0100     		.2byte	0x1
 264 000a 5D       		.byte	0x5d
 265 000b 02000000 		.4byte	.LCFI0-.Ltext0
 266 000f 7C000000 		.4byte	.LFE2-.Ltext0
 267 0013 0200     		.2byte	0x2
 268 0015 7D       		.byte	0x7d
 269 0016 0C       		.sleb128 12
 270 0017 00000000 		.4byte	0x0
 271 001b 00000000 		.4byte	0x0
 272              	.LLST1:
 273 001f 02000000 		.4byte	.LVL0-.Ltext0
 274 0023 14000000 		.4byte	.LVL3-.Ltext0
 275 0027 0100     		.2byte	0x1
 276 0029 50       		.byte	0x50
 277 002a 18000000 		.4byte	.LVL4-.Ltext0
 278 002e 7C000000 		.4byte	.LFE2-.Ltext0
 279 0032 0100     		.2byte	0x1
 280 0034 50       		.byte	0x50
 281 0035 00000000 		.4byte	0x0
 282 0039 00000000 		.4byte	0x0
 283              	.LLST2:
 284 003d 02000000 		.4byte	.LVL0-.Ltext0
 285 0041 06000000 		.4byte	.LVL1-.Ltext0
 286 0045 0100     		.2byte	0x1
 287 0047 51       		.byte	0x51
 288 0048 0C000000 		.4byte	.LVL2-.Ltext0
 289 004c 52000000 		.4byte	.LVL5-.Ltext0
 290 0050 0100     		.2byte	0x1
 291 0052 55       		.byte	0x55
 292 0053 58000000 		.4byte	.LVL6-.Ltext0
 293 0057 7C000000 		.4byte	.LFE2-.Ltext0
 294 005b 0100     		.2byte	0x1
 295 005d 55       		.byte	0x55
 296 005e 00000000 		.4byte	0x0
 297 0062 00000000 		.4byte	0x0
 298              	.LLST4:
 299 0066 7C000000 		.4byte	.LVL7-.Ltext0
 300 006a 7E000000 		.4byte	.LVL8-.Ltext0
 301 006e 0100     		.2byte	0x1
 302 0070 50       		.byte	0x50
 303 0071 80000000 		.4byte	.LVL9-.Ltext0
 304 0075 9C000000 		.4byte	.LFE4-.Ltext0
 305 0079 0100     		.2byte	0x1
 306 007b 50       		.byte	0x50
 307 007c 00000000 		.4byte	0x0
 308 0080 00000000 		.4byte	0x0
 309              	.LLST5:
ARM GAS  /cygdrive/c/DOCUME~1/mkwapisz/LOCALS~1/Temp/ccJRkhJb.s 			page 8


 310 0084 9C000000 		.4byte	.LFB3-.Ltext0
 311 0088 9E000000 		.4byte	.LCFI1-.Ltext0
 312 008c 0100     		.2byte	0x1
 313 008e 5D       		.byte	0x5d
 314 008f 9E000000 		.4byte	.LCFI1-.Ltext0
 315 0093 D8000000 		.4byte	.LFE3-.Ltext0
 316 0097 0200     		.2byte	0x2
 317 0099 7D       		.byte	0x7d
 318 009a 04       		.sleb128 4
 319 009b 00000000 		.4byte	0x0
 320 009f 00000000 		.4byte	0x0
 321              		.section	.debug_info
 322 0000 FB000000 		.4byte	0xfb
 323 0004 0200     		.2byte	0x2
 324 0006 00000000 		.4byte	.Ldebug_abbrev0
 325 000a 04       		.byte	0x4
 326 000b 01       		.uleb128 0x1
 327 000c 00000000 		.4byte	.Ldebug_line0
 328 0010 D8000000 		.4byte	.Letext0
 329 0014 00000000 		.4byte	.Ltext0
 330 0018 90000000 		.4byte	.LASF15
 331 001c 01       		.byte	0x1
 332 001d 29000000 		.4byte	.LASF16
 333 0021 D5000000 		.4byte	.LASF17
 334 0025 02       		.uleb128 0x2
 335 0026 73000000 		.4byte	.LASF0
 336 002a 01       		.byte	0x1
 337 002b 08       		.byte	0x8
 338 002c 02       		.uleb128 0x2
 339 002d 9C000000 		.4byte	.LASF1
 340 0031 02       		.byte	0x2
 341 0032 07       		.byte	0x7
 342 0033 02       		.uleb128 0x2
 343 0034 0E000000 		.4byte	.LASF2
 344 0038 04       		.byte	0x4
 345 0039 07       		.byte	0x7
 346 003a 02       		.uleb128 0x2
 347 003b AF000000 		.4byte	.LASF3
 348 003f 01       		.byte	0x1
 349 0040 06       		.byte	0x6
 350 0041 02       		.uleb128 0x2
 351 0042 CB000000 		.4byte	.LASF4
 352 0046 02       		.byte	0x2
 353 0047 05       		.byte	0x5
 354 0048 03       		.uleb128 0x3
 355 0049 696E7400 		.ascii	"int\000"
 356 004d 04       		.byte	0x4
 357 004e 05       		.byte	0x5
 358 004f 04       		.uleb128 0x4
 359 0050 C5000000 		.4byte	.LASF5
 360 0054 02       		.byte	0x2
 361 0055 4E       		.byte	0x4e
 362 0056 25000000 		.4byte	0x25
 363 005a 04       		.uleb128 0x4
 364 005b 6B000000 		.4byte	.LASF6
 365 005f 02       		.byte	0x2
 366 0060 55       		.byte	0x55
ARM GAS  /cygdrive/c/DOCUME~1/mkwapisz/LOCALS~1/Temp/ccJRkhJb.s 			page 9


 367 0061 25000000 		.4byte	0x25
 368 0065 04       		.uleb128 0x4
 369 0066 45000000 		.4byte	.LASF7
 370 006a 02       		.byte	0x2
 371 006b 57       		.byte	0x57
 372 006c 25000000 		.4byte	0x25
 373 0070 02       		.uleb128 0x2
 374 0071 00000000 		.4byte	.LASF8
 375 0075 08       		.byte	0x8
 376 0076 05       		.byte	0x5
 377 0077 02       		.uleb128 0x2
 378 0078 4B000000 		.4byte	.LASF9
 379 007c 08       		.byte	0x8
 380 007d 07       		.byte	0x7
 381 007e 05       		.uleb128 0x5
 382 007f B6000000 		.4byte	0xb6
 383 0083 01       		.byte	0x1
 384 0084 81000000 		.4byte	.LASF12
 385 0088 01       		.byte	0x1
 386 0089 0B       		.byte	0xb
 387 008a 01       		.byte	0x1
 388 008b 00000000 		.4byte	.LFB2
 389 008f 7C000000 		.4byte	.LFE2
 390 0093 00000000 		.4byte	.LLST0
 391 0097 06       		.uleb128 0x6
 392 0098 62000000 		.4byte	.LASF10
 393 009c 01       		.byte	0x1
 394 009d 0A       		.byte	0xa
 395 009e 5A000000 		.4byte	0x5a
 396 00a2 1F000000 		.4byte	.LLST1
 397 00a6 06       		.uleb128 0x6
 398 00a7 8B000000 		.4byte	.LASF11
 399 00ab 01       		.byte	0x1
 400 00ac 0A       		.byte	0xa
 401 00ad 5A000000 		.4byte	0x5a
 402 00b1 3D000000 		.4byte	.LLST2
 403 00b5 00       		.byte	0x0
 404 00b6 07       		.uleb128 0x7
 405 00b7 DD000000 		.4byte	0xdd
 406 00bb 01       		.byte	0x1
 407 00bc BB000000 		.4byte	.LASF13
 408 00c0 01       		.byte	0x1
 409 00c1 4E       		.byte	0x4e
 410 00c2 01       		.byte	0x1
 411 00c3 7C000000 		.4byte	.LFB4
 412 00c7 9C000000 		.4byte	.LFE4
 413 00cb 01       		.byte	0x1
 414 00cc 5D       		.byte	0x5d
 415 00cd 06       		.uleb128 0x6
 416 00ce 3E000000 		.4byte	.LASF14
 417 00d2 01       		.byte	0x1
 418 00d3 4D       		.byte	0x4d
 419 00d4 4F000000 		.4byte	0x4f
 420 00d8 66000000 		.4byte	.LLST4
 421 00dc 00       		.byte	0x0
 422 00dd 08       		.uleb128 0x8
 423 00de 01       		.byte	0x1
ARM GAS  /cygdrive/c/DOCUME~1/mkwapisz/LOCALS~1/Temp/ccJRkhJb.s 			page 10


 424 00df 1B000000 		.4byte	.LASF18
 425 00e3 01       		.byte	0x1
 426 00e4 38       		.byte	0x38
 427 00e5 01       		.byte	0x1
 428 00e6 9C000000 		.4byte	.LFB3
 429 00ea D8000000 		.4byte	.LFE3
 430 00ee 84000000 		.4byte	.LLST5
 431 00f2 09       		.uleb128 0x9
 432 00f3 32000000 		.4byte	.LASF19
 433 00f7 02       		.byte	0x2
 434 00f8 66       		.byte	0x66
 435 00f9 65000000 		.4byte	0x65
 436 00fd 00       		.byte	0x0
 437 00fe 00       		.byte	0x0
 438              		.section	.debug_abbrev
 439 0000 01       		.uleb128 0x1
 440 0001 11       		.uleb128 0x11
 441 0002 01       		.byte	0x1
 442 0003 10       		.uleb128 0x10
 443 0004 06       		.uleb128 0x6
 444 0005 12       		.uleb128 0x12
 445 0006 01       		.uleb128 0x1
 446 0007 11       		.uleb128 0x11
 447 0008 01       		.uleb128 0x1
 448 0009 25       		.uleb128 0x25
 449 000a 0E       		.uleb128 0xe
 450 000b 13       		.uleb128 0x13
 451 000c 0B       		.uleb128 0xb
 452 000d 03       		.uleb128 0x3
 453 000e 0E       		.uleb128 0xe
 454 000f 1B       		.uleb128 0x1b
 455 0010 0E       		.uleb128 0xe
 456 0011 00       		.byte	0x0
 457 0012 00       		.byte	0x0
 458 0013 02       		.uleb128 0x2
 459 0014 24       		.uleb128 0x24
 460 0015 00       		.byte	0x0
 461 0016 03       		.uleb128 0x3
 462 0017 0E       		.uleb128 0xe
 463 0018 0B       		.uleb128 0xb
 464 0019 0B       		.uleb128 0xb
 465 001a 3E       		.uleb128 0x3e
 466 001b 0B       		.uleb128 0xb
 467 001c 00       		.byte	0x0
 468 001d 00       		.byte	0x0
 469 001e 03       		.uleb128 0x3
 470 001f 24       		.uleb128 0x24
 471 0020 00       		.byte	0x0
 472 0021 03       		.uleb128 0x3
 473 0022 08       		.uleb128 0x8
 474 0023 0B       		.uleb128 0xb
 475 0024 0B       		.uleb128 0xb
 476 0025 3E       		.uleb128 0x3e
 477 0026 0B       		.uleb128 0xb
 478 0027 00       		.byte	0x0
 479 0028 00       		.byte	0x0
 480 0029 04       		.uleb128 0x4
ARM GAS  /cygdrive/c/DOCUME~1/mkwapisz/LOCALS~1/Temp/ccJRkhJb.s 			page 11


 481 002a 16       		.uleb128 0x16
 482 002b 00       		.byte	0x0
 483 002c 03       		.uleb128 0x3
 484 002d 0E       		.uleb128 0xe
 485 002e 3A       		.uleb128 0x3a
 486 002f 0B       		.uleb128 0xb
 487 0030 3B       		.uleb128 0x3b
 488 0031 0B       		.uleb128 0xb
 489 0032 49       		.uleb128 0x49
 490 0033 13       		.uleb128 0x13
 491 0034 00       		.byte	0x0
 492 0035 00       		.byte	0x0
 493 0036 05       		.uleb128 0x5
 494 0037 2E       		.uleb128 0x2e
 495 0038 01       		.byte	0x1
 496 0039 01       		.uleb128 0x1
 497 003a 13       		.uleb128 0x13
 498 003b 3F       		.uleb128 0x3f
 499 003c 0C       		.uleb128 0xc
 500 003d 03       		.uleb128 0x3
 501 003e 0E       		.uleb128 0xe
 502 003f 3A       		.uleb128 0x3a
 503 0040 0B       		.uleb128 0xb
 504 0041 3B       		.uleb128 0x3b
 505 0042 0B       		.uleb128 0xb
 506 0043 27       		.uleb128 0x27
 507 0044 0C       		.uleb128 0xc
 508 0045 11       		.uleb128 0x11
 509 0046 01       		.uleb128 0x1
 510 0047 12       		.uleb128 0x12
 511 0048 01       		.uleb128 0x1
 512 0049 40       		.uleb128 0x40
 513 004a 06       		.uleb128 0x6
 514 004b 00       		.byte	0x0
 515 004c 00       		.byte	0x0
 516 004d 06       		.uleb128 0x6
 517 004e 05       		.uleb128 0x5
 518 004f 00       		.byte	0x0
 519 0050 03       		.uleb128 0x3
 520 0051 0E       		.uleb128 0xe
 521 0052 3A       		.uleb128 0x3a
 522 0053 0B       		.uleb128 0xb
 523 0054 3B       		.uleb128 0x3b
 524 0055 0B       		.uleb128 0xb
 525 0056 49       		.uleb128 0x49
 526 0057 13       		.uleb128 0x13
 527 0058 02       		.uleb128 0x2
 528 0059 06       		.uleb128 0x6
 529 005a 00       		.byte	0x0
 530 005b 00       		.byte	0x0
 531 005c 07       		.uleb128 0x7
 532 005d 2E       		.uleb128 0x2e
 533 005e 01       		.byte	0x1
 534 005f 01       		.uleb128 0x1
 535 0060 13       		.uleb128 0x13
 536 0061 3F       		.uleb128 0x3f
 537 0062 0C       		.uleb128 0xc
ARM GAS  /cygdrive/c/DOCUME~1/mkwapisz/LOCALS~1/Temp/ccJRkhJb.s 			page 12


 538 0063 03       		.uleb128 0x3
 539 0064 0E       		.uleb128 0xe
 540 0065 3A       		.uleb128 0x3a
 541 0066 0B       		.uleb128 0xb
 542 0067 3B       		.uleb128 0x3b
 543 0068 0B       		.uleb128 0xb
 544 0069 27       		.uleb128 0x27
 545 006a 0C       		.uleb128 0xc
 546 006b 11       		.uleb128 0x11
 547 006c 01       		.uleb128 0x1
 548 006d 12       		.uleb128 0x12
 549 006e 01       		.uleb128 0x1
 550 006f 40       		.uleb128 0x40
 551 0070 0A       		.uleb128 0xa
 552 0071 00       		.byte	0x0
 553 0072 00       		.byte	0x0
 554 0073 08       		.uleb128 0x8
 555 0074 2E       		.uleb128 0x2e
 556 0075 00       		.byte	0x0
 557 0076 3F       		.uleb128 0x3f
 558 0077 0C       		.uleb128 0xc
 559 0078 03       		.uleb128 0x3
 560 0079 0E       		.uleb128 0xe
 561 007a 3A       		.uleb128 0x3a
 562 007b 0B       		.uleb128 0xb
 563 007c 3B       		.uleb128 0x3b
 564 007d 0B       		.uleb128 0xb
 565 007e 27       		.uleb128 0x27
 566 007f 0C       		.uleb128 0xc
 567 0080 11       		.uleb128 0x11
 568 0081 01       		.uleb128 0x1
 569 0082 12       		.uleb128 0x12
 570 0083 01       		.uleb128 0x1
 571 0084 40       		.uleb128 0x40
 572 0085 06       		.uleb128 0x6
 573 0086 00       		.byte	0x0
 574 0087 00       		.byte	0x0
 575 0088 09       		.uleb128 0x9
 576 0089 34       		.uleb128 0x34
 577 008a 00       		.byte	0x0
 578 008b 03       		.uleb128 0x3
 579 008c 0E       		.uleb128 0xe
 580 008d 3A       		.uleb128 0x3a
 581 008e 0B       		.uleb128 0xb
 582 008f 3B       		.uleb128 0x3b
 583 0090 0B       		.uleb128 0xb
 584 0091 49       		.uleb128 0x49
 585 0092 13       		.uleb128 0x13
 586 0093 1C       		.uleb128 0x1c
 587 0094 0B       		.uleb128 0xb
 588 0095 00       		.byte	0x0
 589 0096 00       		.byte	0x0
 590 0097 00       		.byte	0x0
 591              		.section	.debug_pubnames,"",%progbits
 592 0000 3C000000 		.4byte	0x3c
 593 0004 0200     		.2byte	0x2
 594 0006 00000000 		.4byte	.Ldebug_info0
ARM GAS  /cygdrive/c/DOCUME~1/mkwapisz/LOCALS~1/Temp/ccJRkhJb.s 			page 13


 595 000a FF000000 		.4byte	0xff
 596 000e 7E000000 		.4byte	0x7e
 597 0012 73656E64 		.ascii	"sendToLCD\000"
 597      546F4C43 
 597      4400
 598 001c B6000000 		.4byte	0xb6
 599 0020 73656C65 		.ascii	"selectLCD\000"
 599      63744C43 
 599      4400
 600 002a DD000000 		.4byte	0xdd
 601 002e 696E6974 		.ascii	"initSpiForLcd\000"
 601      53706946 
 601      6F724C63 
 601      6400
 602 003c 00000000 		.4byte	0x0
 603              		.section	.debug_aranges,"",%progbits
 604 0000 1C000000 		.4byte	0x1c
 605 0004 0200     		.2byte	0x2
 606 0006 00000000 		.4byte	.Ldebug_info0
 607 000a 04       		.byte	0x4
 608 000b 00       		.byte	0x0
 609 000c 0000     		.2byte	0x0
 610 000e 0000     		.2byte	0x0
 611 0010 00000000 		.4byte	.Ltext0
 612 0014 D8000000 		.4byte	.Letext0-.Ltext0
 613 0018 00000000 		.4byte	0x0
 614 001c 00000000 		.4byte	0x0
 615              		.section	.debug_str,"MS",%progbits,1
 616              	.LASF8:
 617 0000 6C6F6E67 		.ascii	"long long int\000"
 617      206C6F6E 
 617      6720696E 
 617      7400
 618              	.LASF2:
 619 000e 756E7369 		.ascii	"unsigned int\000"
 619      676E6564 
 619      20696E74 
 619      00
 620              	.LASF18:
 621 001b 696E6974 		.ascii	"initSpiForLcd\000"
 621      53706946 
 621      6F724C63 
 621      6400
 622              	.LASF16:
 623 0029 6C63645F 		.ascii	"lcd_hw.c\000"
 623      68772E63 
 623      00
 624              	.LASF19:
 625 0032 53454D41 		.ascii	"SEMAFOR_SPI\000"
 625      464F525F 
 625      53504900 
 626              	.LASF14:
 627 003e 73656C65 		.ascii	"select\000"
 627      637400
 628              	.LASF7:
 629 0045 75696E74 		.ascii	"uint8\000"
 629      3800
ARM GAS  /cygdrive/c/DOCUME~1/mkwapisz/LOCALS~1/Temp/ccJRkhJb.s 			page 14


 630              	.LASF9:
 631 004b 6C6F6E67 		.ascii	"long long unsigned int\000"
 631      206C6F6E 
 631      6720756E 
 631      7369676E 
 631      65642069 
 632              	.LASF10:
 633 0062 66697273 		.ascii	"firstBit\000"
 633      74426974 
 633      00
 634              	.LASF6:
 635 006b 75696E74 		.ascii	"uint8_t\000"
 635      385F7400 
 636              	.LASF0:
 637 0073 756E7369 		.ascii	"unsigned char\000"
 637      676E6564 
 637      20636861 
 637      7200
 638              	.LASF12:
 639 0081 73656E64 		.ascii	"sendToLCD\000"
 639      546F4C43 
 639      4400
 640              	.LASF11:
 641 008b 64617461 		.ascii	"data\000"
 641      00
 642              	.LASF15:
 643 0090 474E5520 		.ascii	"GNU C 4.1.1\000"
 643      4320342E 
 643      312E3100 
 644              	.LASF1:
 645 009c 73686F72 		.ascii	"short unsigned int\000"
 645      7420756E 
 645      7369676E 
 645      65642069 
 645      6E7400
 646              	.LASF3:
 647 00af 7369676E 		.ascii	"signed char\000"
 647      65642063 
 647      68617200 
 648              	.LASF13:
 649 00bb 73656C65 		.ascii	"selectLCD\000"
 649      63744C43 
 649      4400
 650              	.LASF5:
 651 00c5 74426F6F 		.ascii	"tBool\000"
 651      6C00
 652              	.LASF4:
 653 00cb 73686F72 		.ascii	"short int\000"
 653      7420696E 
 653      7400
 654              	.LASF17:
 655 00d5 2F637967 		.ascii	"/cygdrive/e/MP3Player/2148/testProgram_lpc2148_edu\000"
 655      64726976 
 655      652F652F 
 655      4D503350 
 655      6C617965 
 656              		.ident	"GCC: (GNU) 4.1.1"
ARM GAS  /cygdrive/c/DOCUME~1/mkwapisz/LOCALS~1/Temp/ccJRkhJb.s 			page 15


ARM GAS  /cygdrive/c/DOCUME~1/mkwapisz/LOCALS~1/Temp/ccJRkhJb.s 			page 16


DEFINED SYMBOLS
                            *ABS*:00000000 lcd_hw.c
/cygdrive/c/DOCUME~1/mkwapisz/LOCALS~1/Temp/ccJRkhJb.s:1      .text:00000000 $t
/cygdrive/c/DOCUME~1/mkwapisz/LOCALS~1/Temp/ccJRkhJb.s:16     .text:00000000 sendToLCD
/cygdrive/c/DOCUME~1/mkwapisz/LOCALS~1/Temp/ccJRkhJb.s:105    .text:00000060 $d
/cygdrive/c/DOCUME~1/mkwapisz/LOCALS~1/Temp/ccJRkhJb.s:119    .text:0000007c selectLCD
/cygdrive/c/DOCUME~1/mkwapisz/LOCALS~1/Temp/ccJRkhJb.s:116    .text:0000007c $t
/cygdrive/c/DOCUME~1/mkwapisz/LOCALS~1/Temp/ccJRkhJb.s:148    .text:00000094 $d
/cygdrive/c/DOCUME~1/mkwapisz/LOCALS~1/Temp/ccJRkhJb.s:157    .text:0000009c initSpiForLcd
/cygdrive/c/DOCUME~1/mkwapisz/LOCALS~1/Temp/ccJRkhJb.s:154    .text:0000009c $t
/cygdrive/c/DOCUME~1/mkwapisz/LOCALS~1/Temp/ccJRkhJb.s:195    .text:000000cc $d

NO UNDEFINED SYMBOLS
