ARM GAS  /cygdrive/c/DOCUME~1/mkwapisz/LOCALS~1/Temp/ccKuhkNd.s 			page 1


   1              		.code	16
   2              		.file	"main.c"
   3              		.section	.debug_abbrev,"",%progbits
   4              	.Ldebug_abbrev0:
   5              		.section	.debug_info,"",%progbits
   6              	.Ldebug_info0:
   7              		.section	.debug_line,"",%progbits
   8              	.Ldebug_line0:
   9 0000 06020000 		.text
   9      02009D00 
   9      00000201 
   9      FB0E0D00 
   9      01010101 
  10              	.Ltext0:
  11              		.align	2
  12              		.code 16
  13              		.thumb_func
  14              		.type	delay37us, %function
  15              	delay37us:
  16              	.LFB3:
  17              		.file 1 "testLcd.c"
   1:testLcd.c     **** /******************************************************************************
   2:testLcd.c     ****  *
   3:testLcd.c     ****  * Copyright:
   4:testLcd.c     ****  *    (C) 2000 - 2005 Embedded Artists AB
   5:testLcd.c     ****  *
   6:testLcd.c     ****  *****************************************************************************/
   7:testLcd.c     **** 
   8:testLcd.c     **** #include "../pre_emptive_os/api/osapi.h"
   9:testLcd.c     **** #include "../pre_emptive_os/api/general.h"
  10:testLcd.c     **** #include <printf_P.h>
  11:testLcd.c     **** #include <lpc2xxx.h>
  12:testLcd.c     **** #include <consol.h>
  13:testLcd.c     **** 
  14:testLcd.c     **** #define LCD_DATA      0x00ff0000  //P1.16-P1.23
  15:testLcd.c     **** #define LCD_E         0x02000000  //P1.25
  16:testLcd.c     **** #define LCD_RW        0x00400000  //P0.22
  17:testLcd.c     **** #define LCD_RS        0x01000000  //P1.24
  18:testLcd.c     **** #define LCD_BACKLIGHT 0x40000000  //P0.30
  19:testLcd.c     **** 
  20:testLcd.c     **** static void initLCD (void)
  21:testLcd.c     **** {
  22:testLcd.c     **** 	IODIR1 |= (LCD_DATA | LCD_E | LCD_RS);
  23:testLcd.c     **** 	IOCLR1 = (LCD_DATA | LCD_E | LCD_RS);
  24:testLcd.c     **** 
  25:testLcd.c     **** 	IODIR0 |= LCD_RW;
  26:testLcd.c     **** 	IOCLR0 = LCD_RW;
  27:testLcd.c     **** 
  28:testLcd.c     **** 	IODIR0 |= LCD_BACKLIGHT;
  29:testLcd.c     **** 	IOCLR0 = LCD_BACKLIGHT;
  30:testLcd.c     **** }
  31:testLcd.c     **** 
  32:testLcd.c     **** /*
  33:testLcd.c     ****  * Wywo³anie przerwania opóŸniaj¹cego na oko³o 37 mikrosekund.
  34:testLcd.c     ****  * nop - No Operation
  35:testLcd.c     ****  */
  36:testLcd.c     **** static void delay37us (void)
ARM GAS  /cygdrive/c/DOCUME~1/mkwapisz/LOCALS~1/Temp/ccKuhkNd.s 			page 2


  37:testLcd.c     **** {
  18              		.loc 1 37 0
  19 0000 81B0     		sub	sp, sp, #4
  20              	.LCFI0:
  38:testLcd.c     **** 	volatile tU32 i;
  39:testLcd.c     **** 
  40:testLcd.c     **** 	for (i = 0; i < 15 * 2500; ++i)
  21              		.loc 1 40 0
  22 0002 0023     		mov	r3, #0
  23 0004 0093     		str	r3, [sp]
  24              	.LVL0:
  25 0006 009A     		ldr	r2, [sp]
  26 0008 064B     		ldr	r3, .L8
  27              		.loc 1 37 0
  28              		@ lr needed for prologue
  29              		.loc 1 40 0
  30 000a 9A42     		cmp	r2, r3
  31 000c 07D8     		bhi	.L4
  32              	.L5:
  41:testLcd.c     **** 	{
  42:testLcd.c     **** 		asm volatile (" nop");
  33              		.loc 1 42 0
  34 000e C046     		 nop
  35              		.loc 1 40 0
  36              		.code	16
  37 0010 009B     		ldr	r3, [sp]
  38 0012 0133     		add	r3, r3, #1
  39 0014 0093     		str	r3, [sp]
  40 0016 009A     		ldr	r2, [sp]
  41 0018 024B     		ldr	r3, .L8
  42 001a 9A42     		cmp	r2, r3
  43 001c F7D9     		bls	.L5
  44              	.L4:
  43:testLcd.c     **** 		//delay 15 ns x 2500 = about 37,5 us delay
  44:testLcd.c     **** 	}
  45:testLcd.c     **** }
  45              		.loc 1 45 0
  46 001e 01B0     		add	sp, sp, #4
  47              		@ sp needed for prologue
  48 0020 7047     		bx	lr
  49              	.L9:
  50 0022 0000     		.align	2
  51              	.L8:
  52 0024 7B920000 		.word	37499
  53              	.LFE3:
  54              		.size	delay37us, .-delay37us
  55              		.align	2
  56              		.code 16
  57              		.thumb_func
  58              		.type	PodswietlEkran, %function
  59              	PodswietlEkran:
  60              	.LFB4:
  46:testLcd.c     **** 
  47:testLcd.c     **** /*
  48:testLcd.c     ****  * W³¹cza (TRUE) lub wy³¹cza (FALSE) podœwielenie ekranu.
  49:testLcd.c     ****  */
  50:testLcd.c     **** static void PodswietlEkran (tU8 onOff)
ARM GAS  /cygdrive/c/DOCUME~1/mkwapisz/LOCALS~1/Temp/ccKuhkNd.s 			page 3


  51:testLcd.c     **** {
  61              		.loc 1 51 0
  62              	.LVL1:
  63 0028 0006     		lsl	r0, r0, #24
  64              	.LVL2:
  65 002a 000E     		lsr	r0, r0, #24
  66              	.LVL3:
  67              		@ lr needed for prologue
  52:testLcd.c     **** 	if (onOff == TRUE)
  68              		.loc 1 52 0
  69 002c 0128     		cmp	r0, #1
  70 002e 04D0     		beq	.L15
  53:testLcd.c     **** 	{
  54:testLcd.c     **** 		IOSET0 = LCD_BACKLIGHT;
  55:testLcd.c     **** 	} else
  56:testLcd.c     **** 	{
  57:testLcd.c     **** 		IOCLR0 = LCD_BACKLIGHT;
  71              		.loc 1 57 0
  72 0030 8023     		mov	r3, #128
  73 0032 044A     		ldr	r2, .L16
  74 0034 DB05     		lsl	r3, r3, #23
  75 0036 1360     		str	r3, [r2]
  76              	.L14:
  58:testLcd.c     **** 	}
  59:testLcd.c     **** }
  77              		.loc 1 59 0
  78              		@ sp needed for prologue
  79 0038 7047     		bx	lr
  80              	.L15:
  81              		.loc 1 54 0
  82 003a 8023     		mov	r3, #128
  83 003c 024A     		ldr	r2, .L16+4
  84 003e DB05     		lsl	r3, r3, #23
  85 0040 1360     		str	r3, [r2]
  86 0042 F9E7     		b	.L14
  87              	.L17:
  88              		.align	2
  89              	.L16:
  90 0044 0C8002E0 		.word	-536707060
  91 0048 048002E0 		.word	-536707068
  92              	.LFE4:
  93              		.size	PodswietlEkran, .-PodswietlEkran
  94              		.align	2
  95              		.code 16
  96              		.thumb_func
  97              		.type	WypiszZnakNaEkran, %function
  98              	WypiszZnakNaEkran:
  99              	.LFB5:
  60:testLcd.c     **** 
  61:testLcd.c     **** /*
  62:testLcd.c     ****  * Zainicjownie poprzez rejestry kerunek pinów jako wyjœcia (dla wypisania tekstu)
  63:testLcd.c     ****  */
  64:testLcd.c     **** static void WypiszZnakNaEkran (tU8 reg, tU8 data)
  65:testLcd.c     **** {
 100              		.loc 1 65 0
 101              	.LVL4:
 102 004c 0906     		lsl	r1, r1, #24
ARM GAS  /cygdrive/c/DOCUME~1/mkwapisz/LOCALS~1/Temp/ccKuhkNd.s 			page 4


 103              	.LVL5:
 104 004e 0006     		lsl	r0, r0, #24
 105              	.LVL6:
 106 0050 81B0     		sub	sp, sp, #4
 107              	.LCFI1:
 108              		@ lr needed for prologue
 109              		.loc 1 65 0
 110 0052 090E     		lsr	r1, r1, #24
 111              	.LVL7:
  66:testLcd.c     **** 	volatile tU8 i;
  67:testLcd.c     **** 
  68:testLcd.c     **** 	if (reg == 0)
 112              		.loc 1 68 0
 113 0054 0028     		cmp	r0, #0
 114 0056 36D1     		bne	.L19
  69:testLcd.c     **** 	{
  70:testLcd.c     **** 		IOCLR1 = LCD_RS;
 115              		.loc 1 70 0
 116 0058 8023     		mov	r3, #128
 117 005a 1D4A     		ldr	r2, .L31
 118 005c 5B04     		lsl	r3, r3, #17
 119 005e 1360     		str	r3, [r2]
 120              	.L21:
  71:testLcd.c     **** 	} else
  72:testLcd.c     **** 	{
  73:testLcd.c     **** 		IOSET1 = LCD_RS;
  74:testLcd.c     **** 	}
  75:testLcd.c     **** 
  76:testLcd.c     **** 	IOCLR0 = LCD_RW;
 121              		.loc 1 76 0
 122 0060 1C4A     		ldr	r2, .L31+4
 123 0062 8023     		mov	r3, #128
 124 0064 DB03     		lsl	r3, r3, #15
 125 0066 1360     		str	r3, [r2]
  77:testLcd.c     **** 	IOCLR1 = LCD_DATA;
 126              		.loc 1 77 0
 127 0068 194B     		ldr	r3, .L31
 128 006a FF22     		mov	r2, #255
 129 006c 1204     		lsl	r2, r2, #16
 130 006e 1A60     		str	r2, [r3]
  78:testLcd.c     **** 	IOSET1 = ((tU32) data << 16) & LCD_DATA;
 131              		.loc 1 78 0
 132 0070 0B04     		lsl	r3, r1, #16
 133 0072 1340     		and	r3, r3, r2
 134 0074 184A     		ldr	r2, .L31+8
 135 0076 1360     		str	r3, [r2]
  79:testLcd.c     **** 	IOSET1 = LCD_E;
 136              		.loc 1 79 0
 137 0078 8023     		mov	r3, #128
 138 007a 9B04     		lsl	r3, r3, #18
  80:testLcd.c     **** 
  81:testLcd.c     **** 	for (i = 0; i < 16; ++i)
 139              		.loc 1 81 0
 140 007c 6946     		mov	r1, sp
 141              	.LVL8:
 142              		.loc 1 79 0
 143 007e 1360     		str	r3, [r2]
ARM GAS  /cygdrive/c/DOCUME~1/mkwapisz/LOCALS~1/Temp/ccKuhkNd.s 			page 5


 144              		.loc 1 81 0
 145 0080 0331     		add	r1, r1, #3
 146 0082 0023     		mov	r3, #0
 147 0084 0B70     		strb	r3, [r1]
 148              	.LVL9:
 149 0086 0B78     		ldrb	r3, [r1]
 150 0088 0F2B     		cmp	r3, #15
 151 008a 08D8     		bhi	.L22
 152              	.LVL10:
 153              	.L27:
  82:testLcd.c     **** 	{
  83:testLcd.c     **** 		asm volatile (" nop");
 154              		.loc 1 83 0
 155 008c C046     		 nop
 156              		.loc 1 81 0
 157              		.code	16
 158 008e 0B78     		ldrb	r3, [r1]
 159 0090 0133     		add	r3, r3, #1
 160              	.LVL11:
 161 0092 1B06     		lsl	r3, r3, #24
 162 0094 1B0E     		lsr	r3, r3, #24
 163 0096 0B70     		strb	r3, [r1]
 164 0098 0B78     		ldrb	r3, [r1]
 165 009a 0F2B     		cmp	r3, #15
 166 009c F6D9     		bls	.L27
 167              	.LVL12:
 168              	.L22:
  84:testLcd.c     **** 		//delay 15 ns x 16 = about 240 ns delay
  85:testLcd.c     **** 	}
  86:testLcd.c     **** 	IOCLR1 = LCD_E;
 169              		.loc 1 86 0
 170 009e 8023     		mov	r3, #128
 171              	.LVL13:
 172 00a0 0B4A     		ldr	r2, .L31
 173 00a2 9B04     		lsl	r3, r3, #18
 174 00a4 1360     		str	r3, [r2]
  87:testLcd.c     **** 
  88:testLcd.c     **** 	for (i = 0; i < 16; ++i)
 175              		.loc 1 88 0
 176 00a6 0023     		mov	r3, #0
 177 00a8 0B70     		strb	r3, [r1]
 178 00aa 0B78     		ldrb	r3, [r1]
 179 00ac 0F2B     		cmp	r3, #15
 180 00ae 08D8     		bhi	.L26
 181              	.LVL14:
 182              	.L28:
  89:testLcd.c     **** 	{
  90:testLcd.c     **** 		asm volatile (" nop");
 183              		.loc 1 90 0
 184 00b0 C046     		 nop
 185              		.loc 1 88 0
 186              		.code	16
 187 00b2 0B78     		ldrb	r3, [r1]
 188 00b4 0133     		add	r3, r3, #1
 189              	.LVL15:
 190 00b6 1B06     		lsl	r3, r3, #24
 191 00b8 1B0E     		lsr	r3, r3, #24
ARM GAS  /cygdrive/c/DOCUME~1/mkwapisz/LOCALS~1/Temp/ccKuhkNd.s 			page 6


 192 00ba 0B70     		strb	r3, [r1]
 193 00bc 0B78     		ldrb	r3, [r1]
 194 00be 0F2B     		cmp	r3, #15
 195 00c0 F6D9     		bls	.L28
 196              	.LVL16:
 197              	.L26:
  91:testLcd.c     **** 		//delay 15 ns x 16 = about 240 ns delay
  92:testLcd.c     **** 	}
  93:testLcd.c     **** }
 198              		.loc 1 93 0
 199 00c2 01B0     		add	sp, sp, #4
 200              		@ sp needed for prologue
 201 00c4 7047     		bx	lr
 202              	.LVL17:
 203              	.L19:
 204              		.loc 1 73 0
 205 00c6 8023     		mov	r3, #128
 206 00c8 034A     		ldr	r2, .L31+8
 207 00ca 5B04     		lsl	r3, r3, #17
 208 00cc 1360     		str	r3, [r2]
 209 00ce C7E7     		b	.L21
 210              	.L32:
 211              		.align	2
 212              	.L31:
 213 00d0 1C8002E0 		.word	-536707044
 214 00d4 0C8002E0 		.word	-536707060
 215 00d8 148002E0 		.word	-536707052
 216              	.LFE5:
 217              		.size	WypiszZnakNaEkran, .-WypiszZnakNaEkran
 218              		.align	2
 219              		.code 16
 220              		.thumb_func
 221              		.type	WypiszCiag, %function
 222              	WypiszCiag:
 223              	.LFB6:
  94:testLcd.c     **** 
  95:testLcd.c     **** /*
  96:testLcd.c     ****  * Wypisuje ci¹g znaków w linii na ekranie.
  97:testLcd.c     ****  */
  98:testLcd.c     **** static void WypiszCiag (const char* tekst)
  99:testLcd.c     **** {
 224              		.loc 1 99 0
 225 00dc 10B5     		push	{r4, lr}
 226              	.LCFI2:
 227              	.LVL18:
 100:testLcd.c     **** 	while (*tekst != '\0')
 228              		.loc 1 100 0
 229 00de 0178     		ldrb	r1, [r0]
 230              		.loc 1 99 0
 231 00e0 041C     		mov	r4, r0
 232              		.loc 1 100 0
 233 00e2 0029     		cmp	r1, #0
 234 00e4 08D0     		beq	.L36
 235              	.LVL19:
 236              	.L37:
 101:testLcd.c     **** 	{
 102:testLcd.c     **** 		WypiszZnakNaEkran (1, *tekst);
ARM GAS  /cygdrive/c/DOCUME~1/mkwapisz/LOCALS~1/Temp/ccKuhkNd.s 			page 7


 237              		.loc 1 102 0
 238 00e6 0120     		mov	r0, #1
 103:testLcd.c     **** 		delay37us ();
 104:testLcd.c     **** 
 105:testLcd.c     **** 		tekst++;
 239              		.loc 1 105 0
 240 00e8 0134     		add	r4, r4, #1
 241              		.loc 1 102 0
 242 00ea FFF7AFFF 		bl	WypiszZnakNaEkran
 243              		.loc 1 103 0
 244 00ee FFF787FF 		bl	delay37us
 245              		.loc 1 100 0
 246 00f2 2178     		ldrb	r1, [r4]
 247 00f4 0029     		cmp	r1, #0
 248 00f6 F6D1     		bne	.L37
 249              	.LVL20:
 250              	.L36:
 106:testLcd.c     **** 	}
 107:testLcd.c     **** }
 251              		.loc 1 107 0
 252              		@ sp needed for prologue
 253              	.LVL21:
 254 00f8 10BC     		pop	{r4}
 255 00fa 01BC     		pop	{r0}
 256 00fc 0047     		bx	r0
 257              	.LFE6:
 258              		.size	WypiszCiag, .-WypiszCiag
 259 00fe 0000     		.align	2
 260              		.global	appTick
 261              		.code 16
 262              		.thumb_func
 263              		.type	appTick, %function
 264              	appTick:
 265              	.LFB22:
 266              		.file 2 "main.c"
   1:main.c        **** #include "../pre_emptive_os/api/osapi.h"
   2:main.c        **** #include "../pre_emptive_os/api/general.h"
   3:main.c        **** 
   4:main.c        **** #include <ea_init.h>
   5:main.c        **** #include <lpc2xxx.h>
   6:main.c        **** #include <consol.h>
   7:main.c        **** #include <string.h>
   8:main.c        **** 
   9:main.c        **** #include "testLcd.c"
  10:main.c        **** #include "testRGB.c"
  11:main.c        **** 
  12:main.c        **** #include "i2c.h"
  13:main.c        **** #include "key.h"
  14:main.c        **** 
  15:main.c        **** #include "usb/lpc_usb.h"
  16:main.c        **** #include "usb/lpc_hid.h"
  17:main.c        **** 
  18:main.c        **** #include "pff2/src/diskio.h"
  19:main.c        **** #include "pff2/src/pff.h"
  20:main.c        **** 
  21:main.c        **** #include "functions.h"
  22:main.c        **** #include "irq/wave.h"
ARM GAS  /cygdrive/c/DOCUME~1/mkwapisz/LOCALS~1/Temp/ccKuhkNd.s 			page 8


  23:main.c        **** 
  24:main.c        **** extern char startupSound[];
  25:main.c        **** 
  26:main.c        **** static void ProcMain (void* arg);
  27:main.c        **** #define STACK_SIZE_MAIN  400
  28:main.c        **** static tU8 stack_Main[STACK_SIZE_MAIN];
  29:main.c        **** 
  30:main.c        **** static void ProcLCD2x16 (void* arg);
  31:main.c        **** #define STACK_SIZE_LCD2X16 2048
  32:main.c        **** static tU8 stack_LCD2x16[STACK_SIZE_LCD2X16];
  33:main.c        **** static tU8 pid_lcd2x16;
  34:main.c        **** 
  35:main.c        **** static void ProcRest (void* arg);
  36:main.c        **** #define STACK_SIZE_REST 2048
  37:main.c        **** 
  38:main.c        **** static void WyswietlMenuGlowne (int nrTekstu);
  39:main.c        **** 
  40:main.c        **** static void WyswietlTekstNaLCD128x128 (char *s, int czysc);
  41:main.c        **** static void WyswietlTekstNaLCD128x128_L (char *s, int linia, int czysc);
  42:main.c        **** 
  43:main.c        **** static void OdtwarzajDzwiek ();
  44:main.c        **** 
  45:main.c        **** /*
  46:main.c        ****  * 0 - ok
  47:main.c        ****  */
  48:main.c        **** FRESULT wynikInicjalizacjiSd = 2;
  49:main.c        **** FATFS fatfs;
  50:main.c        **** 
  51:main.c        **** /*
  52:main.c        ****  * Struktura plików z SD
  53:main.c        ****  */
  54:main.c        **** DWORD rc;
  55:main.c        **** volatile tU32 msClock = 0;
  56:main.c        **** 
  57:main.c        **** /*
  58:main.c        ****  * 0 - niebieska
  59:main.c        ****  * 1 - czerwona
  60:main.c        ****  * 2 - zielona
  61:main.c        ****  */
  62:main.c        **** int kolorDiody = 0;
  63:main.c        **** 
  64:main.c        **** /*
  65:main.c        ****  * Maksymalnie 10 plików.
  66:main.c        ****  */
  67:main.c        **** char listaPlikow[10 * 12];
  68:main.c        **** 
  69:main.c        **** /*
  70:main.c        ****  * Funkcja wejœciowa programu.
  71:main.c        ****  */
  72:main.c        **** int main (void)
  73:main.c        **** {
  74:main.c        **** 	tU8 error;
  75:main.c        **** 	tU8 pid_main;
  76:main.c        **** 
  77:main.c        **** 	// Wy³¹czenie buzzer'a.
  78:main.c        **** 	IODIR0 |= 0x00000080;
  79:main.c        **** 	IOSET0 = 0x00000080;
ARM GAS  /cygdrive/c/DOCUME~1/mkwapisz/LOCALS~1/Temp/ccKuhkNd.s 			page 9


  80:main.c        **** 
  81:main.c        **** 	osInit ();
  82:main.c        **** 
  83:main.c        **** 	osCreateProcess (ProcMain, stack_Main, STACK_SIZE_MAIN, &pid_main, 1, NULL, &error);
  84:main.c        **** 	osStartProcess (pid_main, &error);
  85:main.c        **** 
  86:main.c        **** 	osStart ();
  87:main.c        **** 
  88:main.c        **** 	return 0;
  89:main.c        **** }
  90:main.c        **** 
  91:main.c        **** /*
  92:main.c        ****  * Procedura g³ówna programu odpalaj¹ca pozosta³e procedury.
  93:main.c        ****  */
  94:main.c        **** static void ProcMain (void* arg)
  95:main.c        **** {
  96:main.c        **** 	tU8 error;
  97:main.c        **** 
  98:main.c        **** 	// Wyœwietlacz LCD 2x16 znaków
  99:main.c        **** 	osCreateProcess (ProcLCD2x16, stack_LCD2x16, STACK_SIZE_LCD2X16, &pid_lcd2x16, 3, NULL, &error);
 100:main.c        **** 	osStartProcess (pid_lcd2x16, &error);
 101:main.c        **** 
 102:main.c        **** 	// Inicjalizacja joystick'a.
 103:main.c        **** 	initKeyProc ();
 104:main.c        **** 
 105:main.c        **** 	// Reszta procesu g³ównego - obs³uga mp3.
 106:main.c        **** 	ProcRest (0);
 107:main.c        **** 
 108:main.c        **** 	// Zakoñczenie procesów.
 109:main.c        **** 	osDeleteProcess ();
 110:main.c        **** }
 111:main.c        **** 
 112:main.c        **** /*
 113:main.c        ****  * Wyœwietlanie sta³ego tekstu na wyœwietlaczu LCD 2 x 16 - p³ytka podstawowa.
 114:main.c        ****  */
 115:main.c        **** static void ProcLCD2x16 (void* arg)
 116:main.c        **** {
 117:main.c        **** 	WyswietlTekstNaLcd ();
 118:main.c        **** }
 119:main.c        **** 
 120:main.c        **** /*
 121:main.c        ****  * Funkcja przekazuj¹ca typ b³êdu inicjalizacji karty SD w sposób bardziej zrozumia³y.
 122:main.c        ****  */
 123:main.c        **** static char* KomunikatInicjalizacji (FRESULT komunikat)
 124:main.c        **** {
 125:main.c        **** 	switch (komunikat)
 126:main.c        **** 	{
 127:main.c        **** 	case 0:
 128:main.c        **** 		return "FR_OK";
 129:main.c        **** 	case 1:
 130:main.c        **** 		return "FR_DISK_ERR";
 131:main.c        **** 	case 2:
 132:main.c        **** 		return "FR_NOT_READY";
 133:main.c        **** 	case 3:
 134:main.c        **** 		return "FR_NO_FILE";
 135:main.c        **** 	case 4:
 136:main.c        **** 		return "FR_NO_PATH";
ARM GAS  /cygdrive/c/DOCUME~1/mkwapisz/LOCALS~1/Temp/ccKuhkNd.s 			page 10


 137:main.c        **** 	case 5:
 138:main.c        **** 		return "FR_NOT_OPENED";
 139:main.c        **** 	case 6:
 140:main.c        **** 		return "FR_NOT_ENABLED";
 141:main.c        **** 	case 7:
 142:main.c        **** 		return "FR_NO_FILESYSTEM";
 143:main.c        **** 	default:
 144:main.c        **** 		return "";
 145:main.c        **** 	}
 146:main.c        **** }
 147:main.c        **** 
 148:main.c        **** /*
 149:main.c        ****  * Pozosta³e procesy odpowiadaj¹ce za obs³ugê odtwarzacza - wyœwietlanie menu, obs³uga joysticka, o
 150:main.c        ****  */
 151:main.c        **** static void ProcRest (void *arg)
 152:main.c        **** {
 153:main.c        **** 	int menuGlowne = 0;
 154:main.c        **** 	int niepowodzenie = 0;
 155:main.c        **** 
 156:main.c        **** 	//eaInit ();
 157:main.c        **** 
 158:main.c        **** 	PlayerStatus status;
 159:main.c        **** 	status = Player_Stoped;
 160:main.c        **** 
 161:main.c        **** 	lcdInit ();
 162:main.c        **** 	lcdColor (0x00, 0xff);
 163:main.c        **** 	lcdClrscr ();
 164:main.c        **** 
 165:main.c        **** 	WyswietlTekstNaLCD128x128 ("Inicjalizacja", 1);
 166:main.c        **** 	WyswietlTekstNaLCD128x128_L ("Karty SD", 1, 0);
 167:main.c        **** 
 168:main.c        **** 	osSleep (200);
 169:main.c        **** 	// Inicjalizacja Karty.
 170:main.c        **** 	do
 171:main.c        **** 	{
 172:main.c        **** 		wynikInicjalizacjiSd = pf_mount (&fatfs);
 173:main.c        **** 		osSleep (25);
 174:main.c        **** 
 175:main.c        **** 		if (wynikInicjalizacjiSd != FR_OK)
 176:main.c        **** 		{
 177:main.c        **** 			niepowodzenie += 1;
 178:main.c        **** 		}
 179:main.c        **** 
 180:main.c        **** 		kolorDiody = niepowodzenie % 3;
 181:main.c        **** 		ZapalajDiode (kolorDiody, 0);
 182:main.c        **** 
 183:main.c        **** 	} while (niepowodzenie < 90 && wynikInicjalizacjiSd != FR_OK);
 184:main.c        **** 
 185:main.c        **** 	if (wynikInicjalizacjiSd == FR_OK)
 186:main.c        **** 	{
 187:main.c        **** 		kolorDiody = 2;
 188:main.c        **** 		WyswietlTekstNaLCD128x128_L ("Powodzenie.", 2, 0);
 189:main.c        **** 
 190:main.c        **** 		filesList ("/", listaPlikow); // stwórz liste plików
 191:main.c        **** 	} else
 192:main.c        **** 	{
 193:main.c        **** 		kolorDiody = 1;
ARM GAS  /cygdrive/c/DOCUME~1/mkwapisz/LOCALS~1/Temp/ccKuhkNd.s 			page 11


 194:main.c        **** 		WyswietlTekstNaLCD128x128_L (KomunikatInicjalizacji (wynikInicjalizacjiSd), 2, 0);
 195:main.c        **** 	}
 196:main.c        **** 
 197:main.c        **** 	ZapalajDiode (kolorDiody, 0);
 198:main.c        **** 
 199:main.c        **** 	while (wynikInicjalizacjiSd == FR_OK)
 200:main.c        **** 	{
 201:main.c        **** 		tU8 ruchJoysticka = checkKey ();
 202:main.c        **** 
 203:main.c        **** 		if (ruchJoysticka != KEY_NOTHING)
 204:main.c        **** 		{
 205:main.c        **** 			switch (ruchJoysticka)
 206:main.c        **** 			{
 207:main.c        **** 			case KEY_UP:
 208:main.c        **** 				menuGlowne = 1;
 209:main.c        **** 				ZapalajDiode (0, 0);
 210:main.c        **** 				break;
 211:main.c        **** 
 212:main.c        **** 			case KEY_DOWN:
 213:main.c        **** 				menuGlowne = 0;
 214:main.c        **** 				ZapalajDiode (1, 0);
 215:main.c        **** 				break;
 216:main.c        **** 
 217:main.c        **** 			case KEY_RIGHT:
 218:main.c        **** 				if (menuGlowne == 1)
 219:main.c        **** 				{
 220:main.c        **** 					ZapalajDiode (4, 0);
 221:main.c        **** 					OdtwarzajDzwiek ();
 222:main.c        **** 				}
 223:main.c        **** 				break;
 224:main.c        **** 			}
 225:main.c        **** 			WyswietlMenuGlowne (menuGlowne);
 226:main.c        **** 		}
 227:main.c        **** 		osSleep (10);
 228:main.c        **** 	}
 229:main.c        **** }
 230:main.c        **** 
 231:main.c        **** /*
 232:main.c        ****  * Funkcja inicjalizuj¹ca odtwarzanie dŸwiêku.
 233:main.c        ****  */
 234:main.c        **** static void OdtwarzajDzwiek ()
 235:main.c        **** {
 236:main.c        **** 	tU32 cnt = 0;
 237:main.c        **** 	tU32 i;
 238:main.c        **** 
 239:main.c        **** 	for (i = 0; i < 4; i++)
 240:main.c        **** 	{
 241:main.c        **** 		ZapalajDiode (i, 0);
 242:main.c        **** 		osSleep (75);
 243:main.c        **** 	}
 244:main.c        **** 
 245:main.c        **** 	IODIR |= 0x00000380;
 246:main.c        **** 	IOCLR = 0x00000380;
 247:main.c        **** 
 248:main.c        **** 	//Initialize DAC: AOUT = P0.25
 249:main.c        **** 	PINSEL1 &= ~0x000C0000;
 250:main.c        **** 	PINSEL1 |= 0x00080000;
ARM GAS  /cygdrive/c/DOCUME~1/mkwapisz/LOCALS~1/Temp/ccKuhkNd.s 			page 12


 251:main.c        **** 
 252:main.c        **** 	while (cnt++ < 0xF890)
 253:main.c        **** 	{
 254:main.c        **** 		tS32 val;
 255:main.c        **** 
 256:main.c        **** 		val = startupSound[cnt] - 128;
 257:main.c        **** 		val = val * 2;
 258:main.c        **** 		if (val > 127)
 259:main.c        **** 		{
 260:main.c        **** 			val = 127;
 261:main.c        **** 		} else if (val < -127)
 262:main.c        **** 		{
 263:main.c        **** 			val = -127;
 264:main.c        **** 		}
 265:main.c        **** 
 266:main.c        **** 		DACR = ((val + 128) << 8) | //actual value to output
 267:main.c        **** 				(1 << 16); //BIAS = 1, 2.5uS settling time
 268:main.c        **** 
 269:main.c        **** 		//delay 125 us = 850 for 8kHz, 600 for 11 kHz
 270:main.c        **** 		for (i = 0; i < 850; i++)
 271:main.c        **** 		{
 272:main.c        **** 			asm volatile (" nop");
 273:main.c        **** 		}
 274:main.c        **** 	}
 275:main.c        **** }
 276:main.c        **** 
 277:main.c        **** /*
 278:main.c        ****  * Patrz funckja - WyswietlTekstNaLCD128x128 (char *s, int linia)
 279:main.c        ****  */
 280:main.c        **** static void WyswietlTekstNaLCD128x128 (char *s, int czysc)
 281:main.c        **** {
 282:main.c        **** 	WyswietlTekstNaLCD128x128_L (s, 0, czysc);
 283:main.c        **** }
 284:main.c        **** 
 285:main.c        **** /*
 286:main.c        ****  * Wyœwietlanie tekstu na LCD 128 x 128 - p³ytka dodatkowa.
 287:main.c        ****  *
 288:main.c        ****  * Parametry:
 289:main.c        ****  * - s (char *) - uchwyt do ci¹gu tekstowego do wyœwietlenia.
 290:main.c        ****  * - linia - okreœla w której linii ma pojawiæ siê tekst.
 291:main.c        ****  */
 292:main.c        **** static void WyswietlTekstNaLCD128x128_L (char *s, int linia, int czysc)
 293:main.c        **** {
 294:main.c        **** 	if (czysc == TRUE)
 295:main.c        **** 	{
 296:main.c        **** 		lcdClrscr ();
 297:main.c        **** 	}
 298:main.c        **** 
 299:main.c        **** 	lcdGotoxy (0, linia * 25);
 300:main.c        **** 	lcdPuts (s);
 301:main.c        **** }
 302:main.c        **** 
 303:main.c        **** /*
 304:main.c        ****  * Wyœwietlenie odpowiedniego tekstu menu na ekranie LCD dodatkowym. 
 305:main.c        ****  *
 306:main.c        ****  * Parametry:
 307:main.c        ****  * - nrTekstu (int) - okreœla typ tekstu jaki ma siê wyœwietliæ (Lista Plików | Obs³uga Odtwarzania
ARM GAS  /cygdrive/c/DOCUME~1/mkwapisz/LOCALS~1/Temp/ccKuhkNd.s 			page 13


 308:main.c        ****  */
 309:main.c        **** static void WyswietlMenuGlowne (int nrTekstu)
 310:main.c        **** {
 311:main.c        **** 	int i;
 312:main.c        **** 
 313:main.c        **** 	//lcdInit ();
 314:main.c        **** 	//lcdColor (0x00, 0xff);
 315:main.c        **** 	//lcdClrscr ();
 316:main.c        **** 
 317:main.c        **** 	switch (nrTekstu)
 318:main.c        **** 	{
 319:main.c        **** 	case 0:
 320:main.c        **** 
 321:main.c        **** 		for (i = 0; i < 1; ++i)
 322:main.c        **** 		{
 323:main.c        **** 			lcdGotoxy (0, 30);
 324:main.c        **** 			char nazwa[12];
 325:main.c        **** 			strncpy (nazwa, &listaPlikow[i * 12], 12);
 326:main.c        **** 
 327:main.c        **** 			if (i == 0)
 328:main.c        **** 			{
 329:main.c        **** 				WyswietlTekstNaLCD128x128_L (nazwa, i, TRUE);
 330:main.c        **** 			} else
 331:main.c        **** 			{
 332:main.c        **** 				WyswietlTekstNaLCD128x128_L (nazwa, i, FALSE);
 333:main.c        **** 			}
 334:main.c        **** 		}
 335:main.c        **** 
 336:main.c        **** 		break;
 337:main.c        **** 
 338:main.c        **** 	case 1:
 339:main.c        **** 		WyswietlTekstNaLCD128x128_L ("Odtwarzanie - P", 1, TRUE);
 340:main.c        **** 		WyswietlTekstNaLCD128x128_L ("Zatrzymanie - L", 2, FALSE);
 341:main.c        **** 		break;
 342:main.c        **** 
 343:main.c        **** 	}
 344:main.c        **** }
 345:main.c        **** 
 346:main.c        **** /*
 347:main.c        ****  * Wyœwietlanie komunikatu podczas odtwarzania.
 348:main.c        ****  *
 349:main.c        ****  * Parametry:
 350:main.c        ****  * - nrTekstu (int) - okreœla typ tekstu jaki ma siê wyœwietliæ (Pauza | Odtwarzanie)
 351:main.c        ****  */
 352:main.c        **** static void WyswietlOdtwarzanie (int nrTekstu)
 353:main.c        **** {
 354:main.c        **** 	//lcdInit ();
 355:main.c        **** 	//lcdColor (0x00, 0xff);
 356:main.c        **** 	//lcdClrscr ();
 357:main.c        **** 
 358:main.c        **** 	switch (nrTekstu)
 359:main.c        **** 	{
 360:main.c        **** 	case 0:
 361:main.c        **** 		lcdGotoxy (0, 30);
 362:main.c        **** 		lcdPuts ("Pauza");
 363:main.c        **** 		break;
 364:main.c        **** 
ARM GAS  /cygdrive/c/DOCUME~1/mkwapisz/LOCALS~1/Temp/ccKuhkNd.s 			page 14


 365:main.c        **** 	case 1:
 366:main.c        **** 		lcdGotoxy (0, 30);
 367:main.c        **** 		lcdPuts ("Odtwarzanie");
 368:main.c        **** 		break;
 369:main.c        **** 
 370:main.c        **** 	}
 371:main.c        **** }
 372:main.c        **** 
 373:main.c        **** /*****************************************************************************
 374:main.c        ****  *
 375:main.c        ****  * Description:
 376:main.c        ****  *    The timer tick entry function that is called once every timer tick
 377:main.c        ****  *    interrupt in the RTOS. Observe that any processing in this
 378:main.c        ****  *    function must be kept as short as possible since this function
 379:main.c        ****  *    execute in interrupt context.
 380:main.c        ****  *
 381:main.c        ****  * Params:
 382:main.c        ****  *    [in] elapsedTime - The number of elapsed milliseconds since last call.
 383:main.c        ****  *
 384:main.c        ****  ****************************************************************************/
 385:main.c        **** void appTick (tU32 elapsedTime)
 386:main.c        **** {
 267              		.loc 2 386 0
 268              	.LVL22:
 387:main.c        **** 	msClock += elapsedTime;
 269              		.loc 2 387 0
 270 0100 024A     		ldr	r2, .L41
 271 0102 1368     		ldr	r3, [r2]
 272 0104 1B18     		add	r3, r3, r0
 273              		.loc 2 386 0
 274              		@ lr needed for prologue
 275              		.loc 2 387 0
 276 0106 1360     		str	r3, [r2]
 388:main.c        **** }
 277              		.loc 2 388 0
 278              		@ sp needed for prologue
 279 0108 7047     		bx	lr
 280              	.L42:
 281 010a 0000     		.align	2
 282              	.L41:
 283 010c 00000000 		.word	msClock
 284              	.LFE22:
 285              		.size	appTick, .-appTick
 286              		.align	2
 287              		.global	main
 288              		.code 16
 289              		.thumb_func
 290              		.type	main, %function
 291              	main:
 292              	.LFB12:
 293              		.loc 2 73 0
 294 0110 30B5     		push	{r4, r5, lr}
 295              	.LCFI3:
 296              		.loc 2 78 0
 297 0112 124A     		ldr	r2, .L45
 298 0114 1368     		ldr	r3, [r2]
 299 0116 8021     		mov	r1, #128
ARM GAS  /cygdrive/c/DOCUME~1/mkwapisz/LOCALS~1/Temp/ccKuhkNd.s 			page 15


 300 0118 0B43     		orr	r3, r3, r1
 301 011a 1360     		str	r3, [r2]
 302              		.loc 2 79 0
 303 011c 104B     		ldr	r3, .L45+4
 304              		.loc 2 73 0
 305 011e 84B0     		sub	sp, sp, #16
 306              	.LCFI4:
 307              		.loc 2 79 0
 308 0120 1960     		str	r1, [r3]
 309              		.loc 2 81 0
 310 0122 FFF7FEFF 		bl	osInit
 311              		.loc 2 83 0
 312 0126 6D46     		mov	r5, sp
 313 0128 0123     		mov	r3, #1
 314 012a 0E35     		add	r5, r5, #14
 315 012c 0093     		str	r3, [sp]
 316 012e 6C46     		mov	r4, sp
 317 0130 0023     		mov	r3, #0
 318 0132 C822     		mov	r2, #200
 319 0134 5200     		lsl	r2, r2, #1
 320 0136 0193     		str	r3, [sp, #4]
 321 0138 0F34     		add	r4, r4, #15
 322 013a 2B1C     		mov	r3, r5
 323 013c 0948     		ldr	r0, .L45+8
 324 013e 0A49     		ldr	r1, .L45+12
 325 0140 0294     		str	r4, [sp, #8]
 326 0142 FFF7FEFF 		bl	osCreateProcess
 327              	.LVL23:
 328              		.loc 2 84 0
 329 0146 2878     		ldrb	r0, [r5]
 330 0148 211C     		mov	r1, r4
 331 014a FFF7FEFF 		bl	osStartProcess
 332              		.loc 2 86 0
 333 014e FFF7FEFF 		bl	osStart
 334              		.loc 2 89 0
 335 0152 0020     		mov	r0, #0
 336 0154 04B0     		add	sp, sp, #16
 337              		@ sp needed for prologue
 338 0156 30BC     		pop	{r4, r5}
 339 0158 02BC     		pop	{r1}
 340 015a 0847     		bx	r1
 341              	.L46:
 342              		.align	2
 343              	.L45:
 344 015c 088002E0 		.word	-536707064
 345 0160 048002E0 		.word	-536707068
 346 0164 00000000 		.word	ProcMain
 347 0168 09000000 		.word	stack_Main
 348              	.LFE12:
 349              		.size	main, .-main
 350              		.align	2
 351              		.code 16
 352              		.thumb_func
 353              		.type	ZapalajDiode, %function
 354              	ZapalajDiode:
 355              	.LFB11:
 356              		.file 3 "testRGB.c"
ARM GAS  /cygdrive/c/DOCUME~1/mkwapisz/LOCALS~1/Temp/ccKuhkNd.s 			page 16


   1:testRGB.c     **** /******************************************************************************
   2:testRGB.c     ****  *
   3:testRGB.c     ****  * Copyright:
   4:testRGB.c     ****  *    (C) 2000 - 2005 Embedded Artists AB
   5:testRGB.c     ****  *
   6:testRGB.c     ****  *****************************************************************************/
   7:testRGB.c     **** 
   8:testRGB.c     **** #include "../pre_emptive_os/api/osapi.h"
   9:testRGB.c     **** #include "../pre_emptive_os/api/general.h"
  10:testRGB.c     **** #include <printf_P.h>
  11:testRGB.c     **** #include <lpc2xxx.h>
  12:testRGB.c     **** 
  13:testRGB.c     **** //extern tU8 xbeePresent;
  14:testRGB.c     **** 
  15:testRGB.c     **** /*****************************************************************************
  16:testRGB.c     ****  *
  17:testRGB.c     ****  * Description:
  18:testRGB.c     ****  *    A process entry function. 
  19:testRGB.c     ****  *
  20:testRGB.c     ****  ****************************************************************************/
  21:testRGB.c     **** 
  22:testRGB.c     **** static tU8 inicjalizacjaZakonczona = 0;
  23:testRGB.c     **** /*
  24:testRGB.c     ****  * 0x04 - czerwona
  25:testRGB.c     ****  * 0x10 - niebieska
  26:testRGB.c     ****  * 0x40 - zielona
  27:testRGB.c     ****  */
  28:testRGB.c     **** static void ZapalajDiode (tU8 kolor, int ifInit)
  29:testRGB.c     **** {
 357              		.loc 3 29 0
 358 016c 10B5     		push	{r4, lr}
 359              	.LCFI5:
 360              	.LVL24:
 361              		.loc 3 29 0
 362 016e 0006     		lsl	r0, r0, #24
 363              	.LVL25:
 364 0170 0C1C     		mov	r4, r1
 365 0172 000E     		lsr	r0, r0, #24
 366              	.LVL26:
  30:testRGB.c     **** 	if (ifInit == 0)
 367              		.loc 3 30 0
 368 0174 0029     		cmp	r1, #0
 369 0176 25D1     		bne	.L48
  31:testRGB.c     **** 	{
  32:testRGB.c     **** 		PINSEL0 &= 0xfff03fff; //Enable PWM2 on P0.7, PWM4 on P0.8, and PWM6 on P0.9
 370              		.loc 3 32 0
 371 0178 3249     		ldr	r1, .L61
 372              	.LVL27:
 373 017a 334A     		ldr	r2, .L61+4
 374 017c 0B68     		ldr	r3, [r1]
 375 017e 1340     		and	r3, r3, r2
 376 0180 0B60     		str	r3, [r1]
  33:testRGB.c     **** 		PINSEL0 |= 0x000a8000; //Enable PWM2 on P0.7, PWM4 on P0.8, and PWM6 on P0.9
 377              		.loc 3 33 0
 378 0182 A823     		mov	r3, #168
 379 0184 0A68     		ldr	r2, [r1]
 380 0186 1B03     		lsl	r3, r3, #12
ARM GAS  /cygdrive/c/DOCUME~1/mkwapisz/LOCALS~1/Temp/ccKuhkNd.s 			page 17


 381 0188 1A43     		orr	r2, r2, r3
  34:testRGB.c     **** 
  35:testRGB.c     **** 		//PULSE WIDTH MODULATION INIT*********************************************
  36:testRGB.c     **** 		PWM_PR = 0x00; // Prescale Register
 382              		.loc 3 36 0
 383 018a 304B     		ldr	r3, .L61+8
 384              		.loc 3 33 0
 385 018c 0A60     		str	r2, [r1]
 386              		.loc 3 36 0
 387 018e 1C60     		str	r4, [r3]
  37:testRGB.c     **** 		PWM_MCR = 0x02; // Match Control Register
 388              		.loc 3 37 0
 389 0190 0222     		mov	r2, #2
 390 0192 0833     		add	r3, r3, #8
 391 0194 1A60     		str	r2, [r3]
  38:testRGB.c     **** 		PWM_MR0 = 0x1000; // TOTAL PERIODTID   T
 392              		.loc 3 38 0
 393 0196 2E4A     		ldr	r2, .L61+12
 394 0198 8023     		mov	r3, #128
 395 019a 5B01     		lsl	r3, r3, #5
 396 019c 1360     		str	r3, [r2]
  39:testRGB.c     **** 		PWM_MR2 = 0x0000; // HÖG SIGNAL        t
 397              		.loc 3 39 0
 398 019e 2D4B     		ldr	r3, .L61+16
 399 01a0 1C60     		str	r4, [r3]
  40:testRGB.c     **** 		PWM_MR4 = 0x0000; // HÖG SIGNAL        t
 400              		.loc 3 40 0
 401 01a2 2033     		add	r3, r3, #32
 402 01a4 1C60     		str	r4, [r3]
  41:testRGB.c     **** 		PWM_MR6 = 0x0000; // HÖG SIGNAL        t
 403              		.loc 3 41 0
 404 01a6 0833     		add	r3, r3, #8
 405 01a8 1C60     		str	r4, [r3]
  42:testRGB.c     **** 		PWM_LER = 0x55; // Latch Enable Register
 406              		.loc 3 42 0
 407 01aa 5522     		mov	r2, #85
 408 01ac 0833     		add	r3, r3, #8
 409 01ae 1A60     		str	r2, [r3]
  43:testRGB.c     **** 		PWM_PCR = 0x5400; // Prescale Counter Register PWMENA2, PWMENA4, PWMENA6
 410              		.loc 3 43 0
 411 01b0 294A     		ldr	r2, .L61+20
 412 01b2 A823     		mov	r3, #168
 413 01b4 DB01     		lsl	r3, r3, #7
 414 01b6 1360     		str	r3, [r2]
  44:testRGB.c     **** 		PWM_TCR = 0x09; // Counter Enable och PWM Enable
 415              		.loc 3 44 0
 416 01b8 284B     		ldr	r3, .L61+24
 417 01ba 0922     		mov	r2, #9
 418 01bc 1A60     		str	r2, [r3]
  45:testRGB.c     **** 		//************************************************************************
  46:testRGB.c     **** 
  47:testRGB.c     **** 		inicjalizacjaZakonczona = 1;
 419              		.loc 3 47 0
 420 01be 284A     		ldr	r2, .L61+28
 421 01c0 0123     		mov	r3, #1
 422 01c2 1370     		strb	r3, [r2]
 423              	.LVL28:
ARM GAS  /cygdrive/c/DOCUME~1/mkwapisz/LOCALS~1/Temp/ccKuhkNd.s 			page 18


 424              	.L48:
  48:testRGB.c     **** 	}
  49:testRGB.c     **** 
  50:testRGB.c     **** 	switch (kolor)
 425              		.loc 3 50 0
 426 01c4 0228     		cmp	r0, #2
 427 01c6 20D0     		beq	.L52
 428 01c8 0228     		cmp	r0, #2
 429 01ca 12D8     		bhi	.L55
 430 01cc 0128     		cmp	r0, #1
 431 01ce 2DD0     		beq	.L60
 432              	.L50:
  51:testRGB.c     **** 	{
  52:testRGB.c     **** 	case 1: //czerwony
  53:testRGB.c     **** 		PWM_MR2 = 100;
  54:testRGB.c     **** 		PWM_MR4 = 0;
  55:testRGB.c     **** 		PWM_MR6 = 0;
  56:testRGB.c     **** 		PWM_LER = 0x01;
  57:testRGB.c     **** 		break;
  58:testRGB.c     **** 
  59:testRGB.c     **** 	case 2: //zielony
  60:testRGB.c     **** 		PWM_MR2 = 0;
  61:testRGB.c     **** 		PWM_MR4 = 0;
  62:testRGB.c     **** 		PWM_MR6 = 100;
  63:testRGB.c     **** 		PWM_LER = 0x01;
  64:testRGB.c     **** 		break;
  65:testRGB.c     **** 
  66:testRGB.c     **** 	case 3: // ¿ó³ty
  67:testRGB.c     **** 		PWM_MR2 = 100;
  68:testRGB.c     **** 		PWM_MR4 = 0;
  69:testRGB.c     **** 		PWM_MR6 = 100;
  70:testRGB.c     **** 		PWM_LER = 0x01;
  71:testRGB.c     **** 		break;
  72:testRGB.c     **** 
  73:testRGB.c     **** 	case 4:
  74:testRGB.c     **** 		PWM_MR2 = 75;
  75:testRGB.c     **** 		PWM_MR4 = 0;
  76:testRGB.c     **** 		PWM_MR6 = 25;
  77:testRGB.c     **** 		PWM_LER = 0x01;
  78:testRGB.c     **** 		break;
  79:testRGB.c     **** 
  80:testRGB.c     **** 	default:
  81:testRGB.c     **** 		PWM_MR2 = 0;
 433              		.loc 3 81 0
 434 01d0 204B     		ldr	r3, .L61+16
 435 01d2 0021     		mov	r1, #0
 436 01d4 1960     		str	r1, [r3]
  82:testRGB.c     **** 		PWM_MR4 = 100;
 437              		.loc 3 82 0
 438 01d6 6422     		mov	r2, #100
 439              	.L59:
 440 01d8 2033     		add	r3, r3, #32
 441 01da 1A60     		str	r2, [r3]
  83:testRGB.c     **** 		PWM_MR6 = 0;
 442              		.loc 3 83 0
 443 01dc 0833     		add	r3, r3, #8
 444 01de 1960     		str	r1, [r3]
ARM GAS  /cygdrive/c/DOCUME~1/mkwapisz/LOCALS~1/Temp/ccKuhkNd.s 			page 19


  84:testRGB.c     **** 		PWM_LER = 0x01;
 445              		.loc 3 84 0
 446 01e0 0122     		mov	r2, #1
 447 01e2 0833     		add	r3, r3, #8
 448 01e4 1A60     		str	r2, [r3]
 449              	.LVL29:
 450              	.L56:
  85:testRGB.c     **** 	}
  86:testRGB.c     **** 
  87:testRGB.c     **** 	osSleep (10);
 451              		.loc 3 87 0
 452 01e6 0A20     		mov	r0, #10
 453              	.LVL30:
 454 01e8 FFF7FEFF 		bl	osSleep
  88:testRGB.c     **** }
 455              		.loc 3 88 0
 456              		@ sp needed for prologue
 457              	.LVL31:
 458 01ec 10BC     		pop	{r4}
 459 01ee 01BC     		pop	{r0}
 460 01f0 0047     		bx	r0
 461              	.LVL32:
 462              	.L55:
 463              		.loc 3 50 0
 464 01f2 0328     		cmp	r0, #3
 465 01f4 15D0     		beq	.L53
 466 01f6 0428     		cmp	r0, #4
 467 01f8 EAD1     		bne	.L50
 468              		.loc 3 74 0
 469 01fa 164B     		ldr	r3, .L61+16
 470 01fc 4B22     		mov	r2, #75
 471 01fe 1A60     		str	r2, [r3]
 472              		.loc 3 75 0
 473 0200 0022     		mov	r2, #0
 474 0202 2033     		add	r3, r3, #32
 475 0204 1A60     		str	r2, [r3]
 476              		.loc 3 76 0
 477 0206 1922     		mov	r2, #25
 478 0208 05E0     		b	.L58
 479              	.L52:
 480              		.loc 3 60 0
 481 020a 124B     		ldr	r3, .L61+16
 482 020c 0022     		mov	r2, #0
 483 020e 1A60     		str	r2, [r3]
 484              		.loc 3 61 0
 485 0210 2033     		add	r3, r3, #32
 486 0212 1A60     		str	r2, [r3]
 487              		.loc 3 62 0
 488 0214 6422     		mov	r2, #100
 489              	.L58:
 490              		.loc 3 76 0
 491 0216 0833     		add	r3, r3, #8
 492 0218 1A60     		str	r2, [r3]
 493              		.loc 3 77 0
 494 021a 0122     		mov	r2, #1
 495 021c 0833     		add	r3, r3, #8
 496 021e 1A60     		str	r2, [r3]
ARM GAS  /cygdrive/c/DOCUME~1/mkwapisz/LOCALS~1/Temp/ccKuhkNd.s 			page 20


 497 0220 E1E7     		b	.L56
 498              	.L53:
 499              		.loc 3 67 0
 500 0222 0C4B     		ldr	r3, .L61+16
 501 0224 6421     		mov	r1, #100
 502              		.loc 3 68 0
 503 0226 0022     		mov	r2, #0
 504              		.loc 3 67 0
 505 0228 1960     		str	r1, [r3]
 506 022a D5E7     		b	.L59
 507              	.LVL33:
 508              	.L60:
 509              		.loc 3 53 0
 510 022c 094B     		ldr	r3, .L61+16
 511 022e 6422     		mov	r2, #100
 512 0230 1A60     		str	r2, [r3]
 513              		.loc 3 54 0
 514 0232 0022     		mov	r2, #0
 515 0234 2033     		add	r3, r3, #32
 516 0236 1A60     		str	r2, [r3]
 517              		.loc 3 55 0
 518 0238 0833     		add	r3, r3, #8
 519 023a 1A60     		str	r2, [r3]
 520              		.loc 3 56 0
 521 023c 0833     		add	r3, r3, #8
 522 023e 1860     		str	r0, [r3]
 523 0240 D1E7     		b	.L56
 524              	.L62:
 525 0242 0000     		.align	2
 526              	.L61:
 527 0244 00C002E0 		.word	-536690688
 528 0248 FF3FF0FF 		.word	-1032193
 529 024c 0C4001E0 		.word	-536788980
 530 0250 184001E0 		.word	-536788968
 531 0254 204001E0 		.word	-536788960
 532 0258 4C4001E0 		.word	-536788916
 533 025c 044001E0 		.word	-536788988
 534 0260 08000000 		.word	inicjalizacjaZakonczona
 535              	.LFE11:
 536              		.size	ZapalajDiode, .-ZapalajDiode
 537              		.align	2
 538              		.code 16
 539              		.thumb_func
 540              		.type	WyczyscEkran, %function
 541              	WyczyscEkran:
 542              	.LFB7:
 108:testLcd.c     **** 
 109:testLcd.c     **** /*
 110:testLcd.c     ****  * Funkcja czyszcz¹ca ekran wyœwietlacza.
 111:testLcd.c     ****  */
 112:testLcd.c     **** static void WyczyscEkran ()
 113:testLcd.c     **** {
 543              		.loc 1 113 0
 544 0264 00B5     		push	{lr}
 545              	.LCFI6:
 114:testLcd.c     **** 	WypiszZnakNaEkran (0, 0x01);
 546              		.loc 1 114 0
ARM GAS  /cygdrive/c/DOCUME~1/mkwapisz/LOCALS~1/Temp/ccKuhkNd.s 			page 21


 547 0266 0020     		mov	r0, #0
 548 0268 0121     		mov	r1, #1
 549 026a FFF7EFFE 		bl	WypiszZnakNaEkran
 115:testLcd.c     **** 	osSleep (50);
 550              		.loc 1 115 0
 551 026e 3220     		mov	r0, #50
 552 0270 FFF7FEFF 		bl	osSleep
 116:testLcd.c     **** }
 553              		.loc 1 116 0
 554              		@ sp needed for prologue
 555 0274 01BC     		pop	{r0}
 556 0276 0047     		bx	r0
 557              	.LFE7:
 558              		.size	WyczyscEkran, .-WyczyscEkran
 559              		.align	2
 560              		.code 16
 561              		.thumb_func
 562              		.type	PoczekajIWyczyscEkran, %function
 563              	PoczekajIWyczyscEkran:
 564              	.LFB8:
 117:testLcd.c     **** 
 118:testLcd.c     **** static void PoczekajIWyczyscEkran (int ileCzekac)
 119:testLcd.c     **** {
 565              		.loc 1 119 0
 566 0278 00B5     		push	{lr}
 567              	.LCFI7:
 568              	.LVL34:
 120:testLcd.c     **** 	//OpóŸnienie przed znikniêciem.
 121:testLcd.c     **** 	osSleep (ileCzekac);
 569              		.loc 1 121 0
 570 027a FFF7FEFF 		bl	osSleep
 571              	.LVL35:
 122:testLcd.c     **** 	//Wy³¹czenie podœwietlenia monitora przed wyczyszczeniem.
 123:testLcd.c     **** 	PodswietlEkran (FALSE);
 572              		.loc 1 123 0
 573 027e 0020     		mov	r0, #0
 574 0280 FFF7D2FE 		bl	PodswietlEkran
 124:testLcd.c     **** 
 125:testLcd.c     **** 	WyczyscEkran();
 575              		.loc 1 125 0
 576 0284 FFF7EEFF 		bl	WyczyscEkran
 126:testLcd.c     **** 
 127:testLcd.c     **** 	PodswietlEkran (TRUE);
 577              		.loc 1 127 0
 578 0288 0120     		mov	r0, #1
 579 028a FFF7CDFE 		bl	PodswietlEkran
 128:testLcd.c     **** }
 580              		.loc 1 128 0
 581              		@ sp needed for prologue
 582 028e 01BC     		pop	{r0}
 583 0290 0047     		bx	r0
 584              	.LFE8:
 585              		.size	PoczekajIWyczyscEkran, .-PoczekajIWyczyscEkran
 586              		.section	.rodata.str1.4,"aMS",%progbits,1
 587              		.align	2
 588              	.LC4:
 589 0080 2020204F 		.ascii	"   Odtwarzacz\000"
ARM GAS  /cygdrive/c/DOCUME~1/mkwapisz/LOCALS~1/Temp/ccKuhkNd.s 			page 22


 589      64747761 
 589      727A6163 
 589      7A00
 590 008e 0000     		.align	2
 591              	.LC6:
 592 0090 20202020 		.ascii	"       MP3\000"
 592      2020204D 
 592      503300
 593              		.text
 594 0292 0000     		.align	2
 595              		.code 16
 596              		.thumb_func
 597              		.type	ProcLCD2x16, %function
 598              	ProcLCD2x16:
 599              	.LFB14:
 600              		.loc 2 116 0
 601 0294 30B5     		push	{r4, r5, lr}
 602              	.LCFI8:
 603              	.LVL36:
 604              	.LBB8:
 605              	.LBB9:
 606              	.LBB10:
 607              	.LBB11:
 608              		.loc 1 22 0
 609 0296 304A     		ldr	r2, .L70
 610 0298 3049     		ldr	r1, .L70+4
 611 029a 1368     		ldr	r3, [r2]
 612 029c 0B43     		orr	r3, r3, r1
 613 029e 1360     		str	r3, [r2]
 614              		.loc 1 23 0
 615 02a0 2F4B     		ldr	r3, .L70+8
 616 02a2 1960     		str	r1, [r3]
 617              		.loc 1 25 0
 618 02a4 2F49     		ldr	r1, .L70+12
 619 02a6 8022     		mov	r2, #128
 620 02a8 0B68     		ldr	r3, [r1]
 621 02aa D203     		lsl	r2, r2, #15
 622              		.loc 1 26 0
 623 02ac 2E48     		ldr	r0, .L70+16
 624              	.LVL37:
 625              		.loc 1 25 0
 626 02ae 1343     		orr	r3, r3, r2
 627 02b0 0B60     		str	r3, [r1]
 628              		.loc 1 26 0
 629 02b2 0260     		str	r2, [r0]
 630              		.loc 1 28 0
 631 02b4 8023     		mov	r3, #128
 632 02b6 0A68     		ldr	r2, [r1]
 633 02b8 DB05     		lsl	r3, r3, #23
 634 02ba 1A43     		orr	r2, r2, r3
 635 02bc 0A60     		str	r2, [r1]
 636              		.loc 1 29 0
 637 02be 0360     		str	r3, [r0]
 638              	.LBE11:
 639              	.LBE10:
 129:testLcd.c     **** 
 130:testLcd.c     **** /*
ARM GAS  /cygdrive/c/DOCUME~1/mkwapisz/LOCALS~1/Temp/ccKuhkNd.s 			page 23


 131:testLcd.c     ****  * Przenosi kursor wyœwietlacza do nastêpnej linii.
 132:testLcd.c     ****  */
 133:testLcd.c     **** static void PrzejdzDoNastepnejLinii ()
 134:testLcd.c     **** {
 135:testLcd.c     **** 	WypiszZnakNaEkran (0, 0xC0);
 136:testLcd.c     **** 	delay37us ();
 137:testLcd.c     **** }
 138:testLcd.c     **** 
 139:testLcd.c     **** /*
 140:testLcd.c     ****  * Wyœwietlenie na ekranie LCD napisów.
 141:testLcd.c     ****  */
 142:testLcd.c     **** static void WyswietlTekstNaLcd (void)
 143:testLcd.c     **** {
 144:testLcd.c     **** 	initLCD ();
 145:testLcd.c     **** 	PoczekajIWyczyscEkran (1);
 640              		.loc 1 145 0
 641 02c0 0120     		mov	r0, #1
 642 02c2 FFF7D9FF 		bl	PoczekajIWyczyscEkran
 643 02c6 294D     		ldr	r5, .L70+20
 644 02c8 294C     		ldr	r4, .L70+24
 645              	.L68:
 146:testLcd.c     **** 
 147:testLcd.c     **** 	while (1)
 148:testLcd.c     **** 	{
 149:testLcd.c     **** 		WypiszZnakNaEkran (0, 0x30);
 646              		.loc 1 149 0
 647 02ca 3021     		mov	r1, #48
 648 02cc 0020     		mov	r0, #0
 649 02ce FFF7BDFE 		bl	WypiszZnakNaEkran
 150:testLcd.c     **** 		osSleep (1);
 650              		.loc 1 150 0
 651 02d2 0120     		mov	r0, #1
 652 02d4 FFF7FEFF 		bl	osSleep
 151:testLcd.c     **** 		WypiszZnakNaEkran (0, 0x30);
 653              		.loc 1 151 0
 654 02d8 0020     		mov	r0, #0
 655 02da 3021     		mov	r1, #48
 656 02dc FFF7B6FE 		bl	WypiszZnakNaEkran
 152:testLcd.c     **** 		delay37us ();
 657              		.loc 1 152 0
 658 02e0 FFF78EFE 		bl	delay37us
 153:testLcd.c     **** 		WypiszZnakNaEkran (0, 0x30);
 659              		.loc 1 153 0
 660 02e4 0020     		mov	r0, #0
 661 02e6 3021     		mov	r1, #48
 662 02e8 FFF7B0FE 		bl	WypiszZnakNaEkran
 154:testLcd.c     **** 		delay37us ();
 663              		.loc 1 154 0
 664 02ec FFF788FE 		bl	delay37us
 155:testLcd.c     **** 		WypiszZnakNaEkran (0, 0x38);
 665              		.loc 1 155 0
 666 02f0 0020     		mov	r0, #0
 667 02f2 3821     		mov	r1, #56
 668 02f4 FFF7AAFE 		bl	WypiszZnakNaEkran
 156:testLcd.c     **** 		delay37us ();
 669              		.loc 1 156 0
 670 02f8 FFF782FE 		bl	delay37us
ARM GAS  /cygdrive/c/DOCUME~1/mkwapisz/LOCALS~1/Temp/ccKuhkNd.s 			page 24


 157:testLcd.c     **** 
 158:testLcd.c     **** 		//display off
 159:testLcd.c     **** 		WypiszZnakNaEkran (0, 0x08);
 671              		.loc 1 159 0
 672 02fc 0020     		mov	r0, #0
 673 02fe 0821     		mov	r1, #8
 674 0300 FFF7A4FE 		bl	WypiszZnakNaEkran
 160:testLcd.c     **** 		delay37us ();
 675              		.loc 1 160 0
 676 0304 FFF77CFE 		bl	delay37us
 161:testLcd.c     **** 
 162:testLcd.c     **** 		WyczyscEkran ();
 677              		.loc 1 162 0
 678 0308 FFF7ACFF 		bl	WyczyscEkran
 163:testLcd.c     **** 
 164:testLcd.c     **** 		//display control set
 165:testLcd.c     **** 		WypiszZnakNaEkran (0, 0x06);
 679              		.loc 1 165 0
 680 030c 0621     		mov	r1, #6
 681 030e 0020     		mov	r0, #0
 682 0310 FFF79CFE 		bl	WypiszZnakNaEkran
 166:testLcd.c     **** 		osSleep (1);
 683              		.loc 1 166 0
 684 0314 0120     		mov	r0, #1
 685 0316 FFF7FEFF 		bl	osSleep
 167:testLcd.c     **** 
 168:testLcd.c     **** 		//display control set
 169:testLcd.c     **** 		WypiszZnakNaEkran (0, 0x0c);
 686              		.loc 1 169 0
 687 031a 0020     		mov	r0, #0
 688 031c 0C21     		mov	r1, #12
 689 031e FFF795FE 		bl	WypiszZnakNaEkran
 170:testLcd.c     **** 		delay37us ();
 690              		.loc 1 170 0
 691 0322 FFF76DFE 		bl	delay37us
 171:testLcd.c     **** 
 172:testLcd.c     **** 		//cursor home
 173:testLcd.c     **** 		WypiszZnakNaEkran (0, 0x02);
 692              		.loc 1 173 0
 693 0326 0221     		mov	r1, #2
 694 0328 0020     		mov	r0, #0
 695 032a FFF78FFE 		bl	WypiszZnakNaEkran
 174:testLcd.c     **** 		osSleep (1);
 696              		.loc 1 174 0
 697 032e 0120     		mov	r0, #1
 698 0330 FFF7FEFF 		bl	osSleep
 175:testLcd.c     **** 
 176:testLcd.c     **** 		WypiszCiag ("   Odtwarzacz");
 699              		.loc 1 176 0
 700 0334 281C     		mov	r0, r5
 701 0336 FFF7D1FE 		bl	WypiszCiag
 702              	.LBB12:
 703              	.LBB13:
 704              		.loc 1 135 0
 705 033a C021     		mov	r1, #192
 706 033c 0020     		mov	r0, #0
 707 033e FFF785FE 		bl	WypiszZnakNaEkran
ARM GAS  /cygdrive/c/DOCUME~1/mkwapisz/LOCALS~1/Temp/ccKuhkNd.s 			page 25


 708              		.loc 1 136 0
 709 0342 FFF75DFE 		bl	delay37us
 710              	.LBE13:
 711              	.LBE12:
 177:testLcd.c     **** 
 178:testLcd.c     **** 		PrzejdzDoNastepnejLinii ();
 179:testLcd.c     **** 
 180:testLcd.c     **** 		WypiszCiag ("       MP3");
 712              		.loc 1 180 0
 713 0346 201C     		mov	r0, r4
 714 0348 FFF7C8FE 		bl	WypiszCiag
 181:testLcd.c     **** 
 182:testLcd.c     **** 		PoczekajIWyczyscEkran (500);
 715              		.loc 1 182 0
 716 034c FA20     		mov	r0, #250
 717 034e 4000     		lsl	r0, r0, #1
 718 0350 FFF792FF 		bl	PoczekajIWyczyscEkran
 719 0354 B9E7     		b	.L68
 720              	.L71:
 721 0356 0000     		.align	2
 722              	.L70:
 723 0358 188002E0 		.word	-536707048
 724 035c 0000FF03 		.word	67043328
 725 0360 1C8002E0 		.word	-536707044
 726 0364 088002E0 		.word	-536707064
 727 0368 0C8002E0 		.word	-536707060
 728 036c 80000000 		.word	.LC4
 729 0370 90000000 		.word	.LC6
 730              	.LBE9:
 731              	.LBE8:
 732              	.LFE14:
 733              		.size	ProcLCD2x16, .-ProcLCD2x16
 734              		.align	2
 735              		.code 16
 736              		.thumb_func
 737              		.type	WyswietlTekstNaLCD128x128_L, %function
 738              	WyswietlTekstNaLCD128x128_L:
 739              	.LFB19:
 740              		.loc 2 293 0
 741 0374 30B5     		push	{r4, r5, lr}
 742              	.LCFI9:
 743              	.LVL38:
 744              		.loc 2 293 0
 745 0376 051C     		mov	r5, r0
 746 0378 0C1C     		mov	r4, r1
 747              		.loc 2 294 0
 748 037a 012A     		cmp	r2, #1
 749 037c 0CD0     		beq	.L76
 750              	.LVL39:
 751              	.L73:
 752              		.loc 2 299 0
 753 037e A100     		lsl	r1, r4, #2
 754 0380 0919     		add	r1, r1, r4
 755 0382 8B00     		lsl	r3, r1, #2
 756 0384 C918     		add	r1, r1, r3
 757 0386 0020     		mov	r0, #0
 758 0388 FFF7FEFF 		bl	lcdGotoxy
ARM GAS  /cygdrive/c/DOCUME~1/mkwapisz/LOCALS~1/Temp/ccKuhkNd.s 			page 26


 759              	.LVL40:
 760              		.loc 2 300 0
 761 038c 281C     		mov	r0, r5
 762 038e FFF7FEFF 		bl	lcdPuts
 763              		.loc 2 301 0
 764              		@ sp needed for prologue
 765              	.LVL41:
 766              	.LVL42:
 767 0392 30BC     		pop	{r4, r5}
 768 0394 01BC     		pop	{r0}
 769 0396 0047     		bx	r0
 770              	.LVL43:
 771              	.L76:
 772              		.loc 2 296 0
 773 0398 FFF7FEFF 		bl	lcdClrscr
 774              	.LVL44:
 775 039c EFE7     		b	.L73
 776              	.LFE19:
 777              		.size	WyswietlTekstNaLCD128x128_L, .-WyswietlTekstNaLCD128x128_L
 778              		.section	.rodata.str1.4
 779 009b 00       		.align	2
 780              	.LC12:
 781 009c 496E6963 		.ascii	"Inicjalizacja\000"
 781      6A616C69 
 781      7A61636A 
 781      6100
 782 00aa 0000     		.align	2
 783              	.LC14:
 784 00ac 4B617274 		.ascii	"Karty SD\000"
 784      79205344 
 784      00
 785              		.global	__modsi3
 786 00b5 000000   		.align	2
 787              	.LC19:
 788 00b8 506F776F 		.ascii	"Powodzenie.\000"
 788      647A656E 
 788      69652E00 
 789              		.align	2
 790              	.LC21:
 791 00c4 2F00     		.ascii	"/\000"
 792 00c6 0000     		.align	2
 793              	.LC25:
 794 00c8 46525F4E 		.ascii	"FR_NO_FILESYSTEM\000"
 794      4F5F4649 
 794      4C455359 
 794      5354454D 
 794      00
 795 00d9 000000   		.subsection	-1
 796              		.align	2
 797              	.LC27:
 798 0000 00       		.ascii	"\000"
 799 0001 000000   		.align	2
 800              	.LC29:
 801 0004 46525F4F 		.ascii	"FR_OK\000"
 801      4B00
 802 000a 0000     		.align	2
 803              	.LC31:
ARM GAS  /cygdrive/c/DOCUME~1/mkwapisz/LOCALS~1/Temp/ccKuhkNd.s 			page 27


 804 000c 46525F44 		.ascii	"FR_DISK_ERR\000"
 804      49534B5F 
 804      45525200 
 805              		.align	2
 806              	.LC33:
 807 0018 46525F4E 		.ascii	"FR_NOT_READY\000"
 807      4F545F52 
 807      45414459 
 807      00
 808 0025 000000   		.align	2
 809              	.LC35:
 810 0028 46525F4E 		.ascii	"FR_NO_FILE\000"
 810      4F5F4649 
 810      4C4500
 811 0033 00       		.align	2
 812              	.LC37:
 813 0034 46525F4E 		.ascii	"FR_NO_PATH\000"
 813      4F5F5041 
 813      544800
 814 003f 00       		.align	2
 815              	.LC39:
 816 0040 46525F4E 		.ascii	"FR_NOT_OPENED\000"
 816      4F545F4F 
 816      50454E45 
 816      4400
 817 004e 0000     		.align	2
 818              	.LC41:
 819 0050 46525F4E 		.ascii	"FR_NOT_ENABLED\000"
 819      4F545F45 
 819      4E41424C 
 819      454400
 820 005f 00       		.align	2
 821              	.LC45:
 822 0060 4F647477 		.ascii	"Odtwarzanie - P\000"
 822      61727A61 
 822      6E696520 
 822      2D205000 
 823              		.align	2
 824              	.LC47:
 825 0070 5A617472 		.ascii	"Zatrzymanie - L\000"
 825      7A796D61 
 825      6E696520 
 825      2D204C00 
 826              		.text
 827 039e 0000     		.align	2
 828              		.code 16
 829              		.thumb_func
 830              		.type	ProcMain, %function
 831              	ProcMain:
 832              	.LFB13:
 833              		.loc 2 95 0
 834 03a0 F0B5     		push	{r4, r5, r6, r7, lr}
 835              	.LCFI10:
 836 03a2 4746     		mov	r7, r8
 837 03a4 80B4     		push	{r7}
 838              	.LCFI11:
 839              	.LVL45:
ARM GAS  /cygdrive/c/DOCUME~1/mkwapisz/LOCALS~1/Temp/ccKuhkNd.s 			page 28


 840 03a6 87B0     		sub	sp, sp, #28
 841              	.LCFI12:
 842              		.loc 2 99 0
 843 03a8 884C     		ldr	r4, .L126
 844 03aa 0323     		mov	r3, #3
 845 03ac 0093     		str	r3, [sp]
 846 03ae 6D46     		mov	r5, sp
 847 03b0 0023     		mov	r3, #0
 848 03b2 8022     		mov	r2, #128
 849 03b4 1201     		lsl	r2, r2, #4
 850 03b6 1B35     		add	r5, r5, #27
 851 03b8 8548     		ldr	r0, .L126+4
 852              	.LVL46:
 853 03ba 8649     		ldr	r1, .L126+8
 854 03bc 0193     		str	r3, [sp, #4]
 855 03be 231C     		mov	r3, r4
 856 03c0 0295     		str	r5, [sp, #8]
 857 03c2 FFF7FEFF 		bl	osCreateProcess
 858              		.loc 2 100 0
 859 03c6 291C     		mov	r1, r5
 860 03c8 2078     		ldrb	r0, [r4]
 861 03ca FFF7FEFF 		bl	osStartProcess
 862              		.loc 2 103 0
 863 03ce FFF7FEFF 		bl	initKeyProc
 864              	.LBB27:
 865              	.LBB28:
 866              		.loc 2 161 0
 867 03d2 FFF7FEFF 		bl	lcdInit
 868              		.loc 2 162 0
 869 03d6 FF21     		mov	r1, #255
 870 03d8 0020     		mov	r0, #0
 871 03da FFF7FEFF 		bl	lcdColor
 872              		.loc 2 163 0
 873 03de FFF7FEFF 		bl	lcdClrscr
 874              	.LBB29:
 875              	.LBB30:
 876              		.loc 2 282 0
 877 03e2 7D48     		ldr	r0, .L126+12
 878 03e4 0021     		mov	r1, #0
 879 03e6 0122     		mov	r2, #1
 880 03e8 FFF7C4FF 		bl	WyswietlTekstNaLCD128x128_L
 881              	.LBE30:
 882              	.LBE29:
 883              		.loc 2 166 0
 884 03ec 0022     		mov	r2, #0
 885 03ee 7B48     		ldr	r0, .L126+16
 886 03f0 0121     		mov	r1, #1
 887 03f2 FFF7BFFF 		bl	WyswietlTekstNaLCD128x128_L
 888              		.loc 2 168 0
 889 03f6 C820     		mov	r0, #200
 890 03f8 FFF7FEFF 		bl	osSleep
 891 03fc 784A     		ldr	r2, .L126+20
 892 03fe 794F     		ldr	r7, .L126+24
 893 0400 794D     		ldr	r5, .L126+28
 894 0402 0024     		mov	r4, #0
 895              	.LVL47:
 896 0404 9046     		mov	r8, r2
ARM GAS  /cygdrive/c/DOCUME~1/mkwapisz/LOCALS~1/Temp/ccKuhkNd.s 			page 29


 897 0406 161C     		mov	r6, r2
 898              	.L78:
 899              	.LBE28:
 900              		.loc 2 172 0
 901 0408 381C     		mov	r0, r7
 902 040a FFF7FEFF 		bl	pf_mount
 903              	.LBB31:
 904 040e 4346     		mov	r3, r8
 905 0410 1860     		str	r0, [r3]
 906              		.loc 2 173 0
 907 0412 1920     		mov	r0, #25
 908 0414 FFF7FEFF 		bl	osSleep
 909              		.loc 2 175 0
 910 0418 4246     		mov	r2, r8
 911 041a 1368     		ldr	r3, [r2]
 912 041c 002B     		cmp	r3, #0
 913 041e 00D0     		beq	.L79
 914              		.loc 2 177 0
 915 0420 0134     		add	r4, r4, #1
 916              	.L79:
 917              		.loc 2 180 0
 918 0422 0321     		mov	r1, #3
 919 0424 201C     		mov	r0, r4
 920 0426 FFF7FEFF 		bl	__modsi3
 921 042a 2860     		str	r0, [r5]
 922              		.loc 2 181 0
 923 042c 0006     		lsl	r0, r0, #24
 924 042e 000E     		lsr	r0, r0, #24
 925 0430 0021     		mov	r1, #0
 926 0432 FFF79BFE 		bl	ZapalajDiode
 927              		.loc 2 183 0
 928 0436 592C     		cmp	r4, #89
 929 0438 00DD     		ble	.LCB847
 930 043a A0E0     		b	.L81	@long jump
 931              	.LCB847:
 932 043c 3368     		ldr	r3, [r6]
 933 043e 002B     		cmp	r3, #0
 934 0440 E2D1     		bne	.L78
 935              	.L83:
 936              		.loc 2 187 0
 937 0442 0223     		mov	r3, #2
 938              		.loc 2 188 0
 939 0444 6948     		ldr	r0, .L126+32
 940 0446 0221     		mov	r1, #2
 941              		.loc 2 187 0
 942 0448 2B60     		str	r3, [r5]
 943              		.loc 2 188 0
 944 044a 0022     		mov	r2, #0
 945 044c FFF792FF 		bl	WyswietlTekstNaLCD128x128_L
 946              		.loc 2 190 0
 947 0450 6748     		ldr	r0, .L126+36
 948 0452 6849     		ldr	r1, .L126+40
 949 0454 FFF7FEFF 		bl	filesList
 950              	.L85:
 951              		.loc 2 197 0
 952 0458 2878     		ldrb	r0, [r5]
 953 045a 0021     		mov	r1, #0
ARM GAS  /cygdrive/c/DOCUME~1/mkwapisz/LOCALS~1/Temp/ccKuhkNd.s 			page 30


 954 045c FFF786FE 		bl	ZapalajDiode
 955              		.loc 2 199 0
 956 0460 4246     		mov	r2, r8
 957 0462 1368     		ldr	r3, [r2]
 958 0464 002B     		cmp	r3, #0
 959 0466 67D1     		bne	.L97
 960 0468 634E     		ldr	r6, .L126+44
 961 046a 644F     		ldr	r7, .L126+48
 962 046c 0024     		mov	r4, #0
 963              	.LVL48:
 964 046e 0FE0     		b	.L99
 965              	.L125:
 966              	.LBB32:
 967              		.loc 2 205 0
 968 0470 0428     		cmp	r0, #4
 969 0472 69D0     		beq	.L105
 970 0474 0128     		cmp	r0, #1
 971 0476 00D1     		bne	.LCB891
 972 0478 7CE0     		b	.L124	@long jump
 973              	.LCB891:
 974              	.L102:
 975              	.LBB33:
 976              	.LBB34:
 977              		.loc 2 317 0
 978 047a 002C     		cmp	r4, #0
 979 047c 68D0     		beq	.L107
 980 047e 012C     		cmp	r4, #1
 981 0480 48D0     		beq	.L106
 982              	.L100:
 983              	.LBE34:
 984              	.LBE33:
 985              		.loc 2 227 0
 986 0482 0A20     		mov	r0, #10
 987 0484 FFF7FEFF 		bl	osSleep
 988              	.LBE32:
 989              		.loc 2 199 0
 990 0488 4246     		mov	r2, r8
 991 048a 1368     		ldr	r3, [r2]
 992 048c 002B     		cmp	r3, #0
 993 048e 53D1     		bne	.L97
 994              	.L99:
 995              	.LBE31:
 996              		.loc 2 201 0
 997 0490 FFF7FEFF 		bl	checkKey
 998              	.LBB35:
 999              	.LBB36:
 1000              		.loc 2 203 0
 1001 0494 0028     		cmp	r0, #0
 1002 0496 F4D0     		beq	.L100
 1003              		.loc 2 205 0
 1004 0498 0228     		cmp	r0, #2
 1005 049a E9D1     		bne	.L125
 1006              		.loc 2 218 0
 1007 049c 012C     		cmp	r4, #1
 1008 049e ECD1     		bne	.L102
 1009              		.loc 2 220 0
 1010 04a0 0420     		mov	r0, #4
ARM GAS  /cygdrive/c/DOCUME~1/mkwapisz/LOCALS~1/Temp/ccKuhkNd.s 			page 31


 1011 04a2 0021     		mov	r1, #0
 1012 04a4 FFF762FE 		bl	ZapalajDiode
 1013 04a8 0024     		mov	r4, #0
 1014              	.LVL49:
 1015              	.L109:
 1016              	.LBB37:
 1017              	.LBB38:
 1018              		.loc 2 241 0
 1019 04aa 201C     		mov	r0, r4
 1020 04ac 0021     		mov	r1, #0
 1021 04ae FFF75DFE 		bl	ZapalajDiode
 1022              		.loc 2 239 0
 1023 04b2 0134     		add	r4, r4, #1
 1024              		.loc 2 242 0
 1025 04b4 4B20     		mov	r0, #75
 1026 04b6 FFF7FEFF 		bl	osSleep
 1027              		.loc 2 239 0
 1028 04ba 042C     		cmp	r4, #4
 1029 04bc F5D1     		bne	.L109
 1030              		.loc 2 245 0
 1031 04be 5049     		ldr	r1, .L126+52
 1032 04c0 E022     		mov	r2, #224
 1033 04c2 0B68     		ldr	r3, [r1]
 1034 04c4 9200     		lsl	r2, r2, #2
 1035 04c6 1343     		orr	r3, r3, r2
 1036 04c8 0B60     		str	r3, [r1]
 1037              		.loc 2 246 0
 1038 04ca 4E4B     		ldr	r3, .L126+56
 1039 04cc 1A60     		str	r2, [r3]
 1040              		.loc 2 249 0
 1041 04ce 4E4A     		ldr	r2, .L126+60
 1042 04d0 3368     		ldr	r3, [r6]
 1043 04d2 1340     		and	r3, r3, r2
 1044 04d4 3360     		str	r3, [r6]
 1045              		.loc 2 250 0
 1046 04d6 8023     		mov	r3, #128
 1047 04d8 3268     		ldr	r2, [r6]
 1048 04da 1B03     		lsl	r3, r3, #12
 1049 04dc 1A43     		orr	r2, r2, r3
 1050 04de 8020     		mov	r0, #128
 1051 04e0 3260     		str	r2, [r6]
 1052 04e2 4A49     		ldr	r1, .L126+64
 1053 04e4 4A4C     		ldr	r4, .L126+68
 1054              	.LVL50:
 1055 04e6 3D1C     		mov	r5, r7
 1056 04e8 4002     		lsl	r0, r0, #9
 1057              	.LVL51:
 1058              	.L111:
 1059              	.LBB39:
 1060              		.loc 2 256 0
 1061 04ea 0B78     		ldrb	r3, [r1]
 1062 04ec 803B     		sub	r3, r3, #128
 1063              	.LVL52:
 1064              		.loc 2 257 0
 1065 04ee 5B00     		lsl	r3, r3, #1
 1066              	.LVL53:
 1067 04f0 1A1C     		mov	r2, r3
ARM GAS  /cygdrive/c/DOCUME~1/mkwapisz/LOCALS~1/Temp/ccKuhkNd.s 			page 32


 1068              	.LVL54:
 1069 04f2 7F32     		add	r2, r2, #127
 1070 04f4 4FDA     		bge	.L112
 1071 04f6 7F23     		mov	r3, #127
 1072 04f8 5B42     		neg	r3, r3
 1073              	.L113:
 1074              		.loc 2 266 0
 1075 04fa 8033     		add	r3, r3, #128
 1076              	.LVL55:
 1077 04fc 1B02     		lsl	r3, r3, #8
 1078 04fe 0343     		orr	r3, r3, r0
 1079 0500 2360     		str	r3, [r4]
 1080 0502 0022     		mov	r2, #0
 1081              	.LVL56:
 1082              	.L114:
 1083              		.loc 2 272 0
 1084 0504 C046     		 nop
 1085              		.loc 2 270 0
 1086              		.code	16
 1087 0506 434B     		ldr	r3, .L126+72
 1088 0508 0132     		add	r2, r2, #1
 1089 050a 9A42     		cmp	r2, r3
 1090 050c FAD1     		bne	.L114
 1091 050e 0131     		add	r1, r1, #1
 1092              	.LBE39:
 1093              		.loc 2 252 0
 1094 0510 A942     		cmp	r1, r5
 1095 0512 EAD1     		bne	.L111
 1096              	.LVL57:
 1097              	.L106:
 1098              	.LBE38:
 1099              	.LBE37:
 1100              	.LBB40:
 1101              	.LBB41:
 1102              		.loc 2 339 0
 1103 0514 4048     		ldr	r0, .L126+76
 1104 0516 0121     		mov	r1, #1
 1105 0518 0122     		mov	r2, #1
 1106              	.LVL58:
 1107 051a FFF72BFF 		bl	WyswietlTekstNaLCD128x128_L
 1108              		.loc 2 340 0
 1109 051e 0022     		mov	r2, #0
 1110 0520 3E48     		ldr	r0, .L126+80
 1111 0522 0221     		mov	r1, #2
 1112 0524 FFF726FF 		bl	WyswietlTekstNaLCD128x128_L
 1113              	.LBE41:
 1114              	.LBE40:
 1115              		.loc 2 227 0
 1116 0528 0A20     		mov	r0, #10
 1117 052a FFF7FEFF 		bl	osSleep
 1118              	.LBE36:
 1119              		.loc 2 199 0
 1120 052e 4246     		mov	r2, r8
 1121 0530 1368     		ldr	r3, [r2]
 1122              	.LBB42:
 1123              	.LBB43:
 1124              	.LBB44:
ARM GAS  /cygdrive/c/DOCUME~1/mkwapisz/LOCALS~1/Temp/ccKuhkNd.s 			page 33


 1125              		.loc 2 340 0
 1126 0532 0124     		mov	r4, #1
 1127              	.LBE44:
 1128              	.LBE43:
 1129              	.LBE42:
 1130              		.loc 2 199 0
 1131 0534 002B     		cmp	r3, #0
 1132 0536 ABD0     		beq	.L99
 1133              	.LVL59:
 1134              	.L97:
 1135              	.LBE35:
 1136              	.LBE27:
 1137              		.loc 2 109 0
 1138 0538 FFF7FEFF 		bl	osDeleteProcess
 1139              		.loc 2 110 0
 1140 053c 07B0     		add	sp, sp, #28
 1141              		@ sp needed for prologue
 1142              	.LVL60:
 1143 053e 04BC     		pop	{r2}
 1144 0540 9046     		mov	r8, r2
 1145 0542 F0BC     		pop	{r4, r5, r6, r7}
 1146 0544 01BC     		pop	{r0}
 1147 0546 0047     		bx	r0
 1148              	.LVL61:
 1149              	.L105:
 1150              	.LBB45:
 1151              	.LBB46:
 1152              	.LBB47:
 1153              		.loc 2 214 0
 1154 0548 0120     		mov	r0, #1
 1155 054a 0021     		mov	r1, #0
 1156 054c FFF70EFE 		bl	ZapalajDiode
 1157              	.L107:
 1158              	.LBB48:
 1159              	.LBB49:
 1160              	.LBB50:
 1161              		.loc 2 325 0
 1162 0550 6C46     		mov	r4, sp
 1163              	.LVL62:
 1164 0552 0F34     		add	r4, r4, #15
 1165              		.loc 2 323 0
 1166 0554 1E21     		mov	r1, #30
 1167 0556 0020     		mov	r0, #0
 1168 0558 FFF7FEFF 		bl	lcdGotoxy
 1169              		.loc 2 325 0
 1170 055c 2549     		ldr	r1, .L126+40
 1171 055e 201C     		mov	r0, r4
 1172 0560 0C22     		mov	r2, #12
 1173 0562 FFF7FEFF 		bl	strncpy
 1174              		.loc 2 329 0
 1175 0566 201C     		mov	r0, r4
 1176 0568 0021     		mov	r1, #0
 1177 056a 0122     		mov	r2, #1
 1178 056c FFF702FF 		bl	WyswietlTekstNaLCD128x128_L
 1179 0570 0024     		mov	r4, #0
 1180              	.LVL63:
 1181 0572 86E7     		b	.L100
ARM GAS  /cygdrive/c/DOCUME~1/mkwapisz/LOCALS~1/Temp/ccKuhkNd.s 			page 34


 1182              	.L124:
 1183              	.LBE50:
 1184              	.LBE49:
 1185              	.LBE48:
 1186              		.loc 2 209 0
 1187 0574 0020     		mov	r0, #0
 1188 0576 0021     		mov	r1, #0
 1189 0578 FFF7F8FD 		bl	ZapalajDiode
 1190 057c CAE7     		b	.L106
 1191              	.LVL64:
 1192              	.L81:
 1193              	.LBE47:
 1194              		.loc 2 185 0
 1195 057e 3268     		ldr	r2, [r6]
 1196 0580 002A     		cmp	r2, #0
 1197 0582 00D1     		bne	.LCB1139
 1198 0584 5DE7     		b	.L83	@long jump
 1199              	.LCB1139:
 1200              		.loc 2 193 0
 1201 0586 0123     		mov	r3, #1
 1202 0588 2B60     		str	r3, [r5]
 1203              	.LBB51:
 1204              	.LBB52:
 1205              		.loc 2 125 0
 1206 058a 072A     		cmp	r2, #7
 1207 058c 0DD8     		bhi	.L86
 1208 058e 9300     		lsl	r3, r2, #2
 1209 0590 234A     		ldr	r2, .L126+84
 1210 0592 9B58     		ldr	r3, [r3, r2]
 1211 0594 9F46     		mov	pc, r3
 1212              		.section	.rodata
 1213              		.align	2
 1214              		.align	2
 1215              	.L95:
 1216 0000 AE050000 		.word	.L87
 1217 0004 B2050000 		.word	.L88
 1218 0008 B6050000 		.word	.L89
 1219 000c BA050000 		.word	.L90
 1220 0010 BE050000 		.word	.L91
 1221 0014 C2050000 		.word	.L92
 1222 0018 C6050000 		.word	.L93
 1223 001c 9E050000 		.word	.L94
 1224              		.text
 1225              	.LVL65:
 1226              	.L112:
 1227              	.LBE52:
 1228              	.LBE51:
 1229              	.LBB53:
 1230              	.LBB54:
 1231              	.LBB55:
 1232              	.LBB56:
 1233              		.loc 2 266 0
 1234 0596 7F2B     		cmp	r3, #127
 1235 0598 AFDD     		ble	.L113
 1236 059a 7F23     		mov	r3, #127
 1237 059c ADE7     		b	.L113
 1238              	.LVL66:
ARM GAS  /cygdrive/c/DOCUME~1/mkwapisz/LOCALS~1/Temp/ccKuhkNd.s 			page 35


 1239              	.L94:
 1240              	.LBE56:
 1241              	.LBE55:
 1242              	.LBE54:
 1243              	.LBE53:
 1244              	.LBB57:
 1245              	.LBB58:
 1246              		.loc 2 125 0
 1247 059e 2148     		ldr	r0, .L126+88
 1248              	.L96:
 1249              	.LBE58:
 1250              	.LBE57:
 1251              		.loc 2 194 0
 1252 05a0 0221     		mov	r1, #2
 1253 05a2 0022     		mov	r2, #0
 1254 05a4 FFF7E6FE 		bl	WyswietlTekstNaLCD128x128_L
 1255 05a8 56E7     		b	.L85
 1256              	.L86:
 1257              	.LBB59:
 1258              	.LBB60:
 1259              		.loc 2 125 0
 1260 05aa 1F48     		ldr	r0, .L126+92
 1261 05ac F8E7     		b	.L96
 1262              	.L87:
 1263 05ae 1F48     		ldr	r0, .L126+96
 1264 05b0 F6E7     		b	.L96
 1265              	.L88:
 1266 05b2 1F48     		ldr	r0, .L126+100
 1267 05b4 F4E7     		b	.L96
 1268              	.L89:
 1269 05b6 1F48     		ldr	r0, .L126+104
 1270 05b8 F2E7     		b	.L96
 1271              	.L90:
 1272 05ba 1F48     		ldr	r0, .L126+108
 1273 05bc F0E7     		b	.L96
 1274              	.L91:
 1275 05be 1F48     		ldr	r0, .L126+112
 1276 05c0 EEE7     		b	.L96
 1277              	.L92:
 1278 05c2 1F48     		ldr	r0, .L126+116
 1279 05c4 ECE7     		b	.L96
 1280              	.L93:
 1281 05c6 1F48     		ldr	r0, .L126+120
 1282 05c8 EAE7     		b	.L96
 1283              	.L127:
 1284 05ca 0000     		.align	2
 1285              	.L126:
 1286 05cc 99090000 		.word	pid_lcd2x16
 1287 05d0 00000000 		.word	ProcLCD2x16
 1288 05d4 99010000 		.word	stack_LCD2x16
 1289 05d8 9C000000 		.word	.LC12
 1290 05dc AC000000 		.word	.LC14
 1291 05e0 00000000 		.word	wynikInicjalizacjiSd
 1292 05e4 00000000 		.word	fatfs
 1293 05e8 00000000 		.word	kolorDiody
 1294 05ec B8000000 		.word	.LC19
 1295 05f0 C4000000 		.word	.LC21
ARM GAS  /cygdrive/c/DOCUME~1/mkwapisz/LOCALS~1/Temp/ccKuhkNd.s 			page 36


 1296 05f4 00000000 		.word	listaPlikow
 1297 05f8 04C002E0 		.word	-536690684
 1298 05fc 91F80000 		.word	startupSound+63633
 1299 0600 088002E0 		.word	-536707064
 1300 0604 0C8002E0 		.word	-536707060
 1301 0608 FFFFF3FF 		.word	-786433
 1302 060c 01000000 		.word	startupSound+1
 1303 0610 00C006E0 		.word	-536428544
 1304 0614 52030000 		.word	850
 1305 0618 60000000 		.word	.LC45
 1306 061c 70000000 		.word	.LC47
 1307 0620 00000000 		.word	.L95
 1308 0624 C8000000 		.word	.LC25
 1309 0628 00000000 		.word	.LC27
 1310 062c 04000000 		.word	.LC29
 1311 0630 0C000000 		.word	.LC31
 1312 0634 18000000 		.word	.LC33
 1313 0638 28000000 		.word	.LC35
 1314 063c 34000000 		.word	.LC37
 1315 0640 40000000 		.word	.LC39
 1316 0644 50000000 		.word	.LC41
 1317              	.LBE60:
 1318              	.LBE59:
 1319              	.LBE46:
 1320              	.LBE45:
 1321              	.LFE13:
 1322              		.size	ProcMain, .-ProcMain
 1323              		.global	wynikInicjalizacjiSd
 1324              		.data
 1325              		.align	2
 1326              		.type	wynikInicjalizacjiSd, %object
 1327              		.size	wynikInicjalizacjiSd, 4
 1328              	wynikInicjalizacjiSd:
 1329 0000 02000000 		.word	2
 1330              		.global	msClock
 1331              		.bss
 1332              		.align	2
 1333              		.type	msClock, %object
 1334              		.size	msClock, 4
 1335              	msClock:
 1336 0000 00000000 		.space	4
 1337              		.global	kolorDiody
 1338              		.align	2
 1339              		.type	kolorDiody, %object
 1340              		.size	kolorDiody, 4
 1341              	kolorDiody:
 1342 0004 00000000 		.space	4
 1343              	inicjalizacjaZakonczona:
 1344 0008 00       		.space	1
 1345              	stack_Main:
 1346 0009 00000000 		.space	400
 1346      00000000 
 1346      00000000 
 1346      00000000 
 1346      00000000 
 1347              	stack_LCD2x16:
 1348 0199 00000000 		.space	2048
ARM GAS  /cygdrive/c/DOCUME~1/mkwapisz/LOCALS~1/Temp/ccKuhkNd.s 			page 37


 1348      00000000 
 1348      00000000 
 1348      00000000 
 1348      00000000 
 1349              	pid_lcd2x16:
 1350 0999 00       		.space	1
 1351              		.comm	fatfs,48,4
 1352              		.comm	rc,4,4
 1353              		.comm	listaPlikow,120,1
 1354 099a 0000     		.section	.debug_frame,"",%progbits
 1355              	.Lframe0:
 1356 0000 0C000000 		.4byte	.LECIE0-.LSCIE0
 1357              	.LSCIE0:
 1358 0004 FFFFFFFF 		.4byte	0xffffffff
 1359 0008 01       		.byte	0x1
 1360 0009 00       		.ascii	"\000"
 1361 000a 01       		.uleb128 0x1
 1362 000b 7C       		.sleb128 -4
 1363 000c 0E       		.byte	0xe
 1364 000d 0C       		.byte	0xc
 1365 000e 0D       		.uleb128 0xd
 1366 000f 00       		.uleb128 0x0
 1367              		.align	2
 1368              	.LECIE0:
 1369              	.LSFDE0:
 1370 0010 10000000 		.4byte	.LEFDE0-.LASFDE0
 1371              	.LASFDE0:
 1372 0014 00000000 		.4byte	.Lframe0
 1373 0018 00000000 		.4byte	.LFB3
 1374 001c 28000000 		.4byte	.LFE3-.LFB3
 1375 0020 42       		.byte	0x4
 1376              		.4byte	.LCFI0-.LFB3
 1377 0021 0E       		.byte	0xe
 1378 0022 04       		.uleb128 0x4
 1379 0023 00       		.align	2
 1380              	.LEFDE0:
 1381              	.LSFDE2:
 1382 0024 0C000000 		.4byte	.LEFDE2-.LASFDE2
 1383              	.LASFDE2:
 1384 0028 00000000 		.4byte	.Lframe0
 1385 002c 28000000 		.4byte	.LFB4
 1386 0030 24000000 		.4byte	.LFE4-.LFB4
 1387              		.align	2
 1388              	.LEFDE2:
 1389              	.LSFDE4:
 1390 0034 10000000 		.4byte	.LEFDE4-.LASFDE4
 1391              	.LASFDE4:
 1392 0038 00000000 		.4byte	.Lframe0
 1393 003c 4C000000 		.4byte	.LFB5
 1394 0040 90000000 		.4byte	.LFE5-.LFB5
 1395 0044 46       		.byte	0x4
 1396              		.4byte	.LCFI1-.LFB5
 1397 0045 0E       		.byte	0xe
 1398 0046 04       		.uleb128 0x4
 1399 0047 00       		.align	2
 1400              	.LEFDE4:
 1401              	.LSFDE6:
ARM GAS  /cygdrive/c/DOCUME~1/mkwapisz/LOCALS~1/Temp/ccKuhkNd.s 			page 38


 1402 0048 14000000 		.4byte	.LEFDE6-.LASFDE6
 1403              	.LASFDE6:
 1404 004c 00000000 		.4byte	.Lframe0
 1405 0050 DC000000 		.4byte	.LFB6
 1406 0054 22000000 		.4byte	.LFE6-.LFB6
 1407 0058 42       		.byte	0x4
 1408              		.4byte	.LCFI2-.LFB6
 1409 0059 0E       		.byte	0xe
 1410 005a 08       		.uleb128 0x8
 1411 005b 84       		.byte	0x84
 1412 005c 02       		.uleb128 0x2
 1413 005d 8E       		.byte	0x8e
 1414 005e 01       		.uleb128 0x1
 1415 005f 00       		.align	2
 1416              	.LEFDE6:
 1417              	.LSFDE8:
 1418 0060 0C000000 		.4byte	.LEFDE8-.LASFDE8
 1419              	.LASFDE8:
 1420 0064 00000000 		.4byte	.Lframe0
 1421 0068 00010000 		.4byte	.LFB22
 1422 006c 10000000 		.4byte	.LFE22-.LFB22
 1423              		.align	2
 1424              	.LEFDE8:
 1425              	.LSFDE10:
 1426 0070 18000000 		.4byte	.LEFDE10-.LASFDE10
 1427              	.LASFDE10:
 1428 0074 00000000 		.4byte	.Lframe0
 1429 0078 10010000 		.4byte	.LFB12
 1430 007c 5C000000 		.4byte	.LFE12-.LFB12
 1431 0080 42       		.byte	0x4
 1432              		.4byte	.LCFI3-.LFB12
 1433 0081 0E       		.byte	0xe
 1434 0082 0C       		.uleb128 0xc
 1435 0083 84       		.byte	0x84
 1436 0084 03       		.uleb128 0x3
 1437 0085 85       		.byte	0x85
 1438 0086 02       		.uleb128 0x2
 1439 0087 8E       		.byte	0x8e
 1440 0088 01       		.uleb128 0x1
 1441 0089 4E       		.byte	0x4
 1442              		.4byte	.LCFI4-.LCFI3
 1443 008a 0E       		.byte	0xe
 1444 008b 1C       		.uleb128 0x1c
 1445              		.align	2
 1446              	.LEFDE10:
 1447              	.LSFDE12:
 1448 008c 14000000 		.4byte	.LEFDE12-.LASFDE12
 1449              	.LASFDE12:
 1450 0090 00000000 		.4byte	.Lframe0
 1451 0094 6C010000 		.4byte	.LFB11
 1452 0098 F8000000 		.4byte	.LFE11-.LFB11
 1453 009c 42       		.byte	0x4
 1454              		.4byte	.LCFI5-.LFB11
 1455 009d 0E       		.byte	0xe
 1456 009e 08       		.uleb128 0x8
 1457 009f 84       		.byte	0x84
 1458 00a0 02       		.uleb128 0x2
ARM GAS  /cygdrive/c/DOCUME~1/mkwapisz/LOCALS~1/Temp/ccKuhkNd.s 			page 39


 1459 00a1 8E       		.byte	0x8e
 1460 00a2 01       		.uleb128 0x1
 1461 00a3 00       		.align	2
 1462              	.LEFDE12:
 1463              	.LSFDE14:
 1464 00a4 14000000 		.4byte	.LEFDE14-.LASFDE14
 1465              	.LASFDE14:
 1466 00a8 00000000 		.4byte	.Lframe0
 1467 00ac 64020000 		.4byte	.LFB7
 1468 00b0 14000000 		.4byte	.LFE7-.LFB7
 1469 00b4 42       		.byte	0x4
 1470              		.4byte	.LCFI6-.LFB7
 1471 00b5 0E       		.byte	0xe
 1472 00b6 04       		.uleb128 0x4
 1473 00b7 8E       		.byte	0x8e
 1474 00b8 01       		.uleb128 0x1
 1475 00b9 000000   		.align	2
 1476              	.LEFDE14:
 1477              	.LSFDE16:
 1478 00bc 14000000 		.4byte	.LEFDE16-.LASFDE16
 1479              	.LASFDE16:
 1480 00c0 00000000 		.4byte	.Lframe0
 1481 00c4 78020000 		.4byte	.LFB8
 1482 00c8 1A000000 		.4byte	.LFE8-.LFB8
 1483 00cc 42       		.byte	0x4
 1484              		.4byte	.LCFI7-.LFB8
 1485 00cd 0E       		.byte	0xe
 1486 00ce 04       		.uleb128 0x4
 1487 00cf 8E       		.byte	0x8e
 1488 00d0 01       		.uleb128 0x1
 1489 00d1 000000   		.align	2
 1490              	.LEFDE16:
 1491              	.LSFDE18:
 1492 00d4 18000000 		.4byte	.LEFDE18-.LASFDE18
 1493              	.LASFDE18:
 1494 00d8 00000000 		.4byte	.Lframe0
 1495 00dc 94020000 		.4byte	.LFB14
 1496 00e0 E0000000 		.4byte	.LFE14-.LFB14
 1497 00e4 42       		.byte	0x4
 1498              		.4byte	.LCFI8-.LFB14
 1499 00e5 0E       		.byte	0xe
 1500 00e6 0C       		.uleb128 0xc
 1501 00e7 84       		.byte	0x84
 1502 00e8 03       		.uleb128 0x3
 1503 00e9 85       		.byte	0x85
 1504 00ea 02       		.uleb128 0x2
 1505 00eb 8E       		.byte	0x8e
 1506 00ec 01       		.uleb128 0x1
 1507 00ed 000000   		.align	2
 1508              	.LEFDE18:
 1509              	.LSFDE20:
 1510 00f0 18000000 		.4byte	.LEFDE20-.LASFDE20
 1511              	.LASFDE20:
 1512 00f4 00000000 		.4byte	.Lframe0
 1513 00f8 74030000 		.4byte	.LFB19
 1514 00fc 2A000000 		.4byte	.LFE19-.LFB19
 1515 0100 42       		.byte	0x4
ARM GAS  /cygdrive/c/DOCUME~1/mkwapisz/LOCALS~1/Temp/ccKuhkNd.s 			page 40


 1516              		.4byte	.LCFI9-.LFB19
 1517 0101 0E       		.byte	0xe
 1518 0102 0C       		.uleb128 0xc
 1519 0103 84       		.byte	0x84
 1520 0104 03       		.uleb128 0x3
 1521 0105 85       		.byte	0x85
 1522 0106 02       		.uleb128 0x2
 1523 0107 8E       		.byte	0x8e
 1524 0108 01       		.uleb128 0x1
 1525 0109 000000   		.align	2
 1526              	.LEFDE20:
 1527              	.LSFDE22:
 1528 010c 24000000 		.4byte	.LEFDE22-.LASFDE22
 1529              	.LASFDE22:
 1530 0110 00000000 		.4byte	.Lframe0
 1531 0114 A0030000 		.4byte	.LFB13
 1532 0118 A8020000 		.4byte	.LFE13-.LFB13
 1533 011c 42       		.byte	0x4
 1534              		.4byte	.LCFI10-.LFB13
 1535 011d 0E       		.byte	0xe
 1536 011e 14       		.uleb128 0x14
 1537 011f 84       		.byte	0x84
 1538 0120 05       		.uleb128 0x5
 1539 0121 85       		.byte	0x85
 1540 0122 04       		.uleb128 0x4
 1541 0123 86       		.byte	0x86
 1542 0124 03       		.uleb128 0x3
 1543 0125 87       		.byte	0x87
 1544 0126 02       		.uleb128 0x2
 1545 0127 8E       		.byte	0x8e
 1546 0128 01       		.uleb128 0x1
 1547 0129 44       		.byte	0x4
 1548              		.4byte	.LCFI11-.LCFI10
 1549 012a 0E       		.byte	0xe
 1550 012b 18       		.uleb128 0x18
 1551 012c 88       		.byte	0x88
 1552 012d 06       		.uleb128 0x6
 1553 012e 42       		.byte	0x4
 1554              		.4byte	.LCFI12-.LCFI11
 1555 012f 0E       		.byte	0xe
 1556 0130 34       		.uleb128 0x34
 1557 0131 000000   		.align	2
 1558              	.LEFDE22:
 1559              		.file 4 "../pre_emptive_os/api/../api/general.h"
 1560              		.file 5 "functions.h"
 1561              		.file 6 "pff2/src/pff.h"
 1562              		.file 7 "irq/wave.h"
 1563              		.file 8 "pff2/src/integer.h"
 1564              		.text
 1565              	.Letext0:
 1566              		.section	.debug_loc,"",%progbits
 1567              	.Ldebug_loc0:
 1568              	.LLST0:
 1569 0000 00000000 		.4byte	.LFB3-.Ltext0
 1570 0004 02000000 		.4byte	.LCFI0-.Ltext0
 1571 0008 0100     		.2byte	0x1
 1572 000a 5D       		.byte	0x5d
ARM GAS  /cygdrive/c/DOCUME~1/mkwapisz/LOCALS~1/Temp/ccKuhkNd.s 			page 41


 1573 000b 02000000 		.4byte	.LCFI0-.Ltext0
 1574 000f 28000000 		.4byte	.LFE3-.Ltext0
 1575 0013 0200     		.2byte	0x2
 1576 0015 7D       		.byte	0x7d
 1577 0016 04       		.sleb128 4
 1578 0017 00000000 		.4byte	0x0
 1579 001b 00000000 		.4byte	0x0
 1580              	.LLST2:
 1581 001f 28000000 		.4byte	.LVL1-.Ltext0
 1582 0023 2A000000 		.4byte	.LVL2-.Ltext0
 1583 0027 0100     		.2byte	0x1
 1584 0029 50       		.byte	0x50
 1585 002a 2C000000 		.4byte	.LVL3-.Ltext0
 1586 002e 4C000000 		.4byte	.LFE4-.Ltext0
 1587 0032 0100     		.2byte	0x1
 1588 0034 50       		.byte	0x50
 1589 0035 00000000 		.4byte	0x0
 1590 0039 00000000 		.4byte	0x0
 1591              	.LLST3:
 1592 003d 4C000000 		.4byte	.LFB5-.Ltext0
 1593 0041 52000000 		.4byte	.LCFI1-.Ltext0
 1594 0045 0100     		.2byte	0x1
 1595 0047 5D       		.byte	0x5d
 1596 0048 52000000 		.4byte	.LCFI1-.Ltext0
 1597 004c DC000000 		.4byte	.LFE5-.Ltext0
 1598 0050 0200     		.2byte	0x2
 1599 0052 7D       		.byte	0x7d
 1600 0053 04       		.sleb128 4
 1601 0054 00000000 		.4byte	0x0
 1602 0058 00000000 		.4byte	0x0
 1603              	.LLST4:
 1604 005c 4C000000 		.4byte	.LVL4-.Ltext0
 1605 0060 50000000 		.4byte	.LVL6-.Ltext0
 1606 0064 0100     		.2byte	0x1
 1607 0066 50       		.byte	0x50
 1608 0067 00000000 		.4byte	0x0
 1609 006b 00000000 		.4byte	0x0
 1610              	.LLST5:
 1611 006f 4C000000 		.4byte	.LVL4-.Ltext0
 1612 0073 4E000000 		.4byte	.LVL5-.Ltext0
 1613 0077 0100     		.2byte	0x1
 1614 0079 51       		.byte	0x51
 1615 007a 54000000 		.4byte	.LVL7-.Ltext0
 1616 007e 7E000000 		.4byte	.LVL8-.Ltext0
 1617 0082 0100     		.2byte	0x1
 1618 0084 51       		.byte	0x51
 1619 0085 C6000000 		.4byte	.LVL17-.Ltext0
 1620 0089 DC000000 		.4byte	.LFE5-.Ltext0
 1621 008d 0100     		.2byte	0x1
 1622 008f 51       		.byte	0x51
 1623 0090 00000000 		.4byte	0x0
 1624 0094 00000000 		.4byte	0x0
 1625              	.LLST6:
 1626 0098 86000000 		.4byte	.LVL9-.Ltext0
 1627 009c 8C000000 		.4byte	.LVL10-.Ltext0
 1628 00a0 0200     		.2byte	0x2
 1629 00a2 71       		.byte	0x71
ARM GAS  /cygdrive/c/DOCUME~1/mkwapisz/LOCALS~1/Temp/ccKuhkNd.s 			page 42


 1630 00a3 00       		.sleb128 0
 1631 00a4 8C000000 		.4byte	.LVL10-.Ltext0
 1632 00a8 92000000 		.4byte	.LVL11-.Ltext0
 1633 00ac 0100     		.2byte	0x1
 1634 00ae 53       		.byte	0x53
 1635 00af 92000000 		.4byte	.LVL11-.Ltext0
 1636 00b3 9E000000 		.4byte	.LVL12-.Ltext0
 1637 00b7 0200     		.2byte	0x2
 1638 00b9 71       		.byte	0x71
 1639 00ba 00       		.sleb128 0
 1640 00bb 9E000000 		.4byte	.LVL12-.Ltext0
 1641 00bf A0000000 		.4byte	.LVL13-.Ltext0
 1642 00c3 0100     		.2byte	0x1
 1643 00c5 53       		.byte	0x53
 1644 00c6 A0000000 		.4byte	.LVL13-.Ltext0
 1645 00ca B0000000 		.4byte	.LVL14-.Ltext0
 1646 00ce 0200     		.2byte	0x2
 1647 00d0 71       		.byte	0x71
 1648 00d1 00       		.sleb128 0
 1649 00d2 B0000000 		.4byte	.LVL14-.Ltext0
 1650 00d6 B6000000 		.4byte	.LVL15-.Ltext0
 1651 00da 0100     		.2byte	0x1
 1652 00dc 53       		.byte	0x53
 1653 00dd B6000000 		.4byte	.LVL15-.Ltext0
 1654 00e1 C2000000 		.4byte	.LVL16-.Ltext0
 1655 00e5 0200     		.2byte	0x2
 1656 00e7 71       		.byte	0x71
 1657 00e8 00       		.sleb128 0
 1658 00e9 C2000000 		.4byte	.LVL16-.Ltext0
 1659 00ed C6000000 		.4byte	.LVL17-.Ltext0
 1660 00f1 0100     		.2byte	0x1
 1661 00f3 53       		.byte	0x53
 1662 00f4 00000000 		.4byte	0x0
 1663 00f8 00000000 		.4byte	0x0
 1664              	.LLST7:
 1665 00fc DC000000 		.4byte	.LFB6-.Ltext0
 1666 0100 DE000000 		.4byte	.LCFI2-.Ltext0
 1667 0104 0100     		.2byte	0x1
 1668 0106 5D       		.byte	0x5d
 1669 0107 DE000000 		.4byte	.LCFI2-.Ltext0
 1670 010b FE000000 		.4byte	.LFE6-.Ltext0
 1671 010f 0200     		.2byte	0x2
 1672 0111 7D       		.byte	0x7d
 1673 0112 08       		.sleb128 8
 1674 0113 00000000 		.4byte	0x0
 1675 0117 00000000 		.4byte	0x0
 1676              	.LLST8:
 1677 011b DE000000 		.4byte	.LVL18-.Ltext0
 1678 011f E6000000 		.4byte	.LVL19-.Ltext0
 1679 0123 0100     		.2byte	0x1
 1680 0125 50       		.byte	0x50
 1681 0126 E6000000 		.4byte	.LVL19-.Ltext0
 1682 012a F8000000 		.4byte	.LVL21-.Ltext0
 1683 012e 0100     		.2byte	0x1
 1684 0130 54       		.byte	0x54
 1685 0131 F8000000 		.4byte	.LVL21-.Ltext0
 1686 0135 FE000000 		.4byte	.LFE6-.Ltext0
ARM GAS  /cygdrive/c/DOCUME~1/mkwapisz/LOCALS~1/Temp/ccKuhkNd.s 			page 43


 1687 0139 0100     		.2byte	0x1
 1688 013b 50       		.byte	0x50
 1689 013c 00000000 		.4byte	0x0
 1690 0140 00000000 		.4byte	0x0
 1691              	.LLST10:
 1692 0144 10010000 		.4byte	.LFB12-.Ltext0
 1693 0148 12010000 		.4byte	.LCFI3-.Ltext0
 1694 014c 0100     		.2byte	0x1
 1695 014e 5D       		.byte	0x5d
 1696 014f 12010000 		.4byte	.LCFI3-.Ltext0
 1697 0153 20010000 		.4byte	.LCFI4-.Ltext0
 1698 0157 0200     		.2byte	0x2
 1699 0159 7D       		.byte	0x7d
 1700 015a 0C       		.sleb128 12
 1701 015b 20010000 		.4byte	.LCFI4-.Ltext0
 1702 015f 6C010000 		.4byte	.LFE12-.Ltext0
 1703 0163 0200     		.2byte	0x2
 1704 0165 7D       		.byte	0x7d
 1705 0166 1C       		.sleb128 28
 1706 0167 00000000 		.4byte	0x0
 1707 016b 00000000 		.4byte	0x0
 1708              	.LLST11:
 1709 016f 6C010000 		.4byte	.LFB11-.Ltext0
 1710 0173 6E010000 		.4byte	.LCFI5-.Ltext0
 1711 0177 0100     		.2byte	0x1
 1712 0179 5D       		.byte	0x5d
 1713 017a 6E010000 		.4byte	.LCFI5-.Ltext0
 1714 017e 64020000 		.4byte	.LFE11-.Ltext0
 1715 0182 0200     		.2byte	0x2
 1716 0184 7D       		.byte	0x7d
 1717 0185 08       		.sleb128 8
 1718 0186 00000000 		.4byte	0x0
 1719 018a 00000000 		.4byte	0x0
 1720              	.LLST12:
 1721 018e 6E010000 		.4byte	.LVL24-.Ltext0
 1722 0192 70010000 		.4byte	.LVL25-.Ltext0
 1723 0196 0100     		.2byte	0x1
 1724 0198 50       		.byte	0x50
 1725 0199 74010000 		.4byte	.LVL26-.Ltext0
 1726 019d E8010000 		.4byte	.LVL30-.Ltext0
 1727 01a1 0100     		.2byte	0x1
 1728 01a3 50       		.byte	0x50
 1729 01a4 F2010000 		.4byte	.LVL32-.Ltext0
 1730 01a8 64020000 		.4byte	.LFE11-.Ltext0
 1731 01ac 0100     		.2byte	0x1
 1732 01ae 50       		.byte	0x50
 1733 01af 00000000 		.4byte	0x0
 1734 01b3 00000000 		.4byte	0x0
 1735              	.LLST13:
 1736 01b7 6E010000 		.4byte	.LVL24-.Ltext0
 1737 01bb 7A010000 		.4byte	.LVL27-.Ltext0
 1738 01bf 0100     		.2byte	0x1
 1739 01c1 51       		.byte	0x51
 1740 01c2 7A010000 		.4byte	.LVL27-.Ltext0
 1741 01c6 EC010000 		.4byte	.LVL31-.Ltext0
 1742 01ca 0100     		.2byte	0x1
 1743 01cc 54       		.byte	0x54
ARM GAS  /cygdrive/c/DOCUME~1/mkwapisz/LOCALS~1/Temp/ccKuhkNd.s 			page 44


 1744 01cd F2010000 		.4byte	.LVL32-.Ltext0
 1745 01d1 64020000 		.4byte	.LFE11-.Ltext0
 1746 01d5 0100     		.2byte	0x1
 1747 01d7 54       		.byte	0x54
 1748 01d8 00000000 		.4byte	0x0
 1749 01dc 00000000 		.4byte	0x0
 1750              	.LLST14:
 1751 01e0 64020000 		.4byte	.LFB7-.Ltext0
 1752 01e4 66020000 		.4byte	.LCFI6-.Ltext0
 1753 01e8 0100     		.2byte	0x1
 1754 01ea 5D       		.byte	0x5d
 1755 01eb 66020000 		.4byte	.LCFI6-.Ltext0
 1756 01ef 78020000 		.4byte	.LFE7-.Ltext0
 1757 01f3 0200     		.2byte	0x2
 1758 01f5 7D       		.byte	0x7d
 1759 01f6 04       		.sleb128 4
 1760 01f7 00000000 		.4byte	0x0
 1761 01fb 00000000 		.4byte	0x0
 1762              	.LLST15:
 1763 01ff 78020000 		.4byte	.LFB8-.Ltext0
 1764 0203 7A020000 		.4byte	.LCFI7-.Ltext0
 1765 0207 0100     		.2byte	0x1
 1766 0209 5D       		.byte	0x5d
 1767 020a 7A020000 		.4byte	.LCFI7-.Ltext0
 1768 020e 92020000 		.4byte	.LFE8-.Ltext0
 1769 0212 0200     		.2byte	0x2
 1770 0214 7D       		.byte	0x7d
 1771 0215 04       		.sleb128 4
 1772 0216 00000000 		.4byte	0x0
 1773 021a 00000000 		.4byte	0x0
 1774              	.LLST16:
 1775 021e 7A020000 		.4byte	.LVL34-.Ltext0
 1776 0222 7E020000 		.4byte	.LVL35-.Ltext0
 1777 0226 0100     		.2byte	0x1
 1778 0228 50       		.byte	0x50
 1779 0229 00000000 		.4byte	0x0
 1780 022d 00000000 		.4byte	0x0
 1781              	.LLST17:
 1782 0231 94020000 		.4byte	.LFB14-.Ltext0
 1783 0235 96020000 		.4byte	.LCFI8-.Ltext0
 1784 0239 0100     		.2byte	0x1
 1785 023b 5D       		.byte	0x5d
 1786 023c 96020000 		.4byte	.LCFI8-.Ltext0
 1787 0240 74030000 		.4byte	.LFE14-.Ltext0
 1788 0244 0200     		.2byte	0x2
 1789 0246 7D       		.byte	0x7d
 1790 0247 0C       		.sleb128 12
 1791 0248 00000000 		.4byte	0x0
 1792 024c 00000000 		.4byte	0x0
 1793              	.LLST18:
 1794 0250 96020000 		.4byte	.LVL36-.Ltext0
 1795 0254 AE020000 		.4byte	.LVL37-.Ltext0
 1796 0258 0100     		.2byte	0x1
 1797 025a 50       		.byte	0x50
 1798 025b 00000000 		.4byte	0x0
 1799 025f 00000000 		.4byte	0x0
 1800              	.LLST19:
ARM GAS  /cygdrive/c/DOCUME~1/mkwapisz/LOCALS~1/Temp/ccKuhkNd.s 			page 45


 1801 0263 74030000 		.4byte	.LFB19-.Ltext0
 1802 0267 76030000 		.4byte	.LCFI9-.Ltext0
 1803 026b 0100     		.2byte	0x1
 1804 026d 5D       		.byte	0x5d
 1805 026e 76030000 		.4byte	.LCFI9-.Ltext0
 1806 0272 9E030000 		.4byte	.LFE19-.Ltext0
 1807 0276 0200     		.2byte	0x2
 1808 0278 7D       		.byte	0x7d
 1809 0279 0C       		.sleb128 12
 1810 027a 00000000 		.4byte	0x0
 1811 027e 00000000 		.4byte	0x0
 1812              	.LLST20:
 1813 0282 76030000 		.4byte	.LVL38-.Ltext0
 1814 0286 7E030000 		.4byte	.LVL39-.Ltext0
 1815 028a 0100     		.2byte	0x1
 1816 028c 50       		.byte	0x50
 1817 028d 7E030000 		.4byte	.LVL39-.Ltext0
 1818 0291 92030000 		.4byte	.LVL42-.Ltext0
 1819 0295 0100     		.2byte	0x1
 1820 0297 55       		.byte	0x55
 1821 0298 98030000 		.4byte	.LVL43-.Ltext0
 1822 029c 9E030000 		.4byte	.LFE19-.Ltext0
 1823 02a0 0100     		.2byte	0x1
 1824 02a2 55       		.byte	0x55
 1825 02a3 00000000 		.4byte	0x0
 1826 02a7 00000000 		.4byte	0x0
 1827              	.LLST21:
 1828 02ab 76030000 		.4byte	.LVL38-.Ltext0
 1829 02af 7E030000 		.4byte	.LVL39-.Ltext0
 1830 02b3 0100     		.2byte	0x1
 1831 02b5 51       		.byte	0x51
 1832 02b6 7E030000 		.4byte	.LVL39-.Ltext0
 1833 02ba 92030000 		.4byte	.LVL41-.Ltext0
 1834 02be 0100     		.2byte	0x1
 1835 02c0 54       		.byte	0x54
 1836 02c1 98030000 		.4byte	.LVL43-.Ltext0
 1837 02c5 9E030000 		.4byte	.LFE19-.Ltext0
 1838 02c9 0100     		.2byte	0x1
 1839 02cb 54       		.byte	0x54
 1840 02cc 00000000 		.4byte	0x0
 1841 02d0 00000000 		.4byte	0x0
 1842              	.LLST22:
 1843 02d4 76030000 		.4byte	.LVL38-.Ltext0
 1844 02d8 8C030000 		.4byte	.LVL40-.Ltext0
 1845 02dc 0100     		.2byte	0x1
 1846 02de 52       		.byte	0x52
 1847 02df 98030000 		.4byte	.LVL43-.Ltext0
 1848 02e3 9C030000 		.4byte	.LVL44-.Ltext0
 1849 02e7 0100     		.2byte	0x1
 1850 02e9 52       		.byte	0x52
 1851 02ea 00000000 		.4byte	0x0
 1852 02ee 00000000 		.4byte	0x0
 1853              	.LLST23:
 1854 02f2 A0030000 		.4byte	.LFB13-.Ltext0
 1855 02f6 A2030000 		.4byte	.LCFI10-.Ltext0
 1856 02fa 0100     		.2byte	0x1
 1857 02fc 5D       		.byte	0x5d
ARM GAS  /cygdrive/c/DOCUME~1/mkwapisz/LOCALS~1/Temp/ccKuhkNd.s 			page 46


 1858 02fd A2030000 		.4byte	.LCFI10-.Ltext0
 1859 0301 A6030000 		.4byte	.LCFI11-.Ltext0
 1860 0305 0200     		.2byte	0x2
 1861 0307 7D       		.byte	0x7d
 1862 0308 14       		.sleb128 20
 1863 0309 A6030000 		.4byte	.LCFI11-.Ltext0
 1864 030d A8030000 		.4byte	.LCFI12-.Ltext0
 1865 0311 0200     		.2byte	0x2
 1866 0313 7D       		.byte	0x7d
 1867 0314 18       		.sleb128 24
 1868 0315 A8030000 		.4byte	.LCFI12-.Ltext0
 1869 0319 48060000 		.4byte	.LFE13-.Ltext0
 1870 031d 0200     		.2byte	0x2
 1871 031f 7D       		.byte	0x7d
 1872 0320 34       		.sleb128 52
 1873 0321 00000000 		.4byte	0x0
 1874 0325 00000000 		.4byte	0x0
 1875              	.LLST24:
 1876 0329 A6030000 		.4byte	.LVL45-.Ltext0
 1877 032d BA030000 		.4byte	.LVL46-.Ltext0
 1878 0331 0100     		.2byte	0x1
 1879 0333 50       		.byte	0x50
 1880 0334 00000000 		.4byte	0x0
 1881 0338 00000000 		.4byte	0x0
 1882              	.LLST25:
 1883 033c 6E040000 		.4byte	.LVL48-.Ltext0
 1884 0340 AA040000 		.4byte	.LVL49-.Ltext0
 1885 0344 0100     		.2byte	0x1
 1886 0346 54       		.byte	0x54
 1887 0347 14050000 		.4byte	.LVL57-.Ltext0
 1888 034b 3E050000 		.4byte	.LVL60-.Ltext0
 1889 034f 0100     		.2byte	0x1
 1890 0351 54       		.byte	0x54
 1891 0352 48050000 		.4byte	.LVL61-.Ltext0
 1892 0356 52050000 		.4byte	.LVL62-.Ltext0
 1893 035a 0100     		.2byte	0x1
 1894 035c 54       		.byte	0x54
 1895 035d 72050000 		.4byte	.LVL63-.Ltext0
 1896 0361 7E050000 		.4byte	.LVL64-.Ltext0
 1897 0365 0100     		.2byte	0x1
 1898 0367 54       		.byte	0x54
 1899 0368 00000000 		.4byte	0x0
 1900 036c 00000000 		.4byte	0x0
 1901              	.LLST26:
 1902 0370 04040000 		.4byte	.LVL47-.Ltext0
 1903 0374 6E040000 		.4byte	.LVL48-.Ltext0
 1904 0378 0100     		.2byte	0x1
 1905 037a 54       		.byte	0x54
 1906 037b 38050000 		.4byte	.LVL59-.Ltext0
 1907 037f 3E050000 		.4byte	.LVL60-.Ltext0
 1908 0383 0100     		.2byte	0x1
 1909 0385 54       		.byte	0x54
 1910 0386 7E050000 		.4byte	.LVL64-.Ltext0
 1911 038a 96050000 		.4byte	.LVL65-.Ltext0
 1912 038e 0100     		.2byte	0x1
 1913 0390 54       		.byte	0x54
 1914 0391 9E050000 		.4byte	.LVL66-.Ltext0
ARM GAS  /cygdrive/c/DOCUME~1/mkwapisz/LOCALS~1/Temp/ccKuhkNd.s 			page 47


 1915 0395 48060000 		.4byte	.LFE13-.Ltext0
 1916 0399 0100     		.2byte	0x1
 1917 039b 54       		.byte	0x54
 1918 039c 00000000 		.4byte	0x0
 1919 03a0 00000000 		.4byte	0x0
 1920              	.LLST27:
 1921 03a4 AA040000 		.4byte	.LVL49-.Ltext0
 1922 03a8 E6040000 		.4byte	.LVL50-.Ltext0
 1923 03ac 0100     		.2byte	0x1
 1924 03ae 54       		.byte	0x54
 1925 03af EA040000 		.4byte	.LVL51-.Ltext0
 1926 03b3 F2040000 		.4byte	.LVL54-.Ltext0
 1927 03b7 0100     		.2byte	0x1
 1928 03b9 52       		.byte	0x52
 1929 03ba 04050000 		.4byte	.LVL56-.Ltext0
 1930 03be 1A050000 		.4byte	.LVL58-.Ltext0
 1931 03c2 0100     		.2byte	0x1
 1932 03c4 52       		.byte	0x52
 1933 03c5 00000000 		.4byte	0x0
 1934 03c9 00000000 		.4byte	0x0
 1935              	.LLST28:
 1936 03cd EE040000 		.4byte	.LVL52-.Ltext0
 1937 03d1 F0040000 		.4byte	.LVL53-.Ltext0
 1938 03d5 0100     		.2byte	0x1
 1939 03d7 53       		.byte	0x53
 1940 03d8 96050000 		.4byte	.LVL65-.Ltext0
 1941 03dc 9E050000 		.4byte	.LVL66-.Ltext0
 1942 03e0 0100     		.2byte	0x1
 1943 03e2 53       		.byte	0x53
 1944 03e3 00000000 		.4byte	0x0
 1945 03e7 00000000 		.4byte	0x0
 1946              		.section	.debug_info
 1947 0000 A7070000 		.4byte	0x7a7
 1948 0004 0200     		.2byte	0x2
 1949 0006 00000000 		.4byte	.Ldebug_abbrev0
 1950 000a 04       		.byte	0x4
 1951 000b 01       		.uleb128 0x1
 1952 000c 00000000 		.4byte	.Ldebug_line0
 1953 0010 48060000 		.4byte	.Letext0
 1954 0014 00000000 		.4byte	.Ltext0
 1955 0018 ED030000 		.4byte	.LASF97
 1956 001c 01       		.byte	0x1
 1957 001d 13000000 		.4byte	.LASF98
 1958 0021 11010000 		.4byte	.LASF99
 1959 0025 02       		.uleb128 0x2
 1960 0026 74553800 		.ascii	"tU8\000"
 1961 002a 04       		.byte	0x4
 1962 002b 48       		.byte	0x48
 1963 002c 30000000 		.4byte	0x30
 1964 0030 03       		.uleb128 0x3
 1965 0031 03040000 		.4byte	.LASF0
 1966 0035 01       		.byte	0x1
 1967 0036 08       		.byte	0x8
 1968 0037 03       		.uleb128 0x3
 1969 0038 5B040000 		.4byte	.LASF1
 1970 003c 02       		.byte	0x2
 1971 003d 07       		.byte	0x7
ARM GAS  /cygdrive/c/DOCUME~1/mkwapisz/LOCALS~1/Temp/ccKuhkNd.s 			page 48


 1972 003e 04       		.uleb128 0x4
 1973 003f FF010000 		.4byte	.LASF2
 1974 0043 04       		.byte	0x4
 1975 0044 4A       		.byte	0x4a
 1976 0045 49000000 		.4byte	0x49
 1977 0049 03       		.uleb128 0x3
 1978 004a 48000000 		.4byte	.LASF3
 1979 004e 04       		.byte	0x4
 1980 004f 07       		.byte	0x7
 1981 0050 03       		.uleb128 0x3
 1982 0051 4F040000 		.4byte	.LASF4
 1983 0055 01       		.byte	0x1
 1984 0056 06       		.byte	0x6
 1985 0057 03       		.uleb128 0x3
 1986 0058 45030000 		.4byte	.LASF5
 1987 005c 02       		.byte	0x2
 1988 005d 05       		.byte	0x5
 1989 005e 04       		.uleb128 0x4
 1990 005f 78030000 		.4byte	.LASF6
 1991 0063 04       		.byte	0x4
 1992 0064 4D       		.byte	0x4d
 1993 0065 69000000 		.4byte	0x69
 1994 0069 05       		.uleb128 0x5
 1995 006a 696E7400 		.ascii	"int\000"
 1996 006e 04       		.byte	0x4
 1997 006f 05       		.byte	0x5
 1998 0070 04       		.uleb128 0x4
 1999 0071 7D040000 		.4byte	.LASF7
 2000 0075 04       		.byte	0x4
 2001 0076 57       		.byte	0x57
 2002 0077 30000000 		.4byte	0x30
 2003 007b 03       		.uleb128 0x3
 2004 007c 23020000 		.4byte	.LASF8
 2005 0080 08       		.byte	0x8
 2006 0081 05       		.byte	0x5
 2007 0082 03       		.uleb128 0x3
 2008 0083 BF000000 		.4byte	.LASF9
 2009 0087 08       		.byte	0x8
 2010 0088 07       		.byte	0x7
 2011 0089 03       		.uleb128 0x3
 2012 008a B9030000 		.4byte	.LASF10
 2013 008e 04       		.byte	0x4
 2014 008f 07       		.byte	0x7
 2015 0090 06       		.uleb128 0x6
 2016 0091 04       		.byte	0x4
 2017 0092 07       		.uleb128 0x7
 2018 0093 01       		.byte	0x1
 2019 0094 08       		.uleb128 0x8
 2020 0095 04       		.byte	0x4
 2021 0096 92000000 		.4byte	0x92
 2022 009a 03       		.uleb128 0x3
 2023 009b 58030000 		.4byte	.LASF11
 2024 009f 04       		.byte	0x4
 2025 00a0 05       		.byte	0x5
 2026 00a1 03       		.uleb128 0x3
 2027 00a2 B9030000 		.4byte	.LASF10
 2028 00a6 04       		.byte	0x4
ARM GAS  /cygdrive/c/DOCUME~1/mkwapisz/LOCALS~1/Temp/ccKuhkNd.s 			page 49


 2029 00a7 07       		.byte	0x7
 2030 00a8 08       		.uleb128 0x8
 2031 00a9 04       		.byte	0x4
 2032 00aa AE000000 		.4byte	0xae
 2033 00ae 03       		.uleb128 0x3
 2034 00af 28000000 		.4byte	.LASF12
 2035 00b3 01       		.byte	0x1
 2036 00b4 08       		.byte	0x8
 2037 00b5 08       		.uleb128 0x8
 2038 00b6 04       		.byte	0x4
 2039 00b7 BB000000 		.4byte	0xbb
 2040 00bb 09       		.uleb128 0x9
 2041 00bc AE000000 		.4byte	0xae
 2042 00c0 04       		.uleb128 0x4
 2043 00c1 42020000 		.4byte	.LASF13
 2044 00c5 08       		.byte	0x8
 2045 00c6 15       		.byte	0x15
 2046 00c7 30000000 		.4byte	0x30
 2047 00cb 04       		.uleb128 0x4
 2048 00cc 69020000 		.4byte	.LASF14
 2049 00d0 08       		.byte	0x8
 2050 00d1 1A       		.byte	0x1a
 2051 00d2 37000000 		.4byte	0x37
 2052 00d6 04       		.uleb128 0x4
 2053 00d7 AE000000 		.4byte	.LASF15
 2054 00db 08       		.byte	0x8
 2055 00dc 20       		.byte	0x20
 2056 00dd A1000000 		.4byte	0xa1
 2057 00e1 0A       		.uleb128 0xa
 2058 00e2 C0010000 		.4byte	0x1c0
 2059 00e6 FF020000 		.4byte	.LASF100
 2060 00ea 30       		.byte	0x30
 2061 00eb 06       		.byte	0x6
 2062 00ec 4B       		.byte	0x4b
 2063 00ed 0B       		.uleb128 0xb
 2064 00ee 57010000 		.4byte	.LASF16
 2065 00f2 06       		.byte	0x6
 2066 00f3 4C       		.byte	0x4c
 2067 00f4 C0000000 		.4byte	0xc0
 2068 00f8 02       		.byte	0x2
 2069 00f9 23       		.byte	0x23
 2070 00fa 00       		.uleb128 0x0
 2071 00fb 0B       		.uleb128 0xb
 2072 00fc 6E020000 		.4byte	.LASF17
 2073 0100 06       		.byte	0x6
 2074 0101 4D       		.byte	0x4d
 2075 0102 C0000000 		.4byte	0xc0
 2076 0106 02       		.byte	0x2
 2077 0107 23       		.byte	0x23
 2078 0108 01       		.uleb128 0x1
 2079 0109 0B       		.uleb128 0xb
 2080 010a 98010000 		.4byte	.LASF18
 2081 010e 06       		.byte	0x6
 2082 010f 4E       		.byte	0x4e
 2083 0110 C0000000 		.4byte	0xc0
 2084 0114 02       		.byte	0x2
 2085 0115 23       		.byte	0x23
ARM GAS  /cygdrive/c/DOCUME~1/mkwapisz/LOCALS~1/Temp/ccKuhkNd.s 			page 50


 2086 0116 02       		.uleb128 0x2
 2087 0117 0B       		.uleb128 0xb
 2088 0118 E4010000 		.4byte	.LASF19
 2089 011c 06       		.byte	0x6
 2090 011d 4F       		.byte	0x4f
 2091 011e C0000000 		.4byte	0xc0
 2092 0122 02       		.byte	0x2
 2093 0123 23       		.byte	0x23
 2094 0124 03       		.uleb128 0x3
 2095 0125 0B       		.uleb128 0xb
 2096 0126 8F030000 		.4byte	.LASF20
 2097 012a 06       		.byte	0x6
 2098 012b 50       		.byte	0x50
 2099 012c CB000000 		.4byte	0xcb
 2100 0130 02       		.byte	0x2
 2101 0131 23       		.byte	0x23
 2102 0132 04       		.uleb128 0x4
 2103 0133 0C       		.uleb128 0xc
 2104 0134 62756600 		.ascii	"buf\000"
 2105 0138 06       		.byte	0x6
 2106 0139 51       		.byte	0x51
 2107 013a C0010000 		.4byte	0x1c0
 2108 013e 02       		.byte	0x2
 2109 013f 23       		.byte	0x23
 2110 0140 08       		.uleb128 0x8
 2111 0141 0B       		.uleb128 0xb
 2112 0142 2F040000 		.4byte	.LASF21
 2113 0146 06       		.byte	0x6
 2114 0147 52       		.byte	0x52
 2115 0148 D6000000 		.4byte	0xd6
 2116 014c 02       		.byte	0x2
 2117 014d 23       		.byte	0x23
 2118 014e 0C       		.uleb128 0xc
 2119 014f 0B       		.uleb128 0xb
 2120 0150 09010000 		.4byte	.LASF22
 2121 0154 06       		.byte	0x6
 2122 0155 53       		.byte	0x53
 2123 0156 D6000000 		.4byte	0xd6
 2124 015a 02       		.byte	0x2
 2125 015b 23       		.byte	0x23
 2126 015c 10       		.uleb128 0x10
 2127 015d 0B       		.uleb128 0xb
 2128 015e AB030000 		.4byte	.LASF23
 2129 0162 06       		.byte	0x6
 2130 0163 54       		.byte	0x54
 2131 0164 D6000000 		.4byte	0xd6
 2132 0168 02       		.byte	0x2
 2133 0169 23       		.byte	0x23
 2134 016a 14       		.uleb128 0x14
 2135 016b 0B       		.uleb128 0xb
 2136 016c 6E040000 		.4byte	.LASF24
 2137 0170 06       		.byte	0x6
 2138 0171 55       		.byte	0x55
 2139 0172 D6000000 		.4byte	0xd6
 2140 0176 02       		.byte	0x2
 2141 0177 23       		.byte	0x23
 2142 0178 18       		.uleb128 0x18
ARM GAS  /cygdrive/c/DOCUME~1/mkwapisz/LOCALS~1/Temp/ccKuhkNd.s 			page 51


 2143 0179 0B       		.uleb128 0xb
 2144 017a 74020000 		.4byte	.LASF25
 2145 017e 06       		.byte	0x6
 2146 017f 56       		.byte	0x56
 2147 0180 D6000000 		.4byte	0xd6
 2148 0184 02       		.byte	0x2
 2149 0185 23       		.byte	0x23
 2150 0186 1C       		.uleb128 0x1c
 2151 0187 0B       		.uleb128 0xb
 2152 0188 31020000 		.4byte	.LASF26
 2153 018c 06       		.byte	0x6
 2154 018d 57       		.byte	0x57
 2155 018e D6000000 		.4byte	0xd6
 2156 0192 02       		.byte	0x2
 2157 0193 23       		.byte	0x23
 2158 0194 20       		.uleb128 0x20
 2159 0195 0B       		.uleb128 0xb
 2160 0196 75000000 		.4byte	.LASF27
 2161 019a 06       		.byte	0x6
 2162 019b 58       		.byte	0x58
 2163 019c D6000000 		.4byte	0xd6
 2164 01a0 02       		.byte	0x2
 2165 01a1 23       		.byte	0x23
 2166 01a2 24       		.uleb128 0x24
 2167 01a3 0B       		.uleb128 0xb
 2168 01a4 2E030000 		.4byte	.LASF28
 2169 01a8 06       		.byte	0x6
 2170 01a9 59       		.byte	0x59
 2171 01aa D6000000 		.4byte	0xd6
 2172 01ae 02       		.byte	0x2
 2173 01af 23       		.byte	0x23
 2174 01b0 28       		.uleb128 0x28
 2175 01b1 0B       		.uleb128 0xb
 2176 01b2 62000000 		.4byte	.LASF29
 2177 01b6 06       		.byte	0x6
 2178 01b7 5A       		.byte	0x5a
 2179 01b8 D6000000 		.4byte	0xd6
 2180 01bc 02       		.byte	0x2
 2181 01bd 23       		.byte	0x23
 2182 01be 2C       		.uleb128 0x2c
 2183 01bf 00       		.byte	0x0
 2184 01c0 08       		.uleb128 0x8
 2185 01c1 04       		.byte	0x4
 2186 01c2 C0000000 		.4byte	0xc0
 2187 01c6 04       		.uleb128 0x4
 2188 01c7 3A000000 		.4byte	.LASF30
 2189 01cb 06       		.byte	0x6
 2190 01cc 5B       		.byte	0x5b
 2191 01cd E1000000 		.4byte	0xe1
 2192 01d1 0D       		.uleb128 0xd
 2193 01d2 0A020000 		.4byte	0x20a
 2194 01d6 04       		.byte	0x4
 2195 01d7 06       		.byte	0x6
 2196 01d8 79       		.byte	0x79
 2197 01d9 0E       		.uleb128 0xe
 2198 01da D3030000 		.4byte	.LASF31
 2199 01de 00       		.sleb128 0
ARM GAS  /cygdrive/c/DOCUME~1/mkwapisz/LOCALS~1/Temp/ccKuhkNd.s 			page 52


 2200 01df 0E       		.uleb128 0xe
 2201 01e0 39030000 		.4byte	.LASF32
 2202 01e4 01       		.sleb128 1
 2203 01e5 0E       		.uleb128 0xe
 2204 01e6 2D000000 		.4byte	.LASF33
 2205 01ea 02       		.sleb128 2
 2206 01eb 0E       		.uleb128 0xe
 2207 01ec 37020000 		.4byte	.LASF34
 2208 01f0 03       		.sleb128 3
 2209 01f1 0E       		.uleb128 0xe
 2210 01f2 18030000 		.4byte	.LASF35
 2211 01f6 04       		.sleb128 4
 2212 01f7 0E       		.uleb128 0xe
 2213 01f8 FB000000 		.4byte	.LASF36
 2214 01fc 05       		.sleb128 5
 2215 01fd 0E       		.uleb128 0xe
 2216 01fe 9D010000 		.4byte	.LASF37
 2217 0202 06       		.sleb128 6
 2218 0203 0E       		.uleb128 0xe
 2219 0204 12020000 		.4byte	.LASF38
 2220 0208 07       		.sleb128 7
 2221 0209 00       		.byte	0x0
 2222 020a 04       		.uleb128 0x4
 2223 020b CB030000 		.4byte	.LASF39
 2224 020f 06       		.byte	0x6
 2225 0210 82       		.byte	0x82
 2226 0211 D1010000 		.4byte	0x1d1
 2227 0215 0D       		.uleb128 0xd
 2228 0216 42020000 		.4byte	0x242
 2229 021a 04       		.byte	0x4
 2230 021b 05       		.byte	0x5
 2231 021c 06       		.byte	0x6
 2232 021d 0E       		.uleb128 0xe
 2233 021e 1A000000 		.4byte	.LASF40
 2234 0222 00       		.sleb128 0
 2235 0223 0E       		.uleb128 0xe
 2236 0224 EA010000 		.4byte	.LASF41
 2237 0228 01       		.sleb128 1
 2238 0229 0E       		.uleb128 0xe
 2239 022a 04020000 		.4byte	.LASF42
 2240 022e 02       		.sleb128 2
 2241 022f 0E       		.uleb128 0xe
 2242 0230 83030000 		.4byte	.LASF43
 2243 0234 03       		.sleb128 3
 2244 0235 0E       		.uleb128 0xe
 2245 0236 0C030000 		.4byte	.LASF44
 2246 023a 04       		.sleb128 4
 2247 023b 0E       		.uleb128 0xe
 2248 023c BA010000 		.4byte	.LASF45
 2249 0240 05       		.sleb128 5
 2250 0241 00       		.byte	0x0
 2251 0242 04       		.uleb128 0x4
 2252 0243 68000000 		.4byte	.LASF46
 2253 0247 05       		.byte	0x5
 2254 0248 0D       		.byte	0xd
 2255 0249 15020000 		.4byte	0x215
 2256 024d 0F       		.uleb128 0xf
ARM GAS  /cygdrive/c/DOCUME~1/mkwapisz/LOCALS~1/Temp/ccKuhkNd.s 			page 53


 2257 024e 72020000 		.4byte	0x272
 2258 0252 93000000 		.4byte	.LASF47
 2259 0256 01       		.byte	0x1
 2260 0257 25       		.byte	0x25
 2261 0258 01       		.byte	0x1
 2262 0259 00000000 		.4byte	.LFB3
 2263 025d 28000000 		.4byte	.LFE3
 2264 0261 00000000 		.4byte	.LLST0
 2265 0265 10       		.uleb128 0x10
 2266 0266 6900     		.ascii	"i\000"
 2267 0268 01       		.byte	0x1
 2268 0269 26       		.byte	0x26
 2269 026a 72020000 		.4byte	0x272
 2270 026e 02       		.byte	0x2
 2271 026f 91       		.byte	0x91
 2272 0270 7C       		.sleb128 -4
 2273 0271 00       		.byte	0x0
 2274 0272 11       		.uleb128 0x11
 2275 0273 3E000000 		.4byte	0x3e
 2276 0277 12       		.uleb128 0x12
 2277 0278 9D020000 		.4byte	0x29d
 2278 027c 5F010000 		.4byte	.LASF48
 2279 0280 01       		.byte	0x1
 2280 0281 33       		.byte	0x33
 2281 0282 01       		.byte	0x1
 2282 0283 28000000 		.4byte	.LFB4
 2283 0287 4C000000 		.4byte	.LFE4
 2284 028b 01       		.byte	0x1
 2285 028c 5D       		.byte	0x5d
 2286 028d 13       		.uleb128 0x13
 2287 028e 11040000 		.4byte	.LASF50
 2288 0292 01       		.byte	0x1
 2289 0293 32       		.byte	0x32
 2290 0294 25000000 		.4byte	0x25
 2291 0298 1F000000 		.4byte	.LLST2
 2292 029c 00       		.byte	0x0
 2293 029d 0F       		.uleb128 0xf
 2294 029e E1020000 		.4byte	0x2e1
 2295 02a2 6E010000 		.4byte	.LASF49
 2296 02a6 01       		.byte	0x1
 2297 02a7 41       		.byte	0x41
 2298 02a8 01       		.byte	0x1
 2299 02a9 4C000000 		.4byte	.LFB5
 2300 02ad DC000000 		.4byte	.LFE5
 2301 02b1 3D000000 		.4byte	.LLST3
 2302 02b5 14       		.uleb128 0x14
 2303 02b6 72656700 		.ascii	"reg\000"
 2304 02ba 01       		.byte	0x1
 2305 02bb 40       		.byte	0x40
 2306 02bc 25000000 		.4byte	0x25
 2307 02c0 5C000000 		.4byte	.LLST4
 2308 02c4 13       		.uleb128 0x13
 2309 02c5 B5010000 		.4byte	.LASF51
 2310 02c9 01       		.byte	0x1
 2311 02ca 40       		.byte	0x40
 2312 02cb 25000000 		.4byte	0x25
 2313 02cf 6F000000 		.4byte	.LLST5
ARM GAS  /cygdrive/c/DOCUME~1/mkwapisz/LOCALS~1/Temp/ccKuhkNd.s 			page 54


 2314 02d3 15       		.uleb128 0x15
 2315 02d4 6900     		.ascii	"i\000"
 2316 02d6 01       		.byte	0x1
 2317 02d7 42       		.byte	0x42
 2318 02d8 E1020000 		.4byte	0x2e1
 2319 02dc 98000000 		.4byte	.LLST6
 2320 02e0 00       		.byte	0x0
 2321 02e1 11       		.uleb128 0x11
 2322 02e2 25000000 		.4byte	0x25
 2323 02e6 0F       		.uleb128 0xf
 2324 02e7 0E030000 		.4byte	0x30e
 2325 02eb 23030000 		.4byte	.LASF52
 2326 02ef 01       		.byte	0x1
 2327 02f0 63       		.byte	0x63
 2328 02f1 01       		.byte	0x1
 2329 02f2 DC000000 		.4byte	.LFB6
 2330 02f6 FE000000 		.4byte	.LFE6
 2331 02fa FC000000 		.4byte	.LLST7
 2332 02fe 13       		.uleb128 0x13
 2333 02ff B3030000 		.4byte	.LASF53
 2334 0303 01       		.byte	0x1
 2335 0304 62       		.byte	0x62
 2336 0305 B5000000 		.4byte	0xb5
 2337 0309 1B010000 		.4byte	.LLST8
 2338 030d 00       		.byte	0x0
 2339 030e 16       		.uleb128 0x16
 2340 030f 35030000 		.4byte	0x335
 2341 0313 01       		.byte	0x1
 2342 0314 40000000 		.4byte	.LASF55
 2343 0318 02       		.byte	0x2
 2344 0319 8201     		.2byte	0x182
 2345 031b 01       		.byte	0x1
 2346 031c 00010000 		.4byte	.LFB22
 2347 0320 10010000 		.4byte	.LFE22
 2348 0324 01       		.byte	0x1
 2349 0325 5D       		.byte	0x5d
 2350 0326 17       		.uleb128 0x17
 2351 0327 8C010000 		.4byte	.LASF54
 2352 032b 02       		.byte	0x2
 2353 032c 8101     		.2byte	0x181
 2354 032e 3E000000 		.4byte	0x3e
 2355 0332 01       		.byte	0x1
 2356 0333 50       		.byte	0x50
 2357 0334 00       		.byte	0x0
 2358 0335 18       		.uleb128 0x18
 2359 0336 6F030000 		.4byte	0x36f
 2360 033a 01       		.byte	0x1
 2361 033b 07030000 		.4byte	.LASF56
 2362 033f 02       		.byte	0x2
 2363 0340 49       		.byte	0x49
 2364 0341 01       		.byte	0x1
 2365 0342 69000000 		.4byte	0x69
 2366 0346 10010000 		.4byte	.LFB12
 2367 034a 6C010000 		.4byte	.LFE12
 2368 034e 44010000 		.4byte	.LLST10
 2369 0352 19       		.uleb128 0x19
 2370 0353 7F000000 		.4byte	.LASF57
ARM GAS  /cygdrive/c/DOCUME~1/mkwapisz/LOCALS~1/Temp/ccKuhkNd.s 			page 55


 2371 0357 02       		.byte	0x2
 2372 0358 4A       		.byte	0x4a
 2373 0359 25000000 		.4byte	0x25
 2374 035d 02       		.byte	0x2
 2375 035e 91       		.byte	0x91
 2376 035f 73       		.sleb128 -13
 2377 0360 19       		.uleb128 0x19
 2378 0361 AC010000 		.4byte	.LASF58
 2379 0365 02       		.byte	0x2
 2380 0366 4B       		.byte	0x4b
 2381 0367 25000000 		.4byte	0x25
 2382 036b 02       		.byte	0x2
 2383 036c 75       		.byte	0x75
 2384 036d 00       		.sleb128 0
 2385 036e 00       		.byte	0x0
 2386 036f 0F       		.uleb128 0xf
 2387 0370 A6030000 		.4byte	0x3a6
 2388 0374 C8010000 		.4byte	.LASF59
 2389 0378 03       		.byte	0x3
 2390 0379 1D       		.byte	0x1d
 2391 037a 01       		.byte	0x1
 2392 037b 6C010000 		.4byte	.LFB11
 2393 037f 64020000 		.4byte	.LFE11
 2394 0383 6F010000 		.4byte	.LLST11
 2395 0387 13       		.uleb128 0x13
 2396 0388 77040000 		.4byte	.LASF60
 2397 038c 03       		.byte	0x3
 2398 038d 1C       		.byte	0x1c
 2399 038e 25000000 		.4byte	0x25
 2400 0392 8E010000 		.4byte	.LLST12
 2401 0396 13       		.uleb128 0x13
 2402 0397 E6000000 		.4byte	.LASF61
 2403 039b 03       		.byte	0x3
 2404 039c 1C       		.byte	0x1c
 2405 039d 69000000 		.4byte	0x69
 2406 03a1 B7010000 		.4byte	.LLST13
 2407 03a5 00       		.byte	0x0
 2408 03a6 1A       		.uleb128 0x1a
 2409 03a7 D8020000 		.4byte	.LASF64
 2410 03ab 01       		.byte	0x1
 2411 03ac 71       		.byte	0x71
 2412 03ad 64020000 		.4byte	.LFB7
 2413 03b1 78020000 		.4byte	.LFE7
 2414 03b5 E0010000 		.4byte	.LLST14
 2415 03b9 0F       		.uleb128 0xf
 2416 03ba E1030000 		.4byte	0x3e1
 2417 03be 53020000 		.4byte	.LASF62
 2418 03c2 01       		.byte	0x1
 2419 03c3 77       		.byte	0x77
 2420 03c4 01       		.byte	0x1
 2421 03c5 78020000 		.4byte	.LFB8
 2422 03c9 92020000 		.4byte	.LFE8
 2423 03cd FF010000 		.4byte	.LLST15
 2424 03d1 13       		.uleb128 0x13
 2425 03d2 39040000 		.4byte	.LASF63
 2426 03d6 01       		.byte	0x1
 2427 03d7 76       		.byte	0x76
ARM GAS  /cygdrive/c/DOCUME~1/mkwapisz/LOCALS~1/Temp/ccKuhkNd.s 			page 56


 2428 03d8 69000000 		.4byte	0x69
 2429 03dc 1E020000 		.4byte	.LLST16
 2430 03e0 00       		.byte	0x0
 2431 03e1 1B       		.uleb128 0x1b
 2432 03e2 44010000 		.4byte	.LASF65
 2433 03e6 01       		.byte	0x1
 2434 03e7 8F       		.byte	0x8f
 2435 03e8 01       		.byte	0x1
 2436 03e9 01       		.byte	0x1
 2437 03ea 1B       		.uleb128 0x1b
 2438 03eb 79020000 		.4byte	.LASF66
 2439 03ef 01       		.byte	0x1
 2440 03f0 15       		.byte	0x15
 2441 03f1 01       		.byte	0x1
 2442 03f2 01       		.byte	0x1
 2443 03f3 1C       		.uleb128 0x1c
 2444 03f4 17040000 		.4byte	.LASF67
 2445 03f8 01       		.byte	0x1
 2446 03f9 86       		.byte	0x86
 2447 03fa 01       		.byte	0x1
 2448 03fb 0F       		.uleb128 0xf
 2449 03fc 51040000 		.4byte	0x451
 2450 0400 9F030000 		.4byte	.LASF68
 2451 0404 02       		.byte	0x2
 2452 0405 74       		.byte	0x74
 2453 0406 01       		.byte	0x1
 2454 0407 94020000 		.4byte	.LFB14
 2455 040b 74030000 		.4byte	.LFE14
 2456 040f 31020000 		.4byte	.LLST17
 2457 0413 14       		.uleb128 0x14
 2458 0414 61726700 		.ascii	"arg\000"
 2459 0418 02       		.byte	0x2
 2460 0419 73       		.byte	0x73
 2461 041a 90000000 		.4byte	0x90
 2462 041e 50020000 		.4byte	.LLST18
 2463 0422 1D       		.uleb128 0x1d
 2464 0423 E1030000 		.4byte	0x3e1
 2465 0427 96020000 		.4byte	.LBB8
 2466 042b 74030000 		.4byte	.LBE8
 2467 042f 02       		.byte	0x2
 2468 0430 75       		.byte	0x75
 2469 0431 1E       		.uleb128 0x1e
 2470 0432 EA030000 		.4byte	0x3ea
 2471 0436 96020000 		.4byte	.LBB10
 2472 043a C0020000 		.4byte	.LBE10
 2473 043e 01       		.byte	0x1
 2474 043f 90       		.byte	0x90
 2475 0440 1E       		.uleb128 0x1e
 2476 0441 F3030000 		.4byte	0x3f3
 2477 0445 3A030000 		.4byte	.LBB12
 2478 0449 46030000 		.4byte	.LBE12
 2479 044d 01       		.byte	0x1
 2480 044e B2       		.byte	0xb2
 2481 044f 00       		.byte	0x0
 2482 0450 00       		.byte	0x0
 2483 0451 1F       		.uleb128 0x1f
 2484 0452 99040000 		.4byte	0x499
ARM GAS  /cygdrive/c/DOCUME~1/mkwapisz/LOCALS~1/Temp/ccKuhkNd.s 			page 57


 2485 0456 81020000 		.4byte	.LASF69
 2486 045a 02       		.byte	0x2
 2487 045b 2501     		.2byte	0x125
 2488 045d 01       		.byte	0x1
 2489 045e 74030000 		.4byte	.LFB19
 2490 0462 9E030000 		.4byte	.LFE19
 2491 0466 63020000 		.4byte	.LLST19
 2492 046a 20       		.uleb128 0x20
 2493 046b 7300     		.ascii	"s\000"
 2494 046d 02       		.byte	0x2
 2495 046e 2401     		.2byte	0x124
 2496 0470 A8000000 		.4byte	0xa8
 2497 0474 82020000 		.4byte	.LLST20
 2498 0478 21       		.uleb128 0x21
 2499 0479 7D030000 		.4byte	.LASF70
 2500 047d 02       		.byte	0x2
 2501 047e 2401     		.2byte	0x124
 2502 0480 69000000 		.4byte	0x69
 2503 0484 AB020000 		.4byte	.LLST21
 2504 0488 21       		.uleb128 0x21
 2505 0489 F9010000 		.4byte	.LASF71
 2506 048d 02       		.byte	0x2
 2507 048e 2401     		.2byte	0x124
 2508 0490 69000000 		.4byte	0x69
 2509 0494 D4020000 		.4byte	.LLST22
 2510 0498 00       		.byte	0x0
 2511 0499 22       		.uleb128 0x22
 2512 049a E0040000 		.4byte	0x4e0
 2513 049e D9030000 		.4byte	.LASF72
 2514 04a2 02       		.byte	0x2
 2515 04a3 98       		.byte	0x98
 2516 04a4 01       		.byte	0x1
 2517 04a5 01       		.byte	0x1
 2518 04a6 23       		.uleb128 0x23
 2519 04a7 61726700 		.ascii	"arg\000"
 2520 04ab 02       		.byte	0x2
 2521 04ac 97       		.byte	0x97
 2522 04ad 90000000 		.4byte	0x90
 2523 04b1 24       		.uleb128 0x24
 2524 04b2 A3000000 		.4byte	.LASF73
 2525 04b6 02       		.byte	0x2
 2526 04b7 99       		.byte	0x99
 2527 04b8 69000000 		.4byte	0x69
 2528 04bc 24       		.uleb128 0x24
 2529 04bd ED000000 		.4byte	.LASF74
 2530 04c1 02       		.byte	0x2
 2531 04c2 9A       		.byte	0x9a
 2532 04c3 69000000 		.4byte	0x69
 2533 04c7 24       		.uleb128 0x24
 2534 04c8 D5010000 		.4byte	.LASF75
 2535 04cc 02       		.byte	0x2
 2536 04cd 9E       		.byte	0x9e
 2537 04ce 42020000 		.4byte	0x242
 2538 04d2 25       		.uleb128 0x25
 2539 04d3 24       		.uleb128 0x24
 2540 04d4 85000000 		.4byte	.LASF76
 2541 04d8 02       		.byte	0x2
ARM GAS  /cygdrive/c/DOCUME~1/mkwapisz/LOCALS~1/Temp/ccKuhkNd.s 			page 58


 2542 04d9 C9       		.byte	0xc9
 2543 04da 25000000 		.4byte	0x25
 2544 04de 00       		.byte	0x0
 2545 04df 00       		.byte	0x0
 2546 04e0 26       		.uleb128 0x26
 2547 04e1 05050000 		.4byte	0x505
 2548 04e5 E5020000 		.4byte	.LASF77
 2549 04e9 02       		.byte	0x2
 2550 04ea 1901     		.2byte	0x119
 2551 04ec 01       		.byte	0x1
 2552 04ed 01       		.byte	0x1
 2553 04ee 27       		.uleb128 0x27
 2554 04ef 7300     		.ascii	"s\000"
 2555 04f1 02       		.byte	0x2
 2556 04f2 1801     		.2byte	0x118
 2557 04f4 A8000000 		.4byte	0xa8
 2558 04f8 28       		.uleb128 0x28
 2559 04f9 F9010000 		.4byte	.LASF71
 2560 04fd 02       		.byte	0x2
 2561 04fe 1801     		.2byte	0x118
 2562 0500 69000000 		.4byte	0x69
 2563 0504 00       		.byte	0x0
 2564 0505 29       		.uleb128 0x29
 2565 0506 22050000 		.4byte	0x522
 2566 050a C1020000 		.4byte	.LASF78
 2567 050e 02       		.byte	0x2
 2568 050f 7C       		.byte	0x7c
 2569 0510 01       		.byte	0x1
 2570 0511 A8000000 		.4byte	0xa8
 2571 0515 01       		.byte	0x1
 2572 0516 2A       		.uleb128 0x2a
 2573 0517 F9030000 		.4byte	.LASF79
 2574 051b 02       		.byte	0x2
 2575 051c 7B       		.byte	0x7b
 2576 051d 0A020000 		.4byte	0x20a
 2577 0521 00       		.byte	0x0
 2578 0522 2B       		.uleb128 0x2b
 2579 0523 50050000 		.4byte	0x550
 2580 0527 D6000000 		.4byte	.LASF80
 2581 052b 02       		.byte	0x2
 2582 052c EB       		.byte	0xeb
 2583 052d 01       		.byte	0x1
 2584 052e 2C       		.uleb128 0x2c
 2585 052f 636E7400 		.ascii	"cnt\000"
 2586 0533 02       		.byte	0x2
 2587 0534 EC       		.byte	0xec
 2588 0535 3E000000 		.4byte	0x3e
 2589 0539 2C       		.uleb128 0x2c
 2590 053a 6900     		.ascii	"i\000"
 2591 053c 02       		.byte	0x2
 2592 053d ED       		.byte	0xed
 2593 053e 3E000000 		.4byte	0x3e
 2594 0542 25       		.uleb128 0x25
 2595 0543 2C       		.uleb128 0x2c
 2596 0544 76616C00 		.ascii	"val\000"
 2597 0548 02       		.byte	0x2
 2598 0549 FE       		.byte	0xfe
ARM GAS  /cygdrive/c/DOCUME~1/mkwapisz/LOCALS~1/Temp/ccKuhkNd.s 			page 59


 2599 054a 5E000000 		.4byte	0x5e
 2600 054e 00       		.byte	0x0
 2601 054f 00       		.byte	0x0
 2602 0550 26       		.uleb128 0x26
 2603 0551 83050000 		.4byte	0x583
 2604 0555 00000000 		.4byte	.LASF81
 2605 0559 02       		.byte	0x2
 2606 055a 3601     		.2byte	0x136
 2607 055c 01       		.byte	0x1
 2608 055d 01       		.byte	0x1
 2609 055e 28       		.uleb128 0x28
 2610 055f 61030000 		.4byte	.LASF82
 2611 0563 02       		.byte	0x2
 2612 0564 3501     		.2byte	0x135
 2613 0566 69000000 		.4byte	0x69
 2614 056a 2D       		.uleb128 0x2d
 2615 056b 6900     		.ascii	"i\000"
 2616 056d 02       		.byte	0x2
 2617 056e 3701     		.2byte	0x137
 2618 0570 69000000 		.4byte	0x69
 2619 0574 25       		.uleb128 0x25
 2620 0575 2E       		.uleb128 0x2e
 2621 0576 99030000 		.4byte	.LASF83
 2622 057a 02       		.byte	0x2
 2623 057b 4401     		.2byte	0x144
 2624 057d 83050000 		.4byte	0x583
 2625 0581 00       		.byte	0x0
 2626 0582 00       		.byte	0x0
 2627 0583 2F       		.uleb128 0x2f
 2628 0584 93050000 		.4byte	0x593
 2629 0588 AE000000 		.4byte	0xae
 2630 058c 30       		.uleb128 0x30
 2631 058d 89000000 		.4byte	0x89
 2632 0591 0B       		.byte	0xb
 2633 0592 00       		.byte	0x0
 2634 0593 0F       		.uleb128 0xf
 2635 0594 9A060000 		.4byte	0x69a
 2636 0598 4F030000 		.4byte	.LASF84
 2637 059c 02       		.byte	0x2
 2638 059d 5F       		.byte	0x5f
 2639 059e 01       		.byte	0x1
 2640 059f A0030000 		.4byte	.LFB13
 2641 05a3 48060000 		.4byte	.LFE13
 2642 05a7 F2020000 		.4byte	.LLST23
 2643 05ab 14       		.uleb128 0x14
 2644 05ac 61726700 		.ascii	"arg\000"
 2645 05b0 02       		.byte	0x2
 2646 05b1 5E       		.byte	0x5e
 2647 05b2 90000000 		.4byte	0x90
 2648 05b6 29030000 		.4byte	.LLST24
 2649 05ba 19       		.uleb128 0x19
 2650 05bb 7F000000 		.4byte	.LASF57
 2651 05bf 02       		.byte	0x2
 2652 05c0 60       		.byte	0x60
 2653 05c1 25000000 		.4byte	0x25
 2654 05c5 02       		.byte	0x2
 2655 05c6 91       		.byte	0x91
ARM GAS  /cygdrive/c/DOCUME~1/mkwapisz/LOCALS~1/Temp/ccKuhkNd.s 			page 60


 2656 05c7 67       		.sleb128 -25
 2657 05c8 31       		.uleb128 0x31
 2658 05c9 72060000 		.4byte	0x672
 2659 05cd 99040000 		.4byte	0x499
 2660 05d1 00000000 		.4byte	.Ldebug_ranges0+0x0
 2661 05d5 02       		.byte	0x2
 2662 05d6 6A       		.byte	0x6a
 2663 05d7 32       		.uleb128 0x32
 2664 05d8 A6040000 		.4byte	0x4a6
 2665 05dc 33       		.uleb128 0x33
 2666 05dd 17060000 		.4byte	0x617
 2667 05e1 18000000 		.4byte	.Ldebug_ranges0+0x18
 2668 05e5 34       		.uleb128 0x34
 2669 05e6 B1040000 		.4byte	0x4b1
 2670 05ea 3C030000 		.4byte	.LLST25
 2671 05ee 34       		.uleb128 0x34
 2672 05ef BC040000 		.4byte	0x4bc
 2673 05f3 70030000 		.4byte	.LLST26
 2674 05f7 35       		.uleb128 0x35
 2675 05f8 C7040000 		.4byte	0x4c7
 2676 05fc 1D       		.uleb128 0x1d
 2677 05fd E0040000 		.4byte	0x4e0
 2678 0601 E2030000 		.4byte	.LBB29
 2679 0605 EC030000 		.4byte	.LBE29
 2680 0609 02       		.byte	0x2
 2681 060a A5       		.byte	0xa5
 2682 060b 32       		.uleb128 0x32
 2683 060c F8040000 		.4byte	0x4f8
 2684 0610 32       		.uleb128 0x32
 2685 0611 EE040000 		.4byte	0x4ee
 2686 0615 00       		.byte	0x0
 2687 0616 00       		.byte	0x0
 2688 0617 33       		.uleb128 0x33
 2689 0618 42060000 		.4byte	0x642
 2690 061c 40000000 		.4byte	.Ldebug_ranges0+0x40
 2691 0620 35       		.uleb128 0x35
 2692 0621 D3040000 		.4byte	0x4d3
 2693 0625 36       		.uleb128 0x36
 2694 0626 50050000 		.4byte	0x550
 2695 062a 70000000 		.4byte	.Ldebug_ranges0+0x70
 2696 062e 02       		.byte	0x2
 2697 062f E1       		.byte	0xe1
 2698 0630 32       		.uleb128 0x32
 2699 0631 5E050000 		.4byte	0x55e
 2700 0635 37       		.uleb128 0x37
 2701 0636 98000000 		.4byte	.Ldebug_ranges0+0x98
 2702 063a 35       		.uleb128 0x35
 2703 063b 6A050000 		.4byte	0x56a
 2704 063f 00       		.byte	0x0
 2705 0640 00       		.byte	0x0
 2706 0641 00       		.byte	0x0
 2707 0642 36       		.uleb128 0x36
 2708 0643 22050000 		.4byte	0x522
 2709 0647 C0000000 		.4byte	.Ldebug_ranges0+0xc0
 2710 064b 02       		.byte	0x2
 2711 064c DD       		.byte	0xdd
 2712 064d 37       		.uleb128 0x37
ARM GAS  /cygdrive/c/DOCUME~1/mkwapisz/LOCALS~1/Temp/ccKuhkNd.s 			page 61


 2713 064e D8000000 		.4byte	.Ldebug_ranges0+0xd8
 2714 0652 35       		.uleb128 0x35
 2715 0653 2E050000 		.4byte	0x52e
 2716 0657 34       		.uleb128 0x34
 2717 0658 39050000 		.4byte	0x539
 2718 065c A4030000 		.4byte	.LLST27
 2719 0660 37       		.uleb128 0x37
 2720 0661 F0000000 		.4byte	.Ldebug_ranges0+0xf0
 2721 0665 34       		.uleb128 0x34
 2722 0666 43050000 		.4byte	0x543
 2723 066a CD030000 		.4byte	.LLST28
 2724 066e 00       		.byte	0x0
 2725 066f 00       		.byte	0x0
 2726 0670 00       		.byte	0x0
 2727 0671 00       		.byte	0x0
 2728 0672 38       		.uleb128 0x38
 2729 0673 88060000 		.4byte	0x688
 2730 0677 50050000 		.4byte	.LBB50
 2731 067b 74050000 		.4byte	.LBE50
 2732 067f 39       		.uleb128 0x39
 2733 0680 75050000 		.4byte	0x575
 2734 0684 02       		.byte	0x2
 2735 0685 91       		.byte	0x91
 2736 0686 5B       		.sleb128 -37
 2737 0687 00       		.byte	0x0
 2738 0688 36       		.uleb128 0x36
 2739 0689 05050000 		.4byte	0x505
 2740 068d 08010000 		.4byte	.Ldebug_ranges0+0x108
 2741 0691 02       		.byte	0x2
 2742 0692 C2       		.byte	0xc2
 2743 0693 32       		.uleb128 0x32
 2744 0694 16050000 		.4byte	0x516
 2745 0698 00       		.byte	0x0
 2746 0699 00       		.byte	0x0
 2747 069a 3A       		.uleb128 0x3a
 2748 069b 43040000 		.4byte	.LASF85
 2749 069f 04       		.byte	0x4
 2750 06a0 66       		.byte	0x66
 2751 06a1 70000000 		.4byte	0x70
 2752 06a5 00       		.byte	0x0
 2753 06a6 19       		.uleb128 0x19
 2754 06a7 83040000 		.4byte	.LASF86
 2755 06ab 03       		.byte	0x3
 2756 06ac 16       		.byte	0x16
 2757 06ad 25000000 		.4byte	0x25
 2758 06b1 05       		.byte	0x5
 2759 06b2 03       		.byte	0x3
 2760 06b3 08000000 		.4byte	inicjalizacjaZakonczona
 2761 06b7 24       		.uleb128 0x24
 2762 06b8 B2020000 		.4byte	.LASF87
 2763 06bc 07       		.byte	0x7
 2764 06bd 2B       		.byte	0x2b
 2765 06be 94000000 		.4byte	0x94
 2766 06c2 2F       		.uleb128 0x2f
 2767 06c3 D3060000 		.4byte	0x6d3
 2768 06c7 25000000 		.4byte	0x25
 2769 06cb 3B       		.uleb128 0x3b
ARM GAS  /cygdrive/c/DOCUME~1/mkwapisz/LOCALS~1/Temp/ccKuhkNd.s 			page 62


 2770 06cc 89000000 		.4byte	0x89
 2771 06d0 8F01     		.2byte	0x18f
 2772 06d2 00       		.byte	0x0
 2773 06d3 19       		.uleb128 0x19
 2774 06d4 E2030000 		.4byte	.LASF88
 2775 06d8 02       		.byte	0x2
 2776 06d9 1C       		.byte	0x1c
 2777 06da C2060000 		.4byte	0x6c2
 2778 06de 05       		.byte	0x5
 2779 06df 03       		.byte	0x3
 2780 06e0 09000000 		.4byte	stack_Main
 2781 06e4 2F       		.uleb128 0x2f
 2782 06e5 F5060000 		.4byte	0x6f5
 2783 06e9 25000000 		.4byte	0x25
 2784 06ed 3B       		.uleb128 0x3b
 2785 06ee 89000000 		.4byte	0x89
 2786 06f2 FF07     		.2byte	0x7ff
 2787 06f4 00       		.byte	0x0
 2788 06f5 19       		.uleb128 0x19
 2789 06f6 6A030000 		.4byte	.LASF89
 2790 06fa 02       		.byte	0x2
 2791 06fb 20       		.byte	0x20
 2792 06fc E4060000 		.4byte	0x6e4
 2793 0700 05       		.byte	0x5
 2794 0701 03       		.byte	0x3
 2795 0702 99010000 		.4byte	stack_LCD2x16
 2796 0706 19       		.uleb128 0x19
 2797 0707 47020000 		.4byte	.LASF90
 2798 070b 02       		.byte	0x2
 2799 070c 21       		.byte	0x21
 2800 070d 25000000 		.4byte	0x25
 2801 0711 05       		.byte	0x5
 2802 0712 03       		.byte	0x3
 2803 0713 99090000 		.4byte	pid_lcd2x16
 2804 0717 2F       		.uleb128 0x2f
 2805 0718 22070000 		.4byte	0x722
 2806 071c AE000000 		.4byte	0xae
 2807 0720 3C       		.uleb128 0x3c
 2808 0721 00       		.byte	0x0
 2809 0722 3D       		.uleb128 0x3d
 2810 0723 55000000 		.4byte	.LASF91
 2811 0727 02       		.byte	0x2
 2812 0728 18       		.byte	0x18
 2813 0729 17070000 		.4byte	0x717
 2814 072d 01       		.byte	0x1
 2815 072e 01       		.byte	0x1
 2816 072f 3E       		.uleb128 0x3e
 2817 0730 9D020000 		.4byte	.LASF92
 2818 0734 02       		.byte	0x2
 2819 0735 30       		.byte	0x30
 2820 0736 0A020000 		.4byte	0x20a
 2821 073a 01       		.byte	0x1
 2822 073b 05       		.byte	0x5
 2823 073c 03       		.byte	0x3
 2824 073d 00000000 		.4byte	wynikInicjalizacjiSd
 2825 0741 3E       		.uleb128 0x3e
 2826 0742 9D000000 		.4byte	.LASF93
ARM GAS  /cygdrive/c/DOCUME~1/mkwapisz/LOCALS~1/Temp/ccKuhkNd.s 			page 63


 2827 0746 02       		.byte	0x2
 2828 0747 31       		.byte	0x31
 2829 0748 C6010000 		.4byte	0x1c6
 2830 074c 01       		.byte	0x1
 2831 074d 05       		.byte	0x5
 2832 074e 03       		.byte	0x3
 2833 074f 00000000 		.4byte	fatfs
 2834 0753 3F       		.uleb128 0x3f
 2835 0754 726300   		.ascii	"rc\000"
 2836 0757 02       		.byte	0x2
 2837 0758 36       		.byte	0x36
 2838 0759 D6000000 		.4byte	0xd6
 2839 075d 01       		.byte	0x1
 2840 075e 05       		.byte	0x5
 2841 075f 03       		.byte	0x3
 2842 0760 00000000 		.4byte	rc
 2843 0764 3E       		.uleb128 0x3e
 2844 0765 DC010000 		.4byte	.LASF94
 2845 0769 02       		.byte	0x2
 2846 076a 37       		.byte	0x37
 2847 076b 72020000 		.4byte	0x272
 2848 076f 01       		.byte	0x1
 2849 0770 05       		.byte	0x5
 2850 0771 03       		.byte	0x3
 2851 0772 00000000 		.4byte	msClock
 2852 0776 3E       		.uleb128 0x3e
 2853 0777 B4000000 		.4byte	.LASF95
 2854 077b 02       		.byte	0x2
 2855 077c 3E       		.byte	0x3e
 2856 077d 69000000 		.4byte	0x69
 2857 0781 01       		.byte	0x1
 2858 0782 05       		.byte	0x5
 2859 0783 03       		.byte	0x3
 2860 0784 00000000 		.4byte	kolorDiody
 2861 0788 2F       		.uleb128 0x2f
 2862 0789 98070000 		.4byte	0x798
 2863 078d AE000000 		.4byte	0xae
 2864 0791 30       		.uleb128 0x30
 2865 0792 89000000 		.4byte	0x89
 2866 0796 77       		.byte	0x77
 2867 0797 00       		.byte	0x0
 2868 0798 3E       		.uleb128 0x3e
 2869 0799 80010000 		.4byte	.LASF96
 2870 079d 02       		.byte	0x2
 2871 079e 43       		.byte	0x43
 2872 079f 88070000 		.4byte	0x788
 2873 07a3 01       		.byte	0x1
 2874 07a4 05       		.byte	0x5
 2875 07a5 03       		.byte	0x3
 2876 07a6 00000000 		.4byte	listaPlikow
 2877 07aa 00       		.byte	0x0
 2878              		.section	.debug_abbrev
 2879 0000 01       		.uleb128 0x1
 2880 0001 11       		.uleb128 0x11
 2881 0002 01       		.byte	0x1
 2882 0003 10       		.uleb128 0x10
 2883 0004 06       		.uleb128 0x6
ARM GAS  /cygdrive/c/DOCUME~1/mkwapisz/LOCALS~1/Temp/ccKuhkNd.s 			page 64


 2884 0005 12       		.uleb128 0x12
 2885 0006 01       		.uleb128 0x1
 2886 0007 11       		.uleb128 0x11
 2887 0008 01       		.uleb128 0x1
 2888 0009 25       		.uleb128 0x25
 2889 000a 0E       		.uleb128 0xe
 2890 000b 13       		.uleb128 0x13
 2891 000c 0B       		.uleb128 0xb
 2892 000d 03       		.uleb128 0x3
 2893 000e 0E       		.uleb128 0xe
 2894 000f 1B       		.uleb128 0x1b
 2895 0010 0E       		.uleb128 0xe
 2896 0011 00       		.byte	0x0
 2897 0012 00       		.byte	0x0
 2898 0013 02       		.uleb128 0x2
 2899 0014 16       		.uleb128 0x16
 2900 0015 00       		.byte	0x0
 2901 0016 03       		.uleb128 0x3
 2902 0017 08       		.uleb128 0x8
 2903 0018 3A       		.uleb128 0x3a
 2904 0019 0B       		.uleb128 0xb
 2905 001a 3B       		.uleb128 0x3b
 2906 001b 0B       		.uleb128 0xb
 2907 001c 49       		.uleb128 0x49
 2908 001d 13       		.uleb128 0x13
 2909 001e 00       		.byte	0x0
 2910 001f 00       		.byte	0x0
 2911 0020 03       		.uleb128 0x3
 2912 0021 24       		.uleb128 0x24
 2913 0022 00       		.byte	0x0
 2914 0023 03       		.uleb128 0x3
 2915 0024 0E       		.uleb128 0xe
 2916 0025 0B       		.uleb128 0xb
 2917 0026 0B       		.uleb128 0xb
 2918 0027 3E       		.uleb128 0x3e
 2919 0028 0B       		.uleb128 0xb
 2920 0029 00       		.byte	0x0
 2921 002a 00       		.byte	0x0
 2922 002b 04       		.uleb128 0x4
 2923 002c 16       		.uleb128 0x16
 2924 002d 00       		.byte	0x0
 2925 002e 03       		.uleb128 0x3
 2926 002f 0E       		.uleb128 0xe
 2927 0030 3A       		.uleb128 0x3a
 2928 0031 0B       		.uleb128 0xb
 2929 0032 3B       		.uleb128 0x3b
 2930 0033 0B       		.uleb128 0xb
 2931 0034 49       		.uleb128 0x49
 2932 0035 13       		.uleb128 0x13
 2933 0036 00       		.byte	0x0
 2934 0037 00       		.byte	0x0
 2935 0038 05       		.uleb128 0x5
 2936 0039 24       		.uleb128 0x24
 2937 003a 00       		.byte	0x0
 2938 003b 03       		.uleb128 0x3
 2939 003c 08       		.uleb128 0x8
 2940 003d 0B       		.uleb128 0xb
ARM GAS  /cygdrive/c/DOCUME~1/mkwapisz/LOCALS~1/Temp/ccKuhkNd.s 			page 65


 2941 003e 0B       		.uleb128 0xb
 2942 003f 3E       		.uleb128 0x3e
 2943 0040 0B       		.uleb128 0xb
 2944 0041 00       		.byte	0x0
 2945 0042 00       		.byte	0x0
 2946 0043 06       		.uleb128 0x6
 2947 0044 0F       		.uleb128 0xf
 2948 0045 00       		.byte	0x0
 2949 0046 0B       		.uleb128 0xb
 2950 0047 0B       		.uleb128 0xb
 2951 0048 00       		.byte	0x0
 2952 0049 00       		.byte	0x0
 2953 004a 07       		.uleb128 0x7
 2954 004b 15       		.uleb128 0x15
 2955 004c 00       		.byte	0x0
 2956 004d 27       		.uleb128 0x27
 2957 004e 0C       		.uleb128 0xc
 2958 004f 00       		.byte	0x0
 2959 0050 00       		.byte	0x0
 2960 0051 08       		.uleb128 0x8
 2961 0052 0F       		.uleb128 0xf
 2962 0053 00       		.byte	0x0
 2963 0054 0B       		.uleb128 0xb
 2964 0055 0B       		.uleb128 0xb
 2965 0056 49       		.uleb128 0x49
 2966 0057 13       		.uleb128 0x13
 2967 0058 00       		.byte	0x0
 2968 0059 00       		.byte	0x0
 2969 005a 09       		.uleb128 0x9
 2970 005b 26       		.uleb128 0x26
 2971 005c 00       		.byte	0x0
 2972 005d 49       		.uleb128 0x49
 2973 005e 13       		.uleb128 0x13
 2974 005f 00       		.byte	0x0
 2975 0060 00       		.byte	0x0
 2976 0061 0A       		.uleb128 0xa
 2977 0062 13       		.uleb128 0x13
 2978 0063 01       		.byte	0x1
 2979 0064 01       		.uleb128 0x1
 2980 0065 13       		.uleb128 0x13
 2981 0066 03       		.uleb128 0x3
 2982 0067 0E       		.uleb128 0xe
 2983 0068 0B       		.uleb128 0xb
 2984 0069 0B       		.uleb128 0xb
 2985 006a 3A       		.uleb128 0x3a
 2986 006b 0B       		.uleb128 0xb
 2987 006c 3B       		.uleb128 0x3b
 2988 006d 0B       		.uleb128 0xb
 2989 006e 00       		.byte	0x0
 2990 006f 00       		.byte	0x0
 2991 0070 0B       		.uleb128 0xb
 2992 0071 0D       		.uleb128 0xd
 2993 0072 00       		.byte	0x0
 2994 0073 03       		.uleb128 0x3
 2995 0074 0E       		.uleb128 0xe
 2996 0075 3A       		.uleb128 0x3a
 2997 0076 0B       		.uleb128 0xb
ARM GAS  /cygdrive/c/DOCUME~1/mkwapisz/LOCALS~1/Temp/ccKuhkNd.s 			page 66


 2998 0077 3B       		.uleb128 0x3b
 2999 0078 0B       		.uleb128 0xb
 3000 0079 49       		.uleb128 0x49
 3001 007a 13       		.uleb128 0x13
 3002 007b 38       		.uleb128 0x38
 3003 007c 0A       		.uleb128 0xa
 3004 007d 00       		.byte	0x0
 3005 007e 00       		.byte	0x0
 3006 007f 0C       		.uleb128 0xc
 3007 0080 0D       		.uleb128 0xd
 3008 0081 00       		.byte	0x0
 3009 0082 03       		.uleb128 0x3
 3010 0083 08       		.uleb128 0x8
 3011 0084 3A       		.uleb128 0x3a
 3012 0085 0B       		.uleb128 0xb
 3013 0086 3B       		.uleb128 0x3b
 3014 0087 0B       		.uleb128 0xb
 3015 0088 49       		.uleb128 0x49
 3016 0089 13       		.uleb128 0x13
 3017 008a 38       		.uleb128 0x38
 3018 008b 0A       		.uleb128 0xa
 3019 008c 00       		.byte	0x0
 3020 008d 00       		.byte	0x0
 3021 008e 0D       		.uleb128 0xd
 3022 008f 04       		.uleb128 0x4
 3023 0090 01       		.byte	0x1
 3024 0091 01       		.uleb128 0x1
 3025 0092 13       		.uleb128 0x13
 3026 0093 0B       		.uleb128 0xb
 3027 0094 0B       		.uleb128 0xb
 3028 0095 3A       		.uleb128 0x3a
 3029 0096 0B       		.uleb128 0xb
 3030 0097 3B       		.uleb128 0x3b
 3031 0098 0B       		.uleb128 0xb
 3032 0099 00       		.byte	0x0
 3033 009a 00       		.byte	0x0
 3034 009b 0E       		.uleb128 0xe
 3035 009c 28       		.uleb128 0x28
 3036 009d 00       		.byte	0x0
 3037 009e 03       		.uleb128 0x3
 3038 009f 0E       		.uleb128 0xe
 3039 00a0 1C       		.uleb128 0x1c
 3040 00a1 0D       		.uleb128 0xd
 3041 00a2 00       		.byte	0x0
 3042 00a3 00       		.byte	0x0
 3043 00a4 0F       		.uleb128 0xf
 3044 00a5 2E       		.uleb128 0x2e
 3045 00a6 01       		.byte	0x1
 3046 00a7 01       		.uleb128 0x1
 3047 00a8 13       		.uleb128 0x13
 3048 00a9 03       		.uleb128 0x3
 3049 00aa 0E       		.uleb128 0xe
 3050 00ab 3A       		.uleb128 0x3a
 3051 00ac 0B       		.uleb128 0xb
 3052 00ad 3B       		.uleb128 0x3b
 3053 00ae 0B       		.uleb128 0xb
 3054 00af 27       		.uleb128 0x27
ARM GAS  /cygdrive/c/DOCUME~1/mkwapisz/LOCALS~1/Temp/ccKuhkNd.s 			page 67


 3055 00b0 0C       		.uleb128 0xc
 3056 00b1 11       		.uleb128 0x11
 3057 00b2 01       		.uleb128 0x1
 3058 00b3 12       		.uleb128 0x12
 3059 00b4 01       		.uleb128 0x1
 3060 00b5 40       		.uleb128 0x40
 3061 00b6 06       		.uleb128 0x6
 3062 00b7 00       		.byte	0x0
 3063 00b8 00       		.byte	0x0
 3064 00b9 10       		.uleb128 0x10
 3065 00ba 34       		.uleb128 0x34
 3066 00bb 00       		.byte	0x0
 3067 00bc 03       		.uleb128 0x3
 3068 00bd 08       		.uleb128 0x8
 3069 00be 3A       		.uleb128 0x3a
 3070 00bf 0B       		.uleb128 0xb
 3071 00c0 3B       		.uleb128 0x3b
 3072 00c1 0B       		.uleb128 0xb
 3073 00c2 49       		.uleb128 0x49
 3074 00c3 13       		.uleb128 0x13
 3075 00c4 02       		.uleb128 0x2
 3076 00c5 0A       		.uleb128 0xa
 3077 00c6 00       		.byte	0x0
 3078 00c7 00       		.byte	0x0
 3079 00c8 11       		.uleb128 0x11
 3080 00c9 35       		.uleb128 0x35
 3081 00ca 00       		.byte	0x0
 3082 00cb 49       		.uleb128 0x49
 3083 00cc 13       		.uleb128 0x13
 3084 00cd 00       		.byte	0x0
 3085 00ce 00       		.byte	0x0
 3086 00cf 12       		.uleb128 0x12
 3087 00d0 2E       		.uleb128 0x2e
 3088 00d1 01       		.byte	0x1
 3089 00d2 01       		.uleb128 0x1
 3090 00d3 13       		.uleb128 0x13
 3091 00d4 03       		.uleb128 0x3
 3092 00d5 0E       		.uleb128 0xe
 3093 00d6 3A       		.uleb128 0x3a
 3094 00d7 0B       		.uleb128 0xb
 3095 00d8 3B       		.uleb128 0x3b
 3096 00d9 0B       		.uleb128 0xb
 3097 00da 27       		.uleb128 0x27
 3098 00db 0C       		.uleb128 0xc
 3099 00dc 11       		.uleb128 0x11
 3100 00dd 01       		.uleb128 0x1
 3101 00de 12       		.uleb128 0x12
 3102 00df 01       		.uleb128 0x1
 3103 00e0 40       		.uleb128 0x40
 3104 00e1 0A       		.uleb128 0xa
 3105 00e2 00       		.byte	0x0
 3106 00e3 00       		.byte	0x0
 3107 00e4 13       		.uleb128 0x13
 3108 00e5 05       		.uleb128 0x5
 3109 00e6 00       		.byte	0x0
 3110 00e7 03       		.uleb128 0x3
 3111 00e8 0E       		.uleb128 0xe
ARM GAS  /cygdrive/c/DOCUME~1/mkwapisz/LOCALS~1/Temp/ccKuhkNd.s 			page 68


 3112 00e9 3A       		.uleb128 0x3a
 3113 00ea 0B       		.uleb128 0xb
 3114 00eb 3B       		.uleb128 0x3b
 3115 00ec 0B       		.uleb128 0xb
 3116 00ed 49       		.uleb128 0x49
 3117 00ee 13       		.uleb128 0x13
 3118 00ef 02       		.uleb128 0x2
 3119 00f0 06       		.uleb128 0x6
 3120 00f1 00       		.byte	0x0
 3121 00f2 00       		.byte	0x0
 3122 00f3 14       		.uleb128 0x14
 3123 00f4 05       		.uleb128 0x5
 3124 00f5 00       		.byte	0x0
 3125 00f6 03       		.uleb128 0x3
 3126 00f7 08       		.uleb128 0x8
 3127 00f8 3A       		.uleb128 0x3a
 3128 00f9 0B       		.uleb128 0xb
 3129 00fa 3B       		.uleb128 0x3b
 3130 00fb 0B       		.uleb128 0xb
 3131 00fc 49       		.uleb128 0x49
 3132 00fd 13       		.uleb128 0x13
 3133 00fe 02       		.uleb128 0x2
 3134 00ff 06       		.uleb128 0x6
 3135 0100 00       		.byte	0x0
 3136 0101 00       		.byte	0x0
 3137 0102 15       		.uleb128 0x15
 3138 0103 34       		.uleb128 0x34
 3139 0104 00       		.byte	0x0
 3140 0105 03       		.uleb128 0x3
 3141 0106 08       		.uleb128 0x8
 3142 0107 3A       		.uleb128 0x3a
 3143 0108 0B       		.uleb128 0xb
 3144 0109 3B       		.uleb128 0x3b
 3145 010a 0B       		.uleb128 0xb
 3146 010b 49       		.uleb128 0x49
 3147 010c 13       		.uleb128 0x13
 3148 010d 02       		.uleb128 0x2
 3149 010e 06       		.uleb128 0x6
 3150 010f 00       		.byte	0x0
 3151 0110 00       		.byte	0x0
 3152 0111 16       		.uleb128 0x16
 3153 0112 2E       		.uleb128 0x2e
 3154 0113 01       		.byte	0x1
 3155 0114 01       		.uleb128 0x1
 3156 0115 13       		.uleb128 0x13
 3157 0116 3F       		.uleb128 0x3f
 3158 0117 0C       		.uleb128 0xc
 3159 0118 03       		.uleb128 0x3
 3160 0119 0E       		.uleb128 0xe
 3161 011a 3A       		.uleb128 0x3a
 3162 011b 0B       		.uleb128 0xb
 3163 011c 3B       		.uleb128 0x3b
 3164 011d 05       		.uleb128 0x5
 3165 011e 27       		.uleb128 0x27
 3166 011f 0C       		.uleb128 0xc
 3167 0120 11       		.uleb128 0x11
 3168 0121 01       		.uleb128 0x1
ARM GAS  /cygdrive/c/DOCUME~1/mkwapisz/LOCALS~1/Temp/ccKuhkNd.s 			page 69


 3169 0122 12       		.uleb128 0x12
 3170 0123 01       		.uleb128 0x1
 3171 0124 40       		.uleb128 0x40
 3172 0125 0A       		.uleb128 0xa
 3173 0126 00       		.byte	0x0
 3174 0127 00       		.byte	0x0
 3175 0128 17       		.uleb128 0x17
 3176 0129 05       		.uleb128 0x5
 3177 012a 00       		.byte	0x0
 3178 012b 03       		.uleb128 0x3
 3179 012c 0E       		.uleb128 0xe
 3180 012d 3A       		.uleb128 0x3a
 3181 012e 0B       		.uleb128 0xb
 3182 012f 3B       		.uleb128 0x3b
 3183 0130 05       		.uleb128 0x5
 3184 0131 49       		.uleb128 0x49
 3185 0132 13       		.uleb128 0x13
 3186 0133 02       		.uleb128 0x2
 3187 0134 0A       		.uleb128 0xa
 3188 0135 00       		.byte	0x0
 3189 0136 00       		.byte	0x0
 3190 0137 18       		.uleb128 0x18
 3191 0138 2E       		.uleb128 0x2e
 3192 0139 01       		.byte	0x1
 3193 013a 01       		.uleb128 0x1
 3194 013b 13       		.uleb128 0x13
 3195 013c 3F       		.uleb128 0x3f
 3196 013d 0C       		.uleb128 0xc
 3197 013e 03       		.uleb128 0x3
 3198 013f 0E       		.uleb128 0xe
 3199 0140 3A       		.uleb128 0x3a
 3200 0141 0B       		.uleb128 0xb
 3201 0142 3B       		.uleb128 0x3b
 3202 0143 0B       		.uleb128 0xb
 3203 0144 27       		.uleb128 0x27
 3204 0145 0C       		.uleb128 0xc
 3205 0146 49       		.uleb128 0x49
 3206 0147 13       		.uleb128 0x13
 3207 0148 11       		.uleb128 0x11
 3208 0149 01       		.uleb128 0x1
 3209 014a 12       		.uleb128 0x12
 3210 014b 01       		.uleb128 0x1
 3211 014c 40       		.uleb128 0x40
 3212 014d 06       		.uleb128 0x6
 3213 014e 00       		.byte	0x0
 3214 014f 00       		.byte	0x0
 3215 0150 19       		.uleb128 0x19
 3216 0151 34       		.uleb128 0x34
 3217 0152 00       		.byte	0x0
 3218 0153 03       		.uleb128 0x3
 3219 0154 0E       		.uleb128 0xe
 3220 0155 3A       		.uleb128 0x3a
 3221 0156 0B       		.uleb128 0xb
 3222 0157 3B       		.uleb128 0x3b
 3223 0158 0B       		.uleb128 0xb
 3224 0159 49       		.uleb128 0x49
 3225 015a 13       		.uleb128 0x13
ARM GAS  /cygdrive/c/DOCUME~1/mkwapisz/LOCALS~1/Temp/ccKuhkNd.s 			page 70


 3226 015b 02       		.uleb128 0x2
 3227 015c 0A       		.uleb128 0xa
 3228 015d 00       		.byte	0x0
 3229 015e 00       		.byte	0x0
 3230 015f 1A       		.uleb128 0x1a
 3231 0160 2E       		.uleb128 0x2e
 3232 0161 00       		.byte	0x0
 3233 0162 03       		.uleb128 0x3
 3234 0163 0E       		.uleb128 0xe
 3235 0164 3A       		.uleb128 0x3a
 3236 0165 0B       		.uleb128 0xb
 3237 0166 3B       		.uleb128 0x3b
 3238 0167 0B       		.uleb128 0xb
 3239 0168 11       		.uleb128 0x11
 3240 0169 01       		.uleb128 0x1
 3241 016a 12       		.uleb128 0x12
 3242 016b 01       		.uleb128 0x1
 3243 016c 40       		.uleb128 0x40
 3244 016d 06       		.uleb128 0x6
 3245 016e 00       		.byte	0x0
 3246 016f 00       		.byte	0x0
 3247 0170 1B       		.uleb128 0x1b
 3248 0171 2E       		.uleb128 0x2e
 3249 0172 00       		.byte	0x0
 3250 0173 03       		.uleb128 0x3
 3251 0174 0E       		.uleb128 0xe
 3252 0175 3A       		.uleb128 0x3a
 3253 0176 0B       		.uleb128 0xb
 3254 0177 3B       		.uleb128 0x3b
 3255 0178 0B       		.uleb128 0xb
 3256 0179 27       		.uleb128 0x27
 3257 017a 0C       		.uleb128 0xc
 3258 017b 20       		.uleb128 0x20
 3259 017c 0B       		.uleb128 0xb
 3260 017d 00       		.byte	0x0
 3261 017e 00       		.byte	0x0
 3262 017f 1C       		.uleb128 0x1c
 3263 0180 2E       		.uleb128 0x2e
 3264 0181 00       		.byte	0x0
 3265 0182 03       		.uleb128 0x3
 3266 0183 0E       		.uleb128 0xe
 3267 0184 3A       		.uleb128 0x3a
 3268 0185 0B       		.uleb128 0xb
 3269 0186 3B       		.uleb128 0x3b
 3270 0187 0B       		.uleb128 0xb
 3271 0188 20       		.uleb128 0x20
 3272 0189 0B       		.uleb128 0xb
 3273 018a 00       		.byte	0x0
 3274 018b 00       		.byte	0x0
 3275 018c 1D       		.uleb128 0x1d
 3276 018d 1D       		.uleb128 0x1d
 3277 018e 01       		.byte	0x1
 3278 018f 31       		.uleb128 0x31
 3279 0190 13       		.uleb128 0x13
 3280 0191 11       		.uleb128 0x11
 3281 0192 01       		.uleb128 0x1
 3282 0193 12       		.uleb128 0x12
ARM GAS  /cygdrive/c/DOCUME~1/mkwapisz/LOCALS~1/Temp/ccKuhkNd.s 			page 71


 3283 0194 01       		.uleb128 0x1
 3284 0195 58       		.uleb128 0x58
 3285 0196 0B       		.uleb128 0xb
 3286 0197 59       		.uleb128 0x59
 3287 0198 0B       		.uleb128 0xb
 3288 0199 00       		.byte	0x0
 3289 019a 00       		.byte	0x0
 3290 019b 1E       		.uleb128 0x1e
 3291 019c 1D       		.uleb128 0x1d
 3292 019d 00       		.byte	0x0
 3293 019e 31       		.uleb128 0x31
 3294 019f 13       		.uleb128 0x13
 3295 01a0 11       		.uleb128 0x11
 3296 01a1 01       		.uleb128 0x1
 3297 01a2 12       		.uleb128 0x12
 3298 01a3 01       		.uleb128 0x1
 3299 01a4 58       		.uleb128 0x58
 3300 01a5 0B       		.uleb128 0xb
 3301 01a6 59       		.uleb128 0x59
 3302 01a7 0B       		.uleb128 0xb
 3303 01a8 00       		.byte	0x0
 3304 01a9 00       		.byte	0x0
 3305 01aa 1F       		.uleb128 0x1f
 3306 01ab 2E       		.uleb128 0x2e
 3307 01ac 01       		.byte	0x1
 3308 01ad 01       		.uleb128 0x1
 3309 01ae 13       		.uleb128 0x13
 3310 01af 03       		.uleb128 0x3
 3311 01b0 0E       		.uleb128 0xe
 3312 01b1 3A       		.uleb128 0x3a
 3313 01b2 0B       		.uleb128 0xb
 3314 01b3 3B       		.uleb128 0x3b
 3315 01b4 05       		.uleb128 0x5
 3316 01b5 27       		.uleb128 0x27
 3317 01b6 0C       		.uleb128 0xc
 3318 01b7 11       		.uleb128 0x11
 3319 01b8 01       		.uleb128 0x1
 3320 01b9 12       		.uleb128 0x12
 3321 01ba 01       		.uleb128 0x1
 3322 01bb 40       		.uleb128 0x40
 3323 01bc 06       		.uleb128 0x6
 3324 01bd 00       		.byte	0x0
 3325 01be 00       		.byte	0x0
 3326 01bf 20       		.uleb128 0x20
 3327 01c0 05       		.uleb128 0x5
 3328 01c1 00       		.byte	0x0
 3329 01c2 03       		.uleb128 0x3
 3330 01c3 08       		.uleb128 0x8
 3331 01c4 3A       		.uleb128 0x3a
 3332 01c5 0B       		.uleb128 0xb
 3333 01c6 3B       		.uleb128 0x3b
 3334 01c7 05       		.uleb128 0x5
 3335 01c8 49       		.uleb128 0x49
 3336 01c9 13       		.uleb128 0x13
 3337 01ca 02       		.uleb128 0x2
 3338 01cb 06       		.uleb128 0x6
 3339 01cc 00       		.byte	0x0
ARM GAS  /cygdrive/c/DOCUME~1/mkwapisz/LOCALS~1/Temp/ccKuhkNd.s 			page 72


 3340 01cd 00       		.byte	0x0
 3341 01ce 21       		.uleb128 0x21
 3342 01cf 05       		.uleb128 0x5
 3343 01d0 00       		.byte	0x0
 3344 01d1 03       		.uleb128 0x3
 3345 01d2 0E       		.uleb128 0xe
 3346 01d3 3A       		.uleb128 0x3a
 3347 01d4 0B       		.uleb128 0xb
 3348 01d5 3B       		.uleb128 0x3b
 3349 01d6 05       		.uleb128 0x5
 3350 01d7 49       		.uleb128 0x49
 3351 01d8 13       		.uleb128 0x13
 3352 01d9 02       		.uleb128 0x2
 3353 01da 06       		.uleb128 0x6
 3354 01db 00       		.byte	0x0
 3355 01dc 00       		.byte	0x0
 3356 01dd 22       		.uleb128 0x22
 3357 01de 2E       		.uleb128 0x2e
 3358 01df 01       		.byte	0x1
 3359 01e0 01       		.uleb128 0x1
 3360 01e1 13       		.uleb128 0x13
 3361 01e2 03       		.uleb128 0x3
 3362 01e3 0E       		.uleb128 0xe
 3363 01e4 3A       		.uleb128 0x3a
 3364 01e5 0B       		.uleb128 0xb
 3365 01e6 3B       		.uleb128 0x3b
 3366 01e7 0B       		.uleb128 0xb
 3367 01e8 27       		.uleb128 0x27
 3368 01e9 0C       		.uleb128 0xc
 3369 01ea 20       		.uleb128 0x20
 3370 01eb 0B       		.uleb128 0xb
 3371 01ec 00       		.byte	0x0
 3372 01ed 00       		.byte	0x0
 3373 01ee 23       		.uleb128 0x23
 3374 01ef 05       		.uleb128 0x5
 3375 01f0 00       		.byte	0x0
 3376 01f1 03       		.uleb128 0x3
 3377 01f2 08       		.uleb128 0x8
 3378 01f3 3A       		.uleb128 0x3a
 3379 01f4 0B       		.uleb128 0xb
 3380 01f5 3B       		.uleb128 0x3b
 3381 01f6 0B       		.uleb128 0xb
 3382 01f7 49       		.uleb128 0x49
 3383 01f8 13       		.uleb128 0x13
 3384 01f9 00       		.byte	0x0
 3385 01fa 00       		.byte	0x0
 3386 01fb 24       		.uleb128 0x24
 3387 01fc 34       		.uleb128 0x34
 3388 01fd 00       		.byte	0x0
 3389 01fe 03       		.uleb128 0x3
 3390 01ff 0E       		.uleb128 0xe
 3391 0200 3A       		.uleb128 0x3a
 3392 0201 0B       		.uleb128 0xb
 3393 0202 3B       		.uleb128 0x3b
 3394 0203 0B       		.uleb128 0xb
 3395 0204 49       		.uleb128 0x49
 3396 0205 13       		.uleb128 0x13
ARM GAS  /cygdrive/c/DOCUME~1/mkwapisz/LOCALS~1/Temp/ccKuhkNd.s 			page 73


 3397 0206 00       		.byte	0x0
 3398 0207 00       		.byte	0x0
 3399 0208 25       		.uleb128 0x25
 3400 0209 0B       		.uleb128 0xb
 3401 020a 01       		.byte	0x1
 3402 020b 00       		.byte	0x0
 3403 020c 00       		.byte	0x0
 3404 020d 26       		.uleb128 0x26
 3405 020e 2E       		.uleb128 0x2e
 3406 020f 01       		.byte	0x1
 3407 0210 01       		.uleb128 0x1
 3408 0211 13       		.uleb128 0x13
 3409 0212 03       		.uleb128 0x3
 3410 0213 0E       		.uleb128 0xe
 3411 0214 3A       		.uleb128 0x3a
 3412 0215 0B       		.uleb128 0xb
 3413 0216 3B       		.uleb128 0x3b
 3414 0217 05       		.uleb128 0x5
 3415 0218 27       		.uleb128 0x27
 3416 0219 0C       		.uleb128 0xc
 3417 021a 20       		.uleb128 0x20
 3418 021b 0B       		.uleb128 0xb
 3419 021c 00       		.byte	0x0
 3420 021d 00       		.byte	0x0
 3421 021e 27       		.uleb128 0x27
 3422 021f 05       		.uleb128 0x5
 3423 0220 00       		.byte	0x0
 3424 0221 03       		.uleb128 0x3
 3425 0222 08       		.uleb128 0x8
 3426 0223 3A       		.uleb128 0x3a
 3427 0224 0B       		.uleb128 0xb
 3428 0225 3B       		.uleb128 0x3b
 3429 0226 05       		.uleb128 0x5
 3430 0227 49       		.uleb128 0x49
 3431 0228 13       		.uleb128 0x13
 3432 0229 00       		.byte	0x0
 3433 022a 00       		.byte	0x0
 3434 022b 28       		.uleb128 0x28
 3435 022c 05       		.uleb128 0x5
 3436 022d 00       		.byte	0x0
 3437 022e 03       		.uleb128 0x3
 3438 022f 0E       		.uleb128 0xe
 3439 0230 3A       		.uleb128 0x3a
 3440 0231 0B       		.uleb128 0xb
 3441 0232 3B       		.uleb128 0x3b
 3442 0233 05       		.uleb128 0x5
 3443 0234 49       		.uleb128 0x49
 3444 0235 13       		.uleb128 0x13
 3445 0236 00       		.byte	0x0
 3446 0237 00       		.byte	0x0
 3447 0238 29       		.uleb128 0x29
 3448 0239 2E       		.uleb128 0x2e
 3449 023a 01       		.byte	0x1
 3450 023b 01       		.uleb128 0x1
 3451 023c 13       		.uleb128 0x13
 3452 023d 03       		.uleb128 0x3
 3453 023e 0E       		.uleb128 0xe
ARM GAS  /cygdrive/c/DOCUME~1/mkwapisz/LOCALS~1/Temp/ccKuhkNd.s 			page 74


 3454 023f 3A       		.uleb128 0x3a
 3455 0240 0B       		.uleb128 0xb
 3456 0241 3B       		.uleb128 0x3b
 3457 0242 0B       		.uleb128 0xb
 3458 0243 27       		.uleb128 0x27
 3459 0244 0C       		.uleb128 0xc
 3460 0245 49       		.uleb128 0x49
 3461 0246 13       		.uleb128 0x13
 3462 0247 20       		.uleb128 0x20
 3463 0248 0B       		.uleb128 0xb
 3464 0249 00       		.byte	0x0
 3465 024a 00       		.byte	0x0
 3466 024b 2A       		.uleb128 0x2a
 3467 024c 05       		.uleb128 0x5
 3468 024d 00       		.byte	0x0
 3469 024e 03       		.uleb128 0x3
 3470 024f 0E       		.uleb128 0xe
 3471 0250 3A       		.uleb128 0x3a
 3472 0251 0B       		.uleb128 0xb
 3473 0252 3B       		.uleb128 0x3b
 3474 0253 0B       		.uleb128 0xb
 3475 0254 49       		.uleb128 0x49
 3476 0255 13       		.uleb128 0x13
 3477 0256 00       		.byte	0x0
 3478 0257 00       		.byte	0x0
 3479 0258 2B       		.uleb128 0x2b
 3480 0259 2E       		.uleb128 0x2e
 3481 025a 01       		.byte	0x1
 3482 025b 01       		.uleb128 0x1
 3483 025c 13       		.uleb128 0x13
 3484 025d 03       		.uleb128 0x3
 3485 025e 0E       		.uleb128 0xe
 3486 025f 3A       		.uleb128 0x3a
 3487 0260 0B       		.uleb128 0xb
 3488 0261 3B       		.uleb128 0x3b
 3489 0262 0B       		.uleb128 0xb
 3490 0263 20       		.uleb128 0x20
 3491 0264 0B       		.uleb128 0xb
 3492 0265 00       		.byte	0x0
 3493 0266 00       		.byte	0x0
 3494 0267 2C       		.uleb128 0x2c
 3495 0268 34       		.uleb128 0x34
 3496 0269 00       		.byte	0x0
 3497 026a 03       		.uleb128 0x3
 3498 026b 08       		.uleb128 0x8
 3499 026c 3A       		.uleb128 0x3a
 3500 026d 0B       		.uleb128 0xb
 3501 026e 3B       		.uleb128 0x3b
 3502 026f 0B       		.uleb128 0xb
 3503 0270 49       		.uleb128 0x49
 3504 0271 13       		.uleb128 0x13
 3505 0272 00       		.byte	0x0
 3506 0273 00       		.byte	0x0
 3507 0274 2D       		.uleb128 0x2d
 3508 0275 34       		.uleb128 0x34
 3509 0276 00       		.byte	0x0
 3510 0277 03       		.uleb128 0x3
ARM GAS  /cygdrive/c/DOCUME~1/mkwapisz/LOCALS~1/Temp/ccKuhkNd.s 			page 75


 3511 0278 08       		.uleb128 0x8
 3512 0279 3A       		.uleb128 0x3a
 3513 027a 0B       		.uleb128 0xb
 3514 027b 3B       		.uleb128 0x3b
 3515 027c 05       		.uleb128 0x5
 3516 027d 49       		.uleb128 0x49
 3517 027e 13       		.uleb128 0x13
 3518 027f 00       		.byte	0x0
 3519 0280 00       		.byte	0x0
 3520 0281 2E       		.uleb128 0x2e
 3521 0282 34       		.uleb128 0x34
 3522 0283 00       		.byte	0x0
 3523 0284 03       		.uleb128 0x3
 3524 0285 0E       		.uleb128 0xe
 3525 0286 3A       		.uleb128 0x3a
 3526 0287 0B       		.uleb128 0xb
 3527 0288 3B       		.uleb128 0x3b
 3528 0289 05       		.uleb128 0x5
 3529 028a 49       		.uleb128 0x49
 3530 028b 13       		.uleb128 0x13
 3531 028c 00       		.byte	0x0
 3532 028d 00       		.byte	0x0
 3533 028e 2F       		.uleb128 0x2f
 3534 028f 01       		.uleb128 0x1
 3535 0290 01       		.byte	0x1
 3536 0291 01       		.uleb128 0x1
 3537 0292 13       		.uleb128 0x13
 3538 0293 49       		.uleb128 0x49
 3539 0294 13       		.uleb128 0x13
 3540 0295 00       		.byte	0x0
 3541 0296 00       		.byte	0x0
 3542 0297 30       		.uleb128 0x30
 3543 0298 21       		.uleb128 0x21
 3544 0299 00       		.byte	0x0
 3545 029a 49       		.uleb128 0x49
 3546 029b 13       		.uleb128 0x13
 3547 029c 2F       		.uleb128 0x2f
 3548 029d 0B       		.uleb128 0xb
 3549 029e 00       		.byte	0x0
 3550 029f 00       		.byte	0x0
 3551 02a0 31       		.uleb128 0x31
 3552 02a1 1D       		.uleb128 0x1d
 3553 02a2 01       		.byte	0x1
 3554 02a3 01       		.uleb128 0x1
 3555 02a4 13       		.uleb128 0x13
 3556 02a5 31       		.uleb128 0x31
 3557 02a6 13       		.uleb128 0x13
 3558 02a7 55       		.uleb128 0x55
 3559 02a8 06       		.uleb128 0x6
 3560 02a9 58       		.uleb128 0x58
 3561 02aa 0B       		.uleb128 0xb
 3562 02ab 59       		.uleb128 0x59
 3563 02ac 0B       		.uleb128 0xb
 3564 02ad 00       		.byte	0x0
 3565 02ae 00       		.byte	0x0
 3566 02af 32       		.uleb128 0x32
 3567 02b0 05       		.uleb128 0x5
ARM GAS  /cygdrive/c/DOCUME~1/mkwapisz/LOCALS~1/Temp/ccKuhkNd.s 			page 76


 3568 02b1 00       		.byte	0x0
 3569 02b2 31       		.uleb128 0x31
 3570 02b3 13       		.uleb128 0x13
 3571 02b4 00       		.byte	0x0
 3572 02b5 00       		.byte	0x0
 3573 02b6 33       		.uleb128 0x33
 3574 02b7 0B       		.uleb128 0xb
 3575 02b8 01       		.byte	0x1
 3576 02b9 01       		.uleb128 0x1
 3577 02ba 13       		.uleb128 0x13
 3578 02bb 55       		.uleb128 0x55
 3579 02bc 06       		.uleb128 0x6
 3580 02bd 00       		.byte	0x0
 3581 02be 00       		.byte	0x0
 3582 02bf 34       		.uleb128 0x34
 3583 02c0 34       		.uleb128 0x34
 3584 02c1 00       		.byte	0x0
 3585 02c2 31       		.uleb128 0x31
 3586 02c3 13       		.uleb128 0x13
 3587 02c4 02       		.uleb128 0x2
 3588 02c5 06       		.uleb128 0x6
 3589 02c6 00       		.byte	0x0
 3590 02c7 00       		.byte	0x0
 3591 02c8 35       		.uleb128 0x35
 3592 02c9 34       		.uleb128 0x34
 3593 02ca 00       		.byte	0x0
 3594 02cb 31       		.uleb128 0x31
 3595 02cc 13       		.uleb128 0x13
 3596 02cd 00       		.byte	0x0
 3597 02ce 00       		.byte	0x0
 3598 02cf 36       		.uleb128 0x36
 3599 02d0 1D       		.uleb128 0x1d
 3600 02d1 01       		.byte	0x1
 3601 02d2 31       		.uleb128 0x31
 3602 02d3 13       		.uleb128 0x13
 3603 02d4 55       		.uleb128 0x55
 3604 02d5 06       		.uleb128 0x6
 3605 02d6 58       		.uleb128 0x58
 3606 02d7 0B       		.uleb128 0xb
 3607 02d8 59       		.uleb128 0x59
 3608 02d9 0B       		.uleb128 0xb
 3609 02da 00       		.byte	0x0
 3610 02db 00       		.byte	0x0
 3611 02dc 37       		.uleb128 0x37
 3612 02dd 0B       		.uleb128 0xb
 3613 02de 01       		.byte	0x1
 3614 02df 55       		.uleb128 0x55
 3615 02e0 06       		.uleb128 0x6
 3616 02e1 00       		.byte	0x0
 3617 02e2 00       		.byte	0x0
 3618 02e3 38       		.uleb128 0x38
 3619 02e4 0B       		.uleb128 0xb
 3620 02e5 01       		.byte	0x1
 3621 02e6 01       		.uleb128 0x1
 3622 02e7 13       		.uleb128 0x13
 3623 02e8 11       		.uleb128 0x11
 3624 02e9 01       		.uleb128 0x1
ARM GAS  /cygdrive/c/DOCUME~1/mkwapisz/LOCALS~1/Temp/ccKuhkNd.s 			page 77


 3625 02ea 12       		.uleb128 0x12
 3626 02eb 01       		.uleb128 0x1
 3627 02ec 00       		.byte	0x0
 3628 02ed 00       		.byte	0x0
 3629 02ee 39       		.uleb128 0x39
 3630 02ef 34       		.uleb128 0x34
 3631 02f0 00       		.byte	0x0
 3632 02f1 31       		.uleb128 0x31
 3633 02f2 13       		.uleb128 0x13
 3634 02f3 02       		.uleb128 0x2
 3635 02f4 0A       		.uleb128 0xa
 3636 02f5 00       		.byte	0x0
 3637 02f6 00       		.byte	0x0
 3638 02f7 3A       		.uleb128 0x3a
 3639 02f8 34       		.uleb128 0x34
 3640 02f9 00       		.byte	0x0
 3641 02fa 03       		.uleb128 0x3
 3642 02fb 0E       		.uleb128 0xe
 3643 02fc 3A       		.uleb128 0x3a
 3644 02fd 0B       		.uleb128 0xb
 3645 02fe 3B       		.uleb128 0x3b
 3646 02ff 0B       		.uleb128 0xb
 3647 0300 49       		.uleb128 0x49
 3648 0301 13       		.uleb128 0x13
 3649 0302 1C       		.uleb128 0x1c
 3650 0303 0B       		.uleb128 0xb
 3651 0304 00       		.byte	0x0
 3652 0305 00       		.byte	0x0
 3653 0306 3B       		.uleb128 0x3b
 3654 0307 21       		.uleb128 0x21
 3655 0308 00       		.byte	0x0
 3656 0309 49       		.uleb128 0x49
 3657 030a 13       		.uleb128 0x13
 3658 030b 2F       		.uleb128 0x2f
 3659 030c 05       		.uleb128 0x5
 3660 030d 00       		.byte	0x0
 3661 030e 00       		.byte	0x0
 3662 030f 3C       		.uleb128 0x3c
 3663 0310 21       		.uleb128 0x21
 3664 0311 00       		.byte	0x0
 3665 0312 00       		.byte	0x0
 3666 0313 00       		.byte	0x0
 3667 0314 3D       		.uleb128 0x3d
 3668 0315 34       		.uleb128 0x34
 3669 0316 00       		.byte	0x0
 3670 0317 03       		.uleb128 0x3
 3671 0318 0E       		.uleb128 0xe
 3672 0319 3A       		.uleb128 0x3a
 3673 031a 0B       		.uleb128 0xb
 3674 031b 3B       		.uleb128 0x3b
 3675 031c 0B       		.uleb128 0xb
 3676 031d 49       		.uleb128 0x49
 3677 031e 13       		.uleb128 0x13
 3678 031f 3F       		.uleb128 0x3f
 3679 0320 0C       		.uleb128 0xc
 3680 0321 3C       		.uleb128 0x3c
 3681 0322 0C       		.uleb128 0xc
ARM GAS  /cygdrive/c/DOCUME~1/mkwapisz/LOCALS~1/Temp/ccKuhkNd.s 			page 78


 3682 0323 00       		.byte	0x0
 3683 0324 00       		.byte	0x0
 3684 0325 3E       		.uleb128 0x3e
 3685 0326 34       		.uleb128 0x34
 3686 0327 00       		.byte	0x0
 3687 0328 03       		.uleb128 0x3
 3688 0329 0E       		.uleb128 0xe
 3689 032a 3A       		.uleb128 0x3a
 3690 032b 0B       		.uleb128 0xb
 3691 032c 3B       		.uleb128 0x3b
 3692 032d 0B       		.uleb128 0xb
 3693 032e 49       		.uleb128 0x49
 3694 032f 13       		.uleb128 0x13
 3695 0330 3F       		.uleb128 0x3f
 3696 0331 0C       		.uleb128 0xc
 3697 0332 02       		.uleb128 0x2
 3698 0333 0A       		.uleb128 0xa
 3699 0334 00       		.byte	0x0
 3700 0335 00       		.byte	0x0
 3701 0336 3F       		.uleb128 0x3f
 3702 0337 34       		.uleb128 0x34
 3703 0338 00       		.byte	0x0
 3704 0339 03       		.uleb128 0x3
 3705 033a 08       		.uleb128 0x8
 3706 033b 3A       		.uleb128 0x3a
 3707 033c 0B       		.uleb128 0xb
 3708 033d 3B       		.uleb128 0x3b
 3709 033e 0B       		.uleb128 0xb
 3710 033f 49       		.uleb128 0x49
 3711 0340 13       		.uleb128 0x13
 3712 0341 3F       		.uleb128 0x3f
 3713 0342 0C       		.uleb128 0xc
 3714 0343 02       		.uleb128 0x2
 3715 0344 0A       		.uleb128 0xa
 3716 0345 00       		.byte	0x0
 3717 0346 00       		.byte	0x0
 3718 0347 00       		.byte	0x0
 3719              		.section	.debug_pubnames,"",%progbits
 3720 0000 78000000 		.4byte	0x78
 3721 0004 0200     		.2byte	0x2
 3722 0006 00000000 		.4byte	.Ldebug_info0
 3723 000a AB070000 		.4byte	0x7ab
 3724 000e 0E030000 		.4byte	0x30e
 3725 0012 61707054 		.ascii	"appTick\000"
 3725      69636B00 
 3726 001a 35030000 		.4byte	0x335
 3727 001e 6D61696E 		.ascii	"main\000"
 3727      00
 3728 0023 2F070000 		.4byte	0x72f
 3729 0027 77796E69 		.ascii	"wynikInicjalizacjiSd\000"
 3729      6B496E69 
 3729      636A616C 
 3729      697A6163 
 3729      6A695364 
 3730 003c 41070000 		.4byte	0x741
 3731 0040 66617466 		.ascii	"fatfs\000"
 3731      7300
ARM GAS  /cygdrive/c/DOCUME~1/mkwapisz/LOCALS~1/Temp/ccKuhkNd.s 			page 79


 3732 0046 53070000 		.4byte	0x753
 3733 004a 726300   		.ascii	"rc\000"
 3734 004d 64070000 		.4byte	0x764
 3735 0051 6D73436C 		.ascii	"msClock\000"
 3735      6F636B00 
 3736 0059 76070000 		.4byte	0x776
 3737 005d 6B6F6C6F 		.ascii	"kolorDiody\000"
 3737      7244696F 
 3737      647900
 3738 0068 98070000 		.4byte	0x798
 3739 006c 6C697374 		.ascii	"listaPlikow\000"
 3739      61506C69 
 3739      6B6F7700 
 3740 0078 00000000 		.4byte	0x0
 3741              		.section	.debug_aranges,"",%progbits
 3742 0000 1C000000 		.4byte	0x1c
 3743 0004 0200     		.2byte	0x2
 3744 0006 00000000 		.4byte	.Ldebug_info0
 3745 000a 04       		.byte	0x4
 3746 000b 00       		.byte	0x0
 3747 000c 0000     		.2byte	0x0
 3748 000e 0000     		.2byte	0x0
 3749 0010 00000000 		.4byte	.Ltext0
 3750 0014 48060000 		.4byte	.Letext0-.Ltext0
 3751 0018 00000000 		.4byte	0x0
 3752 001c 00000000 		.4byte	0x0
 3753              		.section	.debug_ranges,"",%progbits
 3754              	.Ldebug_ranges0:
 3755 0000 D2030000 		.4byte	.LBB27-.Ltext0
 3756 0004 38050000 		.4byte	.LBE27-.Ltext0
 3757 0008 48050000 		.4byte	.LBB45-.Ltext0
 3758 000c 48060000 		.4byte	.LBE45-.Ltext0
 3759 0010 00000000 		.4byte	0x0
 3760 0014 00000000 		.4byte	0x0
 3761 0018 D2030000 		.4byte	.LBB28-.Ltext0
 3762 001c 08040000 		.4byte	.LBE28-.Ltext0
 3763 0020 48050000 		.4byte	.LBB46-.Ltext0
 3764 0024 48060000 		.4byte	.LBE46-.Ltext0
 3765 0028 94040000 		.4byte	.LBB35-.Ltext0
 3766 002c 38050000 		.4byte	.LBE35-.Ltext0
 3767 0030 0E040000 		.4byte	.LBB31-.Ltext0
 3768 0034 90040000 		.4byte	.LBE31-.Ltext0
 3769 0038 00000000 		.4byte	0x0
 3770 003c 00000000 		.4byte	0x0
 3771 0040 70040000 		.4byte	.LBB32-.Ltext0
 3772 0044 88040000 		.4byte	.LBE32-.Ltext0
 3773 0048 96050000 		.4byte	.LBB53-.Ltext0
 3774 004c 9E050000 		.4byte	.LBE53-.Ltext0
 3775 0050 48050000 		.4byte	.LBB47-.Ltext0
 3776 0054 7E050000 		.4byte	.LBE47-.Ltext0
 3777 0058 32050000 		.4byte	.LBB42-.Ltext0
 3778 005c 34050000 		.4byte	.LBE42-.Ltext0
 3779 0060 94040000 		.4byte	.LBB36-.Ltext0
 3780 0064 2E050000 		.4byte	.LBE36-.Ltext0
 3781 0068 00000000 		.4byte	0x0
 3782 006c 00000000 		.4byte	0x0
 3783 0070 7A040000 		.4byte	.LBB33-.Ltext0
ARM GAS  /cygdrive/c/DOCUME~1/mkwapisz/LOCALS~1/Temp/ccKuhkNd.s 			page 80


 3784 0074 82040000 		.4byte	.LBE33-.Ltext0
 3785 0078 50050000 		.4byte	.LBB48-.Ltext0
 3786 007c 74050000 		.4byte	.LBE48-.Ltext0
 3787 0080 32050000 		.4byte	.LBB43-.Ltext0
 3788 0084 34050000 		.4byte	.LBE43-.Ltext0
 3789 0088 14050000 		.4byte	.LBB40-.Ltext0
 3790 008c 28050000 		.4byte	.LBE40-.Ltext0
 3791 0090 00000000 		.4byte	0x0
 3792 0094 00000000 		.4byte	0x0
 3793 0098 7A040000 		.4byte	.LBB34-.Ltext0
 3794 009c 82040000 		.4byte	.LBE34-.Ltext0
 3795 00a0 50050000 		.4byte	.LBB49-.Ltext0
 3796 00a4 74050000 		.4byte	.LBE49-.Ltext0
 3797 00a8 32050000 		.4byte	.LBB44-.Ltext0
 3798 00ac 34050000 		.4byte	.LBE44-.Ltext0
 3799 00b0 14050000 		.4byte	.LBB41-.Ltext0
 3800 00b4 28050000 		.4byte	.LBE41-.Ltext0
 3801 00b8 00000000 		.4byte	0x0
 3802 00bc 00000000 		.4byte	0x0
 3803 00c0 AA040000 		.4byte	.LBB37-.Ltext0
 3804 00c4 14050000 		.4byte	.LBE37-.Ltext0
 3805 00c8 96050000 		.4byte	.LBB54-.Ltext0
 3806 00cc 9E050000 		.4byte	.LBE54-.Ltext0
 3807 00d0 00000000 		.4byte	0x0
 3808 00d4 00000000 		.4byte	0x0
 3809 00d8 AA040000 		.4byte	.LBB38-.Ltext0
 3810 00dc 14050000 		.4byte	.LBE38-.Ltext0
 3811 00e0 96050000 		.4byte	.LBB55-.Ltext0
 3812 00e4 9E050000 		.4byte	.LBE55-.Ltext0
 3813 00e8 00000000 		.4byte	0x0
 3814 00ec 00000000 		.4byte	0x0
 3815 00f0 EA040000 		.4byte	.LBB39-.Ltext0
 3816 00f4 10050000 		.4byte	.LBE39-.Ltext0
 3817 00f8 96050000 		.4byte	.LBB56-.Ltext0
 3818 00fc 9E050000 		.4byte	.LBE56-.Ltext0
 3819 0100 00000000 		.4byte	0x0
 3820 0104 00000000 		.4byte	0x0
 3821 0108 8A050000 		.4byte	.LBB51-.Ltext0
 3822 010c 96050000 		.4byte	.LBE51-.Ltext0
 3823 0110 AA050000 		.4byte	.LBB59-.Ltext0
 3824 0114 48060000 		.4byte	.LBE59-.Ltext0
 3825 0118 9E050000 		.4byte	.LBB57-.Ltext0
 3826 011c A0050000 		.4byte	.LBE57-.Ltext0
 3827 0120 00000000 		.4byte	0x0
 3828 0124 00000000 		.4byte	0x0
 3829              		.section	.debug_str,"MS",%progbits,1
 3830              	.LASF81:
 3831 0000 57797377 		.ascii	"WyswietlMenuGlowne\000"
 3831      6965746C 
 3831      4D656E75 
 3831      476C6F77 
 3831      6E6500
 3832              	.LASF98:
 3833 0013 6D61696E 		.ascii	"main.c\000"
 3833      2E6300
 3834              	.LASF40:
 3835 001a 506C6179 		.ascii	"Player_Stoped\000"
ARM GAS  /cygdrive/c/DOCUME~1/mkwapisz/LOCALS~1/Temp/ccKuhkNd.s 			page 81


 3835      65725F53 
 3835      746F7065 
 3835      6400
 3836              	.LASF12:
 3837 0028 63686172 		.ascii	"char\000"
 3837      00
 3838              	.LASF33:
 3839 002d 46525F4E 		.ascii	"FR_NOT_READY\000"
 3839      4F545F52 
 3839      45414459 
 3839      00
 3840              	.LASF30:
 3841 003a 46415446 		.ascii	"FATFS\000"
 3841      5300
 3842              	.LASF55:
 3843 0040 61707054 		.ascii	"appTick\000"
 3843      69636B00 
 3844              	.LASF3:
 3845 0048 756E7369 		.ascii	"unsigned int\000"
 3845      676E6564 
 3845      20696E74 
 3845      00
 3846              	.LASF91:
 3847 0055 73746172 		.ascii	"startupSound\000"
 3847      74757053 
 3847      6F756E64 
 3847      00
 3848              	.LASF29:
 3849 0062 64736563 		.ascii	"dsect\000"
 3849      7400
 3850              	.LASF46:
 3851 0068 506C6179 		.ascii	"PlayerStatus\000"
 3851      65725374 
 3851      61747573 
 3851      00
 3852              	.LASF27:
 3853 0075 6F72675F 		.ascii	"org_clust\000"
 3853      636C7573 
 3853      7400
 3854              	.LASF57:
 3855 007f 6572726F 		.ascii	"error\000"
 3855      7200
 3856              	.LASF76:
 3857 0085 72756368 		.ascii	"ruchJoysticka\000"
 3857      4A6F7973 
 3857      7469636B 
 3857      6100
 3858              	.LASF47:
 3859 0093 64656C61 		.ascii	"delay37us\000"
 3859      79333775 
 3859      7300
 3860              	.LASF93:
 3861 009d 66617466 		.ascii	"fatfs\000"
 3861      7300
 3862              	.LASF73:
 3863 00a3 6D656E75 		.ascii	"menuGlowne\000"
 3863      476C6F77 
ARM GAS  /cygdrive/c/DOCUME~1/mkwapisz/LOCALS~1/Temp/ccKuhkNd.s 			page 82


 3863      6E6500
 3864              	.LASF15:
 3865 00ae 44574F52 		.ascii	"DWORD\000"
 3865      4400
 3866              	.LASF95:
 3867 00b4 6B6F6C6F 		.ascii	"kolorDiody\000"
 3867      7244696F 
 3867      647900
 3868              	.LASF9:
 3869 00bf 6C6F6E67 		.ascii	"long long unsigned int\000"
 3869      206C6F6E 
 3869      6720756E 
 3869      7369676E 
 3869      65642069 
 3870              	.LASF80:
 3871 00d6 4F647477 		.ascii	"OdtwarzajDzwiek\000"
 3871      61727A61 
 3871      6A447A77 
 3871      69656B00 
 3872              	.LASF61:
 3873 00e6 6966496E 		.ascii	"ifInit\000"
 3873      697400
 3874              	.LASF74:
 3875 00ed 6E696570 		.ascii	"niepowodzenie\000"
 3875      6F776F64 
 3875      7A656E69 
 3875      6500
 3876              	.LASF36:
 3877 00fb 46525F4E 		.ascii	"FR_NOT_OPENED\000"
 3877      4F545F4F 
 3877      50454E45 
 3877      4400
 3878              	.LASF22:
 3879 0109 66617462 		.ascii	"fatbase\000"
 3879      61736500 
 3880              	.LASF99:
 3881 0111 2F637967 		.ascii	"/cygdrive/e/MP3Player/2148/testProgram_lpc2148_edu\000"
 3881      64726976 
 3881      652F652F 
 3881      4D503350 
 3881      6C617965 
 3882              	.LASF65:
 3883 0144 57797377 		.ascii	"WyswietlTekstNaLcd\000"
 3883      6965746C 
 3883      54656B73 
 3883      744E614C 
 3883      636400
 3884              	.LASF16:
 3885 0157 66735F74 		.ascii	"fs_type\000"
 3885      79706500 
 3886              	.LASF48:
 3887 015f 506F6473 		.ascii	"PodswietlEkran\000"
 3887      77696574 
 3887      6C456B72 
 3887      616E00
 3888              	.LASF49:
 3889 016e 57797069 		.ascii	"WypiszZnakNaEkran\000"
ARM GAS  /cygdrive/c/DOCUME~1/mkwapisz/LOCALS~1/Temp/ccKuhkNd.s 			page 83


 3889      737A5A6E 
 3889      616B4E61 
 3889      456B7261 
 3889      6E00
 3890              	.LASF96:
 3891 0180 6C697374 		.ascii	"listaPlikow\000"
 3891      61506C69 
 3891      6B6F7700 
 3892              	.LASF54:
 3893 018c 656C6170 		.ascii	"elapsedTime\000"
 3893      73656454 
 3893      696D6500 
 3894              	.LASF18:
 3895 0198 666C6167 		.ascii	"flag\000"
 3895      00
 3896              	.LASF37:
 3897 019d 46525F4E 		.ascii	"FR_NOT_ENABLED\000"
 3897      4F545F45 
 3897      4E41424C 
 3897      454400
 3898              	.LASF58:
 3899 01ac 7069645F 		.ascii	"pid_main\000"
 3899      6D61696E 
 3899      00
 3900              	.LASF51:
 3901 01b5 64617461 		.ascii	"data\000"
 3901      00
 3902              	.LASF45:
 3903 01ba 506C6179 		.ascii	"Player_Random\000"
 3903      65725F52 
 3903      616E646F 
 3903      6D00
 3904              	.LASF59:
 3905 01c8 5A617061 		.ascii	"ZapalajDiode\000"
 3905      6C616A44 
 3905      696F6465 
 3905      00
 3906              	.LASF75:
 3907 01d5 73746174 		.ascii	"status\000"
 3907      757300
 3908              	.LASF94:
 3909 01dc 6D73436C 		.ascii	"msClock\000"
 3909      6F636B00 
 3910              	.LASF19:
 3911 01e4 63736563 		.ascii	"csect\000"
 3911      7400
 3912              	.LASF41:
 3913 01ea 506C6179 		.ascii	"Player_Playing\000"
 3913      65725F50 
 3913      6C617969 
 3913      6E6700
 3914              	.LASF71:
 3915 01f9 637A7973 		.ascii	"czysc\000"
 3915      6300
 3916              	.LASF2:
 3917 01ff 74553332 		.ascii	"tU32\000"
 3917      00
ARM GAS  /cygdrive/c/DOCUME~1/mkwapisz/LOCALS~1/Temp/ccKuhkNd.s 			page 84


 3918              	.LASF42:
 3919 0204 506C6179 		.ascii	"Player_Paused\000"
 3919      65725F50 
 3919      61757365 
 3919      6400
 3920              	.LASF38:
 3921 0212 46525F4E 		.ascii	"FR_NO_FILESYSTEM\000"
 3921      4F5F4649 
 3921      4C455359 
 3921      5354454D 
 3921      00
 3922              	.LASF8:
 3923 0223 6C6F6E67 		.ascii	"long long int\000"
 3923      206C6F6E 
 3923      6720696E 
 3923      7400
 3924              	.LASF26:
 3925 0231 6673697A 		.ascii	"fsize\000"
 3925      6500
 3926              	.LASF34:
 3927 0237 46525F4E 		.ascii	"FR_NO_FILE\000"
 3927      4F5F4649 
 3927      4C4500
 3928              	.LASF13:
 3929 0242 42595445 		.ascii	"BYTE\000"
 3929      00
 3930              	.LASF90:
 3931 0247 7069645F 		.ascii	"pid_lcd2x16\000"
 3931      6C636432 
 3931      78313600 
 3932              	.LASF62:
 3933 0253 506F637A 		.ascii	"PoczekajIWyczyscEkran\000"
 3933      656B616A 
 3933      49577963 
 3933      7A797363 
 3933      456B7261 
 3934              	.LASF14:
 3935 0269 574F5244 		.ascii	"WORD\000"
 3935      00
 3936              	.LASF17:
 3937 026e 6373697A 		.ascii	"csize\000"
 3937      6500
 3938              	.LASF25:
 3939 0274 66707472 		.ascii	"fptr\000"
 3939      00
 3940              	.LASF66:
 3941 0279 696E6974 		.ascii	"initLCD\000"
 3941      4C434400 
 3942              	.LASF69:
 3943 0281 57797377 		.ascii	"WyswietlTekstNaLCD128x128_L\000"
 3943      6965746C 
 3943      54656B73 
 3943      744E614C 
 3943      43443132 
 3944              	.LASF92:
 3945 029d 77796E69 		.ascii	"wynikInicjalizacjiSd\000"
 3945      6B496E69 
ARM GAS  /cygdrive/c/DOCUME~1/mkwapisz/LOCALS~1/Temp/ccKuhkNd.s 			page 85


 3945      636A616C 
 3945      697A6163 
 3945      6A695364 
 3946              	.LASF87:
 3947 02b2 7044656C 		.ascii	"pDelayCallback\000"
 3947      61794361 
 3947      6C6C6261 
 3947      636B00
 3948              	.LASF78:
 3949 02c1 4B6F6D75 		.ascii	"KomunikatInicjalizacji\000"
 3949      6E696B61 
 3949      74496E69 
 3949      636A616C 
 3949      697A6163 
 3950              	.LASF64:
 3951 02d8 5779637A 		.ascii	"WyczyscEkran\000"
 3951      79736345 
 3951      6B72616E 
 3951      00
 3952              	.LASF77:
 3953 02e5 57797377 		.ascii	"WyswietlTekstNaLCD128x128\000"
 3953      6965746C 
 3953      54656B73 
 3953      744E614C 
 3953      43443132 
 3954              	.LASF100:
 3955 02ff 5F464154 		.ascii	"_FATFS_\000"
 3955      46535F00 
 3956              	.LASF56:
 3957 0307 6D61696E 		.ascii	"main\000"
 3957      00
 3958              	.LASF44:
 3959 030c 506C6179 		.ascii	"Player_Next\000"
 3959      65725F4E 
 3959      65787400 
 3960              	.LASF35:
 3961 0318 46525F4E 		.ascii	"FR_NO_PATH\000"
 3961      4F5F5041 
 3961      544800
 3962              	.LASF52:
 3963 0323 57797069 		.ascii	"WypiszCiag\000"
 3963      737A4369 
 3963      616700
 3964              	.LASF28:
 3965 032e 63757272 		.ascii	"curr_clust\000"
 3965      5F636C75 
 3965      737400
 3966              	.LASF32:
 3967 0339 46525F44 		.ascii	"FR_DISK_ERR\000"
 3967      49534B5F 
 3967      45525200 
 3968              	.LASF5:
 3969 0345 73686F72 		.ascii	"short int\000"
 3969      7420696E 
 3969      7400
 3970              	.LASF84:
 3971 034f 50726F63 		.ascii	"ProcMain\000"
ARM GAS  /cygdrive/c/DOCUME~1/mkwapisz/LOCALS~1/Temp/ccKuhkNd.s 			page 86


 3971      4D61696E 
 3971      00
 3972              	.LASF11:
 3973 0358 6C6F6E67 		.ascii	"long int\000"
 3973      20696E74 
 3973      00
 3974              	.LASF82:
 3975 0361 6E725465 		.ascii	"nrTekstu\000"
 3975      6B737475 
 3975      00
 3976              	.LASF89:
 3977 036a 73746163 		.ascii	"stack_LCD2x16\000"
 3977      6B5F4C43 
 3977      44327831 
 3977      3600
 3978              	.LASF6:
 3979 0378 74533332 		.ascii	"tS32\000"
 3979      00
 3980              	.LASF70:
 3981 037d 6C696E69 		.ascii	"linia\000"
 3981      6100
 3982              	.LASF43:
 3983 0383 506C6179 		.ascii	"Player_Prev\000"
 3983      65725F50 
 3983      72657600 
 3984              	.LASF20:
 3985 038f 6E5F726F 		.ascii	"n_rootdir\000"
 3985      6F746469 
 3985      7200
 3986              	.LASF83:
 3987 0399 6E617A77 		.ascii	"nazwa\000"
 3987      6100
 3988              	.LASF68:
 3989 039f 50726F63 		.ascii	"ProcLCD2x16\000"
 3989      4C434432 
 3989      78313600 
 3990              	.LASF23:
 3991 03ab 64697262 		.ascii	"dirbase\000"
 3991      61736500 
 3992              	.LASF53:
 3993 03b3 74656B73 		.ascii	"tekst\000"
 3993      7400
 3994              	.LASF10:
 3995 03b9 6C6F6E67 		.ascii	"long unsigned int\000"
 3995      20756E73 
 3995      69676E65 
 3995      6420696E 
 3995      7400
 3996              	.LASF39:
 3997 03cb 46524553 		.ascii	"FRESULT\000"
 3997      554C5400 
 3998              	.LASF31:
 3999 03d3 46525F4F 		.ascii	"FR_OK\000"
 3999      4B00
 4000              	.LASF72:
 4001 03d9 50726F63 		.ascii	"ProcRest\000"
 4001      52657374 
ARM GAS  /cygdrive/c/DOCUME~1/mkwapisz/LOCALS~1/Temp/ccKuhkNd.s 			page 87


 4001      00
 4002              	.LASF88:
 4003 03e2 73746163 		.ascii	"stack_Main\000"
 4003      6B5F4D61 
 4003      696E00
 4004              	.LASF97:
 4005 03ed 474E5520 		.ascii	"GNU C 4.1.1\000"
 4005      4320342E 
 4005      312E3100 
 4006              	.LASF79:
 4007 03f9 6B6F6D75 		.ascii	"komunikat\000"
 4007      6E696B61 
 4007      7400
 4008              	.LASF0:
 4009 0403 756E7369 		.ascii	"unsigned char\000"
 4009      676E6564 
 4009      20636861 
 4009      7200
 4010              	.LASF50:
 4011 0411 6F6E4F66 		.ascii	"onOff\000"
 4011      6600
 4012              	.LASF67:
 4013 0417 50727A65 		.ascii	"PrzejdzDoNastepnejLinii\000"
 4013      6A647A44 
 4013      6F4E6173 
 4013      7465706E 
 4013      656A4C69 
 4014              	.LASF21:
 4015 042f 6D61785F 		.ascii	"max_clust\000"
 4015      636C7573 
 4015      7400
 4016              	.LASF63:
 4017 0439 696C6543 		.ascii	"ileCzekac\000"
 4017      7A656B61 
 4017      6300
 4018              	.LASF85:
 4019 0443 53454D41 		.ascii	"SEMAFOR_SPI\000"
 4019      464F525F 
 4019      53504900 
 4020              	.LASF4:
 4021 044f 7369676E 		.ascii	"signed char\000"
 4021      65642063 
 4021      68617200 
 4022              	.LASF1:
 4023 045b 73686F72 		.ascii	"short unsigned int\000"
 4023      7420756E 
 4023      7369676E 
 4023      65642069 
 4023      6E7400
 4024              	.LASF24:
 4025 046e 64617461 		.ascii	"database\000"
 4025      62617365 
 4025      00
 4026              	.LASF60:
 4027 0477 6B6F6C6F 		.ascii	"kolor\000"
 4027      7200
 4028              	.LASF7:
ARM GAS  /cygdrive/c/DOCUME~1/mkwapisz/LOCALS~1/Temp/ccKuhkNd.s 			page 88


 4029 047d 75696E74 		.ascii	"uint8\000"
 4029      3800
 4030              	.LASF86:
 4031 0483 696E6963 		.ascii	"inicjalizacjaZakonczona\000"
 4031      6A616C69 
 4031      7A61636A 
 4031      615A616B 
 4031      6F6E637A 
 4032              		.ident	"GCC: (GNU) 4.1.1"
ARM GAS  /cygdrive/c/DOCUME~1/mkwapisz/LOCALS~1/Temp/ccKuhkNd.s 			page 89


DEFINED SYMBOLS
                            *ABS*:00000000 main.c
/cygdrive/c/DOCUME~1/mkwapisz/LOCALS~1/Temp/ccKuhkNd.s:1      .text:00000000 $t
/cygdrive/c/DOCUME~1/mkwapisz/LOCALS~1/Temp/ccKuhkNd.s:15     .text:00000000 delay37us
/cygdrive/c/DOCUME~1/mkwapisz/LOCALS~1/Temp/ccKuhkNd.s:52     .text:00000024 $d
/cygdrive/c/DOCUME~1/mkwapisz/LOCALS~1/Temp/ccKuhkNd.s:56     .text:00000028 $t
/cygdrive/c/DOCUME~1/mkwapisz/LOCALS~1/Temp/ccKuhkNd.s:59     .text:00000028 PodswietlEkran
/cygdrive/c/DOCUME~1/mkwapisz/LOCALS~1/Temp/ccKuhkNd.s:90     .text:00000044 $d
/cygdrive/c/DOCUME~1/mkwapisz/LOCALS~1/Temp/ccKuhkNd.s:95     .text:0000004c $t
/cygdrive/c/DOCUME~1/mkwapisz/LOCALS~1/Temp/ccKuhkNd.s:98     .text:0000004c WypiszZnakNaEkran
/cygdrive/c/DOCUME~1/mkwapisz/LOCALS~1/Temp/ccKuhkNd.s:213    .text:000000d0 $d
/cygdrive/c/DOCUME~1/mkwapisz/LOCALS~1/Temp/ccKuhkNd.s:219    .text:000000dc $t
/cygdrive/c/DOCUME~1/mkwapisz/LOCALS~1/Temp/ccKuhkNd.s:222    .text:000000dc WypiszCiag
/cygdrive/c/DOCUME~1/mkwapisz/LOCALS~1/Temp/ccKuhkNd.s:264    .text:00000100 appTick
/cygdrive/c/DOCUME~1/mkwapisz/LOCALS~1/Temp/ccKuhkNd.s:283    .text:0000010c $d
/cygdrive/c/DOCUME~1/mkwapisz/LOCALS~1/Temp/ccKuhkNd.s:1335   .bss:00000000 msClock
/cygdrive/c/DOCUME~1/mkwapisz/LOCALS~1/Temp/ccKuhkNd.s:291    .text:00000110 main
/cygdrive/c/DOCUME~1/mkwapisz/LOCALS~1/Temp/ccKuhkNd.s:288    .text:00000110 $t
/cygdrive/c/DOCUME~1/mkwapisz/LOCALS~1/Temp/ccKuhkNd.s:344    .text:0000015c $d
/cygdrive/c/DOCUME~1/mkwapisz/LOCALS~1/Temp/ccKuhkNd.s:831    .text:000003a0 ProcMain
/cygdrive/c/DOCUME~1/mkwapisz/LOCALS~1/Temp/ccKuhkNd.s:1345   .bss:00000009 stack_Main
/cygdrive/c/DOCUME~1/mkwapisz/LOCALS~1/Temp/ccKuhkNd.s:351    .text:0000016c $t
/cygdrive/c/DOCUME~1/mkwapisz/LOCALS~1/Temp/ccKuhkNd.s:354    .text:0000016c ZapalajDiode
/cygdrive/c/DOCUME~1/mkwapisz/LOCALS~1/Temp/ccKuhkNd.s:527    .text:00000244 $d
/cygdrive/c/DOCUME~1/mkwapisz/LOCALS~1/Temp/ccKuhkNd.s:1343   .bss:00000008 inicjalizacjaZakonczona
/cygdrive/c/DOCUME~1/mkwapisz/LOCALS~1/Temp/ccKuhkNd.s:538    .text:00000264 $t
/cygdrive/c/DOCUME~1/mkwapisz/LOCALS~1/Temp/ccKuhkNd.s:541    .text:00000264 WyczyscEkran
/cygdrive/c/DOCUME~1/mkwapisz/LOCALS~1/Temp/ccKuhkNd.s:563    .text:00000278 PoczekajIWyczyscEkran
/cygdrive/c/DOCUME~1/mkwapisz/LOCALS~1/Temp/ccKuhkNd.s:598    .text:00000294 ProcLCD2x16
/cygdrive/c/DOCUME~1/mkwapisz/LOCALS~1/Temp/ccKuhkNd.s:723    .text:00000358 $d
/cygdrive/c/DOCUME~1/mkwapisz/LOCALS~1/Temp/ccKuhkNd.s:735    .text:00000374 $t
/cygdrive/c/DOCUME~1/mkwapisz/LOCALS~1/Temp/ccKuhkNd.s:738    .text:00000374 WyswietlTekstNaLCD128x128_L
/cygdrive/c/DOCUME~1/mkwapisz/LOCALS~1/Temp/ccKuhkNd.s:1216   .rodata:00000000 $d
/cygdrive/c/DOCUME~1/mkwapisz/LOCALS~1/Temp/ccKuhkNd.s:1286   .text:000005cc $d
/cygdrive/c/DOCUME~1/mkwapisz/LOCALS~1/Temp/ccKuhkNd.s:1349   .bss:00000999 pid_lcd2x16
/cygdrive/c/DOCUME~1/mkwapisz/LOCALS~1/Temp/ccKuhkNd.s:1347   .bss:00000199 stack_LCD2x16
/cygdrive/c/DOCUME~1/mkwapisz/LOCALS~1/Temp/ccKuhkNd.s:1328   .data:00000000 wynikInicjalizacjiSd
                            *COM*:00000030 fatfs
/cygdrive/c/DOCUME~1/mkwapisz/LOCALS~1/Temp/ccKuhkNd.s:1341   .bss:00000004 kolorDiody
                            *COM*:00000078 listaPlikow
/cygdrive/c/DOCUME~1/mkwapisz/LOCALS~1/Temp/ccKuhkNd.s:1329   .data:00000000 $d
                            *COM*:00000004 rc

UNDEFINED SYMBOLS
osInit
osCreateProcess
osStartProcess
osStart
osSleep
lcdGotoxy
lcdPuts
lcdClrscr
__modsi3
initKeyProc
lcdInit
lcdColor
pf_mount
ARM GAS  /cygdrive/c/DOCUME~1/mkwapisz/LOCALS~1/Temp/ccKuhkNd.s 			page 90


filesList
checkKey
osDeleteProcess
strncpy
startupSound
