ARM GAS  /cygdrive/c/DOCUME~1/mkwapisz/LOCALS~1/Temp/ccM9o8qX.s 			page 1


   1              		.file	"wave.c"
   8 0000 3A020000 		.text
   8      02009C00 
   8      00000201 
   8      FB0E0D00 
   8      01010101 
   9              	.Ltext0:
  10              		.align	2
  11              		.type	timer0ISR, %function
  12              	timer0ISR:
  13              	.LFB7:
  14              		.file 1 "wave.c"
   1:wave.c        **** #include "wave.h"
   2:wave.c        **** #include "../pff2/src/pff.h"
   3:wave.c        **** #include "irq_timer1.h"
   4:wave.c        **** #include "../startup/lpc2xxx.h"
   5:wave.c        **** #include "../startup/general.h"
   6:wave.c        **** #include "../startup/config.h"
   7:wave.c        **** 
   8:wave.c        **** #include "../testRGB.c"
   9:wave.c        **** 
  10:wave.c        **** static tBool koniecPetli;
  11:wave.c        **** static tBool warunekKoncowy;
  12:wave.c        **** 
  13:wave.c        **** #define CRYSTAL_FREQUENCY FOSC
  14:wave.c        **** #define PLL_FACTOR        PLL_MUL
  15:wave.c        **** #define VPBDIV_FACTOR     PBSD
  16:wave.c        **** 
  17:wave.c        **** static uint8 wave_stream_buf[512 * 1];//1 sectors
  18:wave.c        **** 
  19:wave.c        **** static WORD bytesReaded;
  20:wave.c        **** static FRESULT rc;
  21:wave.c        **** 
  22:wave.c        **** static WAVEHEADER wh;
  23:wave.c        **** static FmtChunk ws1;
  24:wave.c        **** static DataChunk ws2;
  25:wave.c        **** 
  26:wave.c        **** tBool playerInit (void)
  27:wave.c        **** {
  28:wave.c        **** 	bytesReaded = 0;
  29:wave.c        **** 
  30:wave.c        **** 	uint32 i = 0;
  31:wave.c        **** 
  32:wave.c        **** 	rc = pf_read (wave_stream_buf, sizeof(wave_stream_buf), &bytesReaded);
  33:wave.c        **** 
  34:wave.c        **** 	if (rc || !bytesReaded)
  35:wave.c        **** 	{
  36:wave.c        **** 		return FALSE;
  37:wave.c        **** 	}
  38:wave.c        **** 
  39:wave.c        **** 	//wave header
ARM GAS  /cygdrive/c/DOCUME~1/mkwapisz/LOCALS~1/Temp/ccM9o8qX.s 			page 2


  40:wave.c        **** 	wh.chunkId = wave_stream_buf[i++] << 24;
  41:wave.c        **** 	wh.chunkId += wave_stream_buf[i++] << 16;
  42:wave.c        **** 	wh.chunkId += wave_stream_buf[i++] << 8;
  43:wave.c        **** 	wh.chunkId += wave_stream_buf[i++];
  44:wave.c        **** 
  45:wave.c        **** 	wh.chunkSize = wave_stream_buf[i++];
  46:wave.c        **** 	wh.chunkSize += wave_stream_buf[i++] << 8;
  47:wave.c        **** 	wh.chunkSize += wave_stream_buf[i++] << 16;
  48:wave.c        **** 	wh.chunkSize += wave_stream_buf[i++] << 24;
  49:wave.c        **** 
  50:wave.c        **** 	wh.format = wave_stream_buf[i++] << 24;
  51:wave.c        **** 	wh.format += wave_stream_buf[i++] << 16;
  52:wave.c        **** 	wh.format += wave_stream_buf[i++] << 8;
  53:wave.c        **** 	wh.format += wave_stream_buf[i++];
  54:wave.c        **** 
  55:wave.c        **** 	ws1.subChunkId = wave_stream_buf[i++] << 24;
  56:wave.c        **** 	ws1.subChunkId += wave_stream_buf[i++] << 16;
  57:wave.c        **** 	ws1.subChunkId += wave_stream_buf[i++] << 8;
  58:wave.c        **** 	ws1.subChunkId += wave_stream_buf[i++];
  59:wave.c        **** 
  60:wave.c        **** 	ws1.subChunkSize = wave_stream_buf[i++];
  61:wave.c        **** 	ws1.subChunkSize += wave_stream_buf[i++] << 8;
  62:wave.c        **** 	ws1.subChunkSize += wave_stream_buf[i++] << 16;
  63:wave.c        **** 	ws1.subChunkSize += wave_stream_buf[i++] << 24;
  64:wave.c        **** 
  65:wave.c        **** 	ws1.audioFormat = wave_stream_buf[i++];
  66:wave.c        **** 	ws1.audioFormat += wave_stream_buf[i++] << 8;
  67:wave.c        **** 
  68:wave.c        **** 	ws1.numChannels = wave_stream_buf[i++];
  69:wave.c        **** 	ws1.numChannels += wave_stream_buf[i++] << 8;
  70:wave.c        **** 
  71:wave.c        **** 	ws1.sampleRate = wave_stream_buf[i++];
  72:wave.c        **** 	ws1.sampleRate += wave_stream_buf[i++] << 8;
  73:wave.c        **** 	ws1.sampleRate += wave_stream_buf[i++] << 16;
  74:wave.c        **** 	ws1.sampleRate += wave_stream_buf[i++] << 24;
  75:wave.c        **** 
  76:wave.c        **** 	ws1.byteRate = wave_stream_buf[i++];
  77:wave.c        **** 	ws1.byteRate += wave_stream_buf[i++] << 8;
  78:wave.c        **** 	ws1.byteRate += wave_stream_buf[i++] << 16;
  79:wave.c        **** 	ws1.byteRate += wave_stream_buf[i++] << 24;
  80:wave.c        **** 
  81:wave.c        **** 	ws1.blockAlign = wave_stream_buf[i++];
  82:wave.c        **** 	ws1.blockAlign += wave_stream_buf[i++] << 8;
  83:wave.c        **** 
  84:wave.c        **** 	ws1.bitsPerSample = wave_stream_buf[i++];
  85:wave.c        **** 	ws1.bitsPerSample += wave_stream_buf[i++] << 8;
  86:wave.c        **** 
  87:wave.c        **** 	ws2.subChunkId = wave_stream_buf[i++] << 24;
  88:wave.c        **** 	ws2.subChunkId += wave_stream_buf[i++] << 16;
  89:wave.c        **** 	ws2.subChunkId += wave_stream_buf[i++] << 8;
  90:wave.c        **** 	ws2.subChunkId += wave_stream_buf[i++];
  91:wave.c        **** 
  92:wave.c        **** 	ws2.subChunkSize = wave_stream_buf[i++];
  93:wave.c        **** 	ws2.subChunkSize += wave_stream_buf[i++] << 8;
  94:wave.c        **** 	ws2.subChunkSize += wave_stream_buf[i++] << 16;
  95:wave.c        **** 	ws2.subChunkSize += wave_stream_buf[i++] << 24;
  96:wave.c        **** 
ARM GAS  /cygdrive/c/DOCUME~1/mkwapisz/LOCALS~1/Temp/ccM9o8qX.s 			page 3


  97:wave.c        **** 	ws2.byteToOmmit = i;
  98:wave.c        **** 
  99:wave.c        **** 	return TRUE;
 100:wave.c        **** }
 101:wave.c        **** 
 102:wave.c        **** #define BUFFSIZE 512 * 5 //wielkoúÊ bufora
 103:wave.c        **** #define BUFFCOUNT 2 //iloúÊ buforÛw
 104:wave.c        **** uint8 buffer[BUFFCOUNT][BUFFSIZE]; //bufor na prÛbki
 105:wave.c        **** 
 106:wave.c        **** static uint8 bufferPlayed = 0; //numer bufora z ktÛrego sπ aktualnie odczytywane dane
 107:wave.c        **** static uint8 bufferToDownload = 0; //numer bufora ktÛry naleøy uzupe≥niÊ
 108:wave.c        **** static uint16 sample = 0; //dana prÛbka z bufora
 109:wave.c        **** static uint64 totalPlayed = 0; //iloúÊ oftworzonych prÛbek
 110:wave.c        **** static tBool refil = FALSE; //czy bufor pusty
 111:wave.c        **** 
 112:wave.c        **** static PlayerStatus *status;
 113:wave.c        **** static TimerStatus *timer;
 114:wave.c        **** 
 115:wave.c        **** static uint32 uplynelo;
 116:wave.c        **** static uint32 czasCalkowity;
 117:wave.c        **** static uint32 pozostalo;
 118:wave.c        **** 
 119:wave.c        **** tBool playWave (PlayerStatus *status2, TimerStatus *timer2)
 120:wave.c        **** {
 121:wave.c        **** 	status = status2;
 122:wave.c        **** 	timer = timer2;
 123:wave.c        **** 
 124:wave.c        **** 	bufferPlayed = 0;
 125:wave.c        **** 	bufferToDownload = 0;
 126:wave.c        **** 	sample = 0;
 127:wave.c        **** 	totalPlayed = 0;
 128:wave.c        **** 	refil = FALSE;
 129:wave.c        **** 
 130:wave.c        **** 	bytesReaded = 0;
 131:wave.c        **** 
 132:wave.c        **** 	uint32 i = 0;
 133:wave.c        **** 	pf_lseek (ws2.byteToOmmit);
 134:wave.c        **** 
 135:wave.c        **** 	//wype≥niamy na sam poczπtek czymú
 136:wave.c        **** 	do
 137:wave.c        **** 	{
 138:wave.c        **** 		rc = pf_read (buffer[i], sizeof(buffer[i]), &bytesReaded);
 139:wave.c        **** 		i++;
 140:wave.c        **** 	} while (i < BUFFCOUNT && !rc && bytesReaded);
 141:wave.c        **** 
 142:wave.c        **** 	uplynelo = 0;
 143:wave.c        **** 	czasCalkowity = ws2.subChunkSize / ws1.byteRate;
 144:wave.c        **** 
 145:wave.c        **** 	//iloúÊ prÛbek przez prÍdkosÊ odtwarzania
 146:wave.c        **** 	pozostalo = 0;
 147:wave.c        **** 	koniecPetli = FALSE;
 148:wave.c        **** 
 149:wave.c        **** 	warunekKoncowy = TRUE;
 150:wave.c        **** 
 151:wave.c        **** 	irqIni (ws1.byteRate, callback1);
 152:wave.c        **** 
 153:wave.c        **** 	while (!koniecPetli)
ARM GAS  /cygdrive/c/DOCUME~1/mkwapisz/LOCALS~1/Temp/ccM9o8qX.s 			page 4


 154:wave.c        **** 		;
 155:wave.c        **** 
 156:wave.c        **** 	return warunekKoncowy;
 157:wave.c        **** }
 158:wave.c        **** // funkcja ktora bedzie wywolywana przez timer z czestotliwoscia probkowania
 159:wave.c        **** static void callback1 (void)
 160:wave.c        **** {
 161:wave.c        **** 	if (totalPlayed >= ws2.subChunkSize)
 162:wave.c        **** 	{
 163:wave.c        **** 		zatrzymajIrq ();
 164:wave.c        **** 	} else
 165:wave.c        **** 	{
 166:wave.c        **** 		if (*status == Player_Playing)
 167:wave.c        **** 		{
 168:wave.c        **** 			if (sample >= (BUFFSIZE))
 169:wave.c        **** 			{
 170:wave.c        **** 				sample = 0;
 171:wave.c        **** 				bufferToDownload = bufferPlayed++;
 172:wave.c        **** 				refil = TRUE;
 173:wave.c        **** 			}
 174:wave.c        **** 			if (bufferPlayed >= BUFFCOUNT)
 175:wave.c        **** 				bufferPlayed = 0;
 176:wave.c        **** 
 177:wave.c        **** 			if (ws1.bitsPerSample == 8)
 178:wave.c        **** 				DACR = buffer[bufferPlayed][sample++] << 5;
 179:wave.c        **** 			else if (ws1.bitsPerSample == 16)
 180:wave.c        **** 				DACR = ((buffer[bufferPlayed][sample++] << 8) + (buffer[bufferPlayed][sample++])) << 5;
 181:wave.c        **** 
 182:wave.c        **** 			if (totalPlayed % ws1.byteRate == 0)
 183:wave.c        **** 			{
 184:wave.c        **** 				if (*timer == Timer_UP)
 185:wave.c        **** 				{
 186:wave.c        **** 					uplynelo = totalPlayed / ws1.byteRate;
 187:wave.c        **** 					lcdGotoxy (0, 32);
 188:wave.c        **** 					lcdPutsNumber (uplynelo);
 189:wave.c        **** 					lcdPuts (" : ");
 190:wave.c        **** 					lcdPutsNumber (czasCalkowity);
 191:wave.c        **** 				} else
 192:wave.c        **** 				{
 193:wave.c        **** 					pozostalo = (ws2.subChunkSize - totalPlayed) / ws1.byteRate;
 194:wave.c        **** 
 195:wave.c        **** 					lcdGotoxy (0, 32);
 196:wave.c        **** 					if (pozostalo >= 100)
 197:wave.c        **** 					{
 198:wave.c        **** 						lcdPuts ("-");
 199:wave.c        **** 					} else if (pozostalo >= 10)
 200:wave.c        **** 					{
 201:wave.c        **** 						lcdPuts (" -");
 202:wave.c        **** 					} else
 203:wave.c        **** 					{
 204:wave.c        **** 						lcdPuts ("  -");
 205:wave.c        **** 					}
 206:wave.c        **** 					lcdPutsNumber (pozostalo);
 207:wave.c        **** 				}
 208:wave.c        **** 
 209:wave.c        **** 			}
 210:wave.c        **** 		}
ARM GAS  /cygdrive/c/DOCUME~1/mkwapisz/LOCALS~1/Temp/ccM9o8qX.s 			page 5


 211:wave.c        **** 
 212:wave.c        **** 		//sprawdü przyciski
 213:wave.c        **** 		//updateStatus(status, timer, FALSE);
 214:wave.c        **** 
 215:wave.c        **** 		//wyjdü z pÍtli jeúli trzeba przerywajπc odtwarzanie
 216:wave.c        **** 		if (*status != Player_Playing && *status != Player_Paused)
 217:wave.c        **** 		{
 218:wave.c        **** 			zatrzymajIrq ();
 219:wave.c        **** 			warunekKoncowy = FALSE;
 220:wave.c        **** 		}
 221:wave.c        **** 
 222:wave.c        **** 		if (warunekKoncowy == TRUE)
 223:wave.c        **** 		{
 224:wave.c        **** 			if (refil)
 225:wave.c        **** 			{ //uzupe≥nij bufor nawet jak zapauzowane
 226:wave.c        **** 				rc = pf_read (buffer[bufferToDownload], sizeof(buffer[bufferToDownload]), &bytesReaded);
 227:wave.c        **** 				refil = FALSE;
 228:wave.c        **** 			}
 229:wave.c        **** 
 230:wave.c        **** 			if (*status == Player_Playing)
 231:wave.c        **** 			{
 232:wave.c        **** 				totalPlayed++;
 233:wave.c        **** 			}
 234:wave.c        **** 		}
 235:wave.c        **** 	}
 236:wave.c        **** }
 237:wave.c        **** 
 238:wave.c        **** static void zatrzymajIrq ()
 239:wave.c        **** {
 240:wave.c        **** 	koniecPetli = TRUE;
 241:wave.c        **** 	T0TCR = 0x00000002; //disable and reset Timer0
 242:wave.c        **** 	VICIntEnable &= ~0x10; //disable timer0 interrupt
 243:wave.c        **** }
 244:wave.c        **** 
 245:wave.c        **** static void timer0ISR (void)
 246:wave.c        **** {
  15              		.loc 1 246 0
  16              		@ Interrupt Service Routine.
  17              		@ args = 0, pretend = 0, frame = 0
  18              		@ frame_needed = 0, uses_anonymous_args = 0
  19 0000 04E04EE2 		sub	lr, lr, #4
  20 0004 0F502DE9 		stmfd	sp!, {r0, r1, r2, r3, ip, lr}
  21              	.LCFI0:
 247:wave.c        **** 	//call delay callback, if registered
 248:wave.c        **** 	if (koniecPetli == FALSE)
  22              		.loc 1 248 0
  23 0008 34309FE5 		ldr	r3, .L5
  24 000c 0030D3E5 		ldrb	r3, [r3, #0]	@ zero_extendqisi2
  25 0010 000053E3 		cmp	r3, #0
 249:wave.c        **** 	{
 250:wave.c        **** 		(*pDelayCallback) ();
  26              		.loc 1 250 0
  27 0014 2C309F05 		ldreq	r3, .L5+4
  28 0018 00C09305 		ldreq	ip, [r3, #0]
  29 001c 0FE0A001 		moveq	lr, pc
  30 0020 1CFF2F01 		bxeq	ip
  31              	.L2:
ARM GAS  /cygdrive/c/DOCUME~1/mkwapisz/LOCALS~1/Temp/ccM9o8qX.s 			page 6


 251:wave.c        **** 	}
 252:wave.c        **** 
 253:wave.c        **** 	T0IR = 0xff; //reset all IRQ flags
  32              		.loc 1 253 0
  33 0024 20309FE5 		ldr	r3, .L5+8
  34 0028 FF20A0E3 		mov	r2, #255
  35 002c 002083E5 		str	r2, [r3, #0]
 254:wave.c        **** 	VICVectAddr = 0x00; //dummy write to VIC to signal end of interrupt
  36              		.loc 1 254 0
  37 0030 0020A0E3 		mov	r2, #0
  38 0034 0030E0E3 		mvn	r3, #0
  39 0038 CF2F03E5 		str	r2, [r3, #-4047]
 255:wave.c        **** }
  40              		.loc 1 255 0
  41 003c 0F50BDE8 		ldmfd	sp!, {r0, r1, r2, r3, ip, lr}
  42 0040 04F05EE2 		subs	pc, lr, #4
  43              	.L6:
  44              		.align	2
  45              	.L5:
  46 0044 14000000 		.word	koniecPetli
  47 0048 10000000 		.word	pDelayCallback
  48 004c 004000E0 		.word	-536854528
  49              	.LFE7:
  50              		.size	timer0ISR, .-timer0ISR
  51              		.global	__udivsi3
  52              		.global	__divsi3
  53              		.align	2
  54              		.global	playWave
  55              		.type	playWave, %function
  56              	playWave:
  57              	.LFB4:
  58              		.loc 1 120 0
  59              		@ Function supports interworking.
  60              		@ args = 0, pretend = 0, frame = 0
  61              		@ frame_needed = 0, uses_anonymous_args = 0
  62              	.LVL0:
  63              		.loc 1 121 0
  64 0050 54319FE5 		ldr	r3, .L14
  65 0054 000083E5 		str	r0, [r3, #0]
  66              		.loc 1 133 0
  67 0058 50319FE5 		ldr	r3, .L14+4
  68 005c 080093E5 		ldr	r0, [r3, #8]
  69              	.LVL1:
  70              		.loc 1 122 0
  71 0060 4C319FE5 		ldr	r3, .L14+8
  72 0064 001083E5 		str	r1, [r3, #0]
  73              		.loc 1 124 0
  74 0068 48319FE5 		ldr	r3, .L14+12
  75 006c 0020A0E3 		mov	r2, #0
  76              		.loc 1 120 0
  77 0070 70402DE9 		stmfd	sp!, {r4, r5, r6, lr}
  78              	.LCFI1:
  79              		.loc 1 124 0
  80 0074 0020C3E5 		strb	r2, [r3, #0]
  81              		.loc 1 125 0
  82 0078 3C319FE5 		ldr	r3, .L14+16
  83 007c 0020C3E5 		strb	r2, [r3, #0]
ARM GAS  /cygdrive/c/DOCUME~1/mkwapisz/LOCALS~1/Temp/ccM9o8qX.s 			page 7


  84              		.loc 1 126 0
  85 0080 38319FE5 		ldr	r3, .L14+20
  86 0084 B020C3E1 		strh	r2, [r3, #0]	@ movhi
  87              		.loc 1 127 0
  88 0088 34319FE5 		ldr	r3, .L14+24
  89 008c 0050A0E3 		mov	r5, #0
  90 0090 0060A0E3 		mov	r6, #0
  91 0094 600083E8 		stmia	r3, {r5-r6}
  92              		.loc 1 130 0
  93 0098 28419FE5 		ldr	r4, .L14+28
  94              		.loc 1 128 0
  95 009c 28319FE5 		ldr	r3, .L14+32
  96              		.loc 1 130 0
  97 00a0 B020C4E1 		strh	r2, [r4, #0]	@ movhi
  98              		.loc 1 128 0
  99 00a4 0020C3E5 		strb	r2, [r3, #0]
 100              		.loc 1 133 0
 101 00a8 FEFFFFEB 		bl	pf_lseek
 102              	.LVL2:
 103              		.loc 1 138 0
 104 00ac 1C019FE5 		ldr	r0, .L14+36
 105 00b0 0A1CA0E3 		mov	r1, #2560
 106 00b4 0420A0E1 		mov	r2, r4
 107 00b8 FEFFFFEB 		bl	pf_read
 108 00bc 10519FE5 		ldr	r5, .L14+40
 109              		.loc 1 140 0
 110 00c0 000050E3 		cmp	r0, #0
 111              		.loc 1 138 0
 112 00c4 000085E5 		str	r0, [r5, #0]
 113              		.loc 1 140 0
 114 00c8 0600000A 		beq	.L13
 115 00cc 080000EA 		b	.L8
 116              	.L10:
 117              		.loc 1 138 0
 118 00d0 0420A0E1 		mov	r2, r4
 119 00d4 FC009FE5 		ldr	r0, .L14+44
 120 00d8 0A1CA0E3 		mov	r1, #2560
 121 00dc FEFFFFEB 		bl	pf_read
 122 00e0 000085E5 		str	r0, [r5, #0]
 123 00e4 020000EA 		b	.L8
 124              	.L13:
 125              		.loc 1 140 0
 126 00e8 B030D4E1 		ldrh	r3, [r4, #0]
 127 00ec 000053E3 		cmp	r3, #0
 128 00f0 F6FFFF1A 		bne	.L10
 129              	.L8:
 130              		.loc 1 143 0
 131 00f4 E0309FE5 		ldr	r3, .L14+48
 132 00f8 104093E5 		ldr	r4, [r3, #16]
 133 00fc AC309FE5 		ldr	r3, .L14+4
 134 0100 040093E5 		ldr	r0, [r3, #4]
 135              		.loc 1 142 0
 136 0104 D4309FE5 		ldr	r3, .L14+52
 137 0108 0060A0E3 		mov	r6, #0
 138              		.loc 1 143 0
 139 010c 0410A0E1 		mov	r1, r4
 140              		.loc 1 142 0
ARM GAS  /cygdrive/c/DOCUME~1/mkwapisz/LOCALS~1/Temp/ccM9o8qX.s 			page 8


 141 0110 006083E5 		str	r6, [r3, #0]
 142              		.loc 1 143 0
 143 0114 FEFFFFEB 		bl	__udivsi3
 144 0118 C4309FE5 		ldr	r3, .L14+56
 145              	.LBB4:
 146              	.LBB5:
 256:wave.c        **** 
 257:wave.c        **** static void irqIni (tU16 czestotliwosc, void(*pCallback) ())
 258:wave.c        **** {
 259:wave.c        **** 	//register callback and reset expired flag
 260:wave.c        **** 	pDelayCallback = pCallback;
 147              		.loc 1 260 0
 148 011c C4209FE5 		ldr	r2, .L14+60
 149              	.LBE5:
 150              	.LBE4:
 151              		.loc 1 143 0
 152 0120 000083E5 		str	r0, [r3, #0]
 153              	.LBB6:
 154              	.LBB7:
 155              		.loc 1 260 0
 156 0124 C0309FE5 		ldr	r3, .L14+64
 261:wave.c        **** 
 262:wave.c        **** 	//initialize VIC for Timer0 interrupts
 263:wave.c        **** 	VICIntSelect &= ~0x10; //Timer0 interrupt is assigned to IRQ (not FIQ)
 157              		.loc 1 263 0
 158 0128 00E0E0E3 		mvn	lr, #0
 159              		.loc 1 260 0
 160 012c 002083E5 		str	r2, [r3, #0]
 161              	.LBE7:
 162              	.LBE6:
 163              		.loc 1 146 0
 164 0130 B8309FE5 		ldr	r3, .L14+68
 165              	.LBB8:
 166              	.LBB9:
 167              		.loc 1 263 0
 168 0134 F3CF1EE5 		ldr	ip, [lr, #-4083]
 169              	.LBE9:
 170              	.LBE8:
 171              		.loc 1 146 0
 172 0138 006083E5 		str	r6, [r3, #0]
 173              	.LBB10:
 174              	.LBB11:
 264:wave.c        **** 	VICVectAddr4 = (tU32) timer0ISR; //register ISR address
 175              		.loc 1 264 0
 176 013c B0309FE5 		ldr	r3, .L14+72
 177              		.loc 1 263 0
 178 0140 10C0CCE3 		bic	ip, ip, #16
 179 0144 F3CF0EE5 		str	ip, [lr, #-4083]
 180              		.loc 1 264 0
 181 0148 EF3E0EE5 		str	r3, [lr, #-3823]
 182              	.LBE11:
 183              	.LBE10:
 184              		.loc 1 147 0
 185 014c A4309FE5 		ldr	r3, .L14+76
 186 0150 0060C3E5 		strb	r6, [r3, #0]
 187              	.LBB12:
 188              	.LBB13:
ARM GAS  /cygdrive/c/DOCUME~1/mkwapisz/LOCALS~1/Temp/ccM9o8qX.s 			page 9


 265:wave.c        **** 	VICVectCntl4 = 0x24; //enable vector interrupt for timer0
 189              		.loc 1 265 0
 190 0154 2430A0E3 		mov	r3, #36
 191 0158 EF3D0EE5 		str	r3, [lr, #-3567]
 266:wave.c        **** 	VICIntEnable = 0x10; //enable timer0 interrupt
 192              		.loc 1 266 0
 193 015c 1030A0E3 		mov	r3, #16
 194 0160 EF3F0EE5 		str	r3, [lr, #-4079]
 267:wave.c        **** 
 268:wave.c        **** 	//initialize and start Timer #0
 269:wave.c        **** 	T0TCR = 0x00000002; //disable and reset Timer0
 270:wave.c        **** 	T0PC = 0x00000000; //no prescale of clock
 271:wave.c        **** 	T0MR0 = (CRYSTAL_FREQUENCY * PLL_FACTOR) / (czestotliwosc * VPBDIV_FACTOR);//calculate no of timer
 195              		.loc 1 271 0
 196 0164 0448A0E1 		mov	r4, r4, asl #16
 197              	.LBE13:
 198              	.LBE12:
 199              		.loc 1 149 0
 200 0168 8C309FE5 		ldr	r3, .L14+80
 201              	.LBB14:
 202              	.LBB15:
 203              		.loc 1 269 0
 204 016c 8C509FE5 		ldr	r5, .L14+84
 205              		.loc 1 271 0
 206 0170 2418A0E1 		mov	r1, r4, lsr #16
 207              	.LBE15:
 208              	.LBE14:
 209              		.loc 1 149 0
 210 0174 0140A0E3 		mov	r4, #1
 211 0178 0040C3E5 		strb	r4, [r3, #0]
 212              	.LBB16:
 213              	.LBB17:
 214              		.loc 1 269 0
 215 017c 0230A0E3 		mov	r3, #2
 216 0180 043085E5 		str	r3, [r5, #4]
 217              		.loc 1 271 0
 218 0184 78009FE5 		ldr	r0, .L14+88
 219              		.loc 1 270 0
 220 0188 106085E5 		str	r6, [r5, #16]
 221              		.loc 1 271 0
 222 018c FEFFFFEB 		bl	__divsi3
 272:wave.c        **** 	T0IR = 0x000000ff; //reset all flags before enable IRQs
 223              		.loc 1 272 0
 224 0190 FF30A0E3 		mov	r3, #255
 225              		.loc 1 271 0
 226 0194 180085E5 		str	r0, [r5, #24]
 227              		.loc 1 272 0
 228 0198 003085E5 		str	r3, [r5, #0]
 273:wave.c        **** 	T0MCR = 0x00000003; //reset counter and generate IRQ on MR0 match
 229              		.loc 1 273 0
 230 019c 0330A0E3 		mov	r3, #3
 231 01a0 143085E5 		str	r3, [r5, #20]
 274:wave.c        **** 	T0TCR = 0x00000001; //start Timer0
 232              		.loc 1 274 0
 233 01a4 044085E5 		str	r4, [r5, #4]
 234              	.L11:
 235 01a8 FEFFFFEA 		b	.L11
ARM GAS  /cygdrive/c/DOCUME~1/mkwapisz/LOCALS~1/Temp/ccM9o8qX.s 			page 10


 236              	.L15:
 237              		.align	2
 238              	.L14:
 239 01ac 4C020000 		.word	status
 240 01b0 40020000 		.word	ws2
 241 01b4 50020000 		.word	timer
 242 01b8 00000000 		.word	bufferPlayed
 243 01bc 01000000 		.word	bufferToDownload
 244 01c0 02000000 		.word	sample
 245 01c4 04000000 		.word	totalPlayed
 246 01c8 16020000 		.word	bytesReaded
 247 01cc 0C000000 		.word	refil
 248 01d0 00000000 		.word	buffer
 249 01d4 18020000 		.word	rc
 250 01d8 000A0000 		.word	buffer+2560
 251 01dc 28020000 		.word	ws1
 252 01e0 54020000 		.word	uplynelo
 253 01e4 58020000 		.word	czasCalkowity
 254 01e8 A0040000 		.word	callback1
 255 01ec 10000000 		.word	pDelayCallback
 256 01f0 5C020000 		.word	pozostalo
 257 01f4 00000000 		.word	timer0ISR
 258 01f8 14000000 		.word	koniecPetli
 259 01fc 15000000 		.word	warunekKoncowy
 260 0200 004000E0 		.word	-536854528
 261 0204 00879303 		.word	60000000
 262              	.LBE17:
 263              	.LBE16:
 264              	.LFE4:
 265              		.size	playWave, .-playWave
 266              		.align	2
 267              		.global	playerInit
 268              		.type	playerInit, %function
 269              	playerInit:
 270              	.LFB3:
 271              		.loc 1 27 0
 272              		@ Function supports interworking.
 273              		@ args = 0, pretend = 0, frame = 72
 274              		@ frame_needed = 0, uses_anonymous_args = 0
 275 0208 F04F2DE9 		stmfd	sp!, {r4, r5, r6, r7, r8, r9, sl, fp, lr}
 276              	.LCFI2:
 277              		.loc 1 28 0
 278 020c 74429FE5 		ldr	r4, .L22
 279              		.loc 1 32 0
 280 0210 74B29FE5 		ldr	fp, .L22+4
 281              		.loc 1 28 0
 282 0214 0030A0E3 		mov	r3, #0	@ movhi
 283 0218 B030C4E1 		strh	r3, [r4, #0]	@ movhi
 284              		.loc 1 27 0
 285 021c 48D04DE2 		sub	sp, sp, #72
 286              	.LCFI3:
 287              		.loc 1 32 0
 288 0220 021CA0E3 		mov	r1, #512
 289 0224 0B00A0E1 		mov	r0, fp
 290 0228 0420A0E1 		mov	r2, r4
 291 022c FEFFFFEB 		bl	pf_read
 292 0230 58329FE5 		ldr	r3, .L22+8
ARM GAS  /cygdrive/c/DOCUME~1/mkwapisz/LOCALS~1/Temp/ccM9o8qX.s 			page 11


 293              		.loc 1 34 0
 294 0234 000050E3 		cmp	r0, #0
 295              		.loc 1 32 0
 296 0238 000083E5 		str	r0, [r3, #0]
 297              		.loc 1 34 0
 298 023c 8D00001A 		bne	.L17
 299 0240 B030D4E1 		ldrh	r3, [r4, #0]
 300 0244 000053E3 		cmp	r3, #0
 301 0248 8A00000A 		beq	.L17
 302              		.loc 1 74 0
 303 024c 1AC0DBE5 		ldrb	ip, [fp, #26]	@ zero_extendqisi2
 304              		.loc 1 43 0
 305 0250 00E0DBE5 		ldrb	lr, [fp, #0]	@ zero_extendqisi2
 306              		.loc 1 53 0
 307 0254 0830DBE5 		ldrb	r3, [fp, #8]	@ zero_extendqisi2
 308              		.loc 1 58 0
 309 0258 0C60DBE5 		ldrb	r6, [fp, #12]	@ zero_extendqisi2
 310              		.loc 1 43 0
 311 025c 0110DBE5 		ldrb	r1, [fp, #1]	@ zero_extendqisi2
 312              		.loc 1 53 0
 313 0260 0920DBE5 		ldrb	r2, [fp, #9]	@ zero_extendqisi2
 314              		.loc 1 58 0
 315 0264 0D00DBE5 		ldrb	r0, [fp, #13]	@ zero_extendqisi2
 316              		.loc 1 48 0
 317 0268 0670DBE5 		ldrb	r7, [fp, #6]	@ zero_extendqisi2
 318              		.loc 1 63 0
 319 026c 1280DBE5 		ldrb	r8, [fp, #18]	@ zero_extendqisi2
 320              		.loc 1 74 0
 321 0270 0CC08DE5 		str	ip, [sp, #12]
 322              		.loc 1 43 0
 323 0274 03C0DBE5 		ldrb	ip, [fp, #3]	@ zero_extendqisi2
 324 0278 40C08DE5 		str	ip, [sp, #64]
 325              		.loc 1 48 0
 326 027c 05C0DBE5 		ldrb	ip, [fp, #5]	@ zero_extendqisi2
 327 0280 04A0DBE5 		ldrb	sl, [fp, #4]	@ zero_extendqisi2
 328 0284 3CC08DE5 		str	ip, [sp, #60]
 329 0288 07C0DBE5 		ldrb	ip, [fp, #7]	@ zero_extendqisi2
 330 028c 38C08DE5 		str	ip, [sp, #56]
 331              		.loc 1 53 0
 332 0290 0BC0DBE5 		ldrb	ip, [fp, #11]	@ zero_extendqisi2
 333 0294 30C08DE5 		str	ip, [sp, #48]
 334              		.loc 1 58 0
 335 0298 0FC0DBE5 		ldrb	ip, [fp, #15]	@ zero_extendqisi2
 336 029c 28C08DE5 		str	ip, [sp, #40]
 337              		.loc 1 63 0
 338 02a0 11C0DBE5 		ldrb	ip, [fp, #17]	@ zero_extendqisi2
 339 02a4 1040DBE5 		ldrb	r4, [fp, #16]	@ zero_extendqisi2
 340 02a8 24C08DE5 		str	ip, [sp, #36]
 341 02ac 13C0DBE5 		ldrb	ip, [fp, #19]	@ zero_extendqisi2
 342 02b0 20C08DE5 		str	ip, [sp, #32]
 343              		.loc 1 74 0
 344 02b4 19C0DBE5 		ldrb	ip, [fp, #25]	@ zero_extendqisi2
 345 02b8 1850DBE5 		ldrb	r5, [fp, #24]	@ zero_extendqisi2
 346 02bc 14C08DE5 		str	ip, [sp, #20]
 347 02c0 1BC0DBE5 		ldrb	ip, [fp, #27]	@ zero_extendqisi2
 348 02c4 10C08DE5 		str	ip, [sp, #16]
 349              		.loc 1 58 0
ARM GAS  /cygdrive/c/DOCUME~1/mkwapisz/LOCALS~1/Temp/ccM9o8qX.s 			page 12


 350 02c8 0008A0E1 		mov	r0, r0, asl #16
 351 02cc 060C80E0 		add	r0, r0, r6, asl #24
 352              		.loc 1 43 0
 353 02d0 02C0DBE5 		ldrb	ip, [fp, #2]	@ zero_extendqisi2
 354              		.loc 1 74 0
 355 02d4 0C609DE5 		ldr	r6, [sp, #12]
 356              		.loc 1 53 0
 357 02d8 0228A0E1 		mov	r2, r2, asl #16
 358              		.loc 1 43 0
 359 02dc 44C08DE5 		str	ip, [sp, #68]
 360              		.loc 1 53 0
 361 02e0 032C82E0 		add	r2, r2, r3, asl #24
 362              		.loc 1 74 0
 363 02e4 0638A0E1 		mov	r3, r6, asl #16
 364              		.loc 1 53 0
 365 02e8 0A60DBE5 		ldrb	r6, [fp, #10]	@ zero_extendqisi2
 366 02ec 34608DE5 		str	r6, [sp, #52]
 367              		.loc 1 58 0
 368 02f0 0EC0DBE5 		ldrb	ip, [fp, #14]	@ zero_extendqisi2
 369 02f4 2CC08DE5 		str	ip, [sp, #44]
 370              		.loc 1 66 0
 371 02f8 15C0DBE5 		ldrb	ip, [fp, #21]	@ zero_extendqisi2
 372 02fc 1460DBE5 		ldrb	r6, [fp, #20]	@ zero_extendqisi2
 373 0300 1CC08DE5 		str	ip, [sp, #28]
 374              		.loc 1 69 0
 375 0304 17C0DBE5 		ldrb	ip, [fp, #23]	@ zero_extendqisi2
 376              		.loc 1 43 0
 377 0308 0118A0E1 		mov	r1, r1, asl #16
 378 030c 0E1C81E0 		add	r1, r1, lr, asl #24
 379              		.loc 1 69 0
 380 0310 16E0DBE5 		ldrb	lr, [fp, #22]	@ zero_extendqisi2
 381 0314 18C08DE5 		str	ip, [sp, #24]
 382              		.loc 1 43 0
 383 0318 40C09DE5 		ldr	ip, [sp, #64]
 384 031c 0C1081E0 		add	r1, r1, ip
 385              		.loc 1 48 0
 386 0320 3CC09DE5 		ldr	ip, [sp, #60]
 387 0324 0CA48AE0 		add	sl, sl, ip, asl #8
 388 0328 38C09DE5 		ldr	ip, [sp, #56]
 389 032c 0778A0E1 		mov	r7, r7, asl #16
 390 0330 0C7C87E0 		add	r7, r7, ip, asl #24
 391              		.loc 1 53 0
 392 0334 30C09DE5 		ldr	ip, [sp, #48]
 393 0338 0C2082E0 		add	r2, r2, ip
 394              		.loc 1 58 0
 395 033c 28C09DE5 		ldr	ip, [sp, #40]
 396 0340 0C0080E0 		add	r0, r0, ip
 397              		.loc 1 63 0
 398 0344 24C09DE5 		ldr	ip, [sp, #36]
 399 0348 0C4484E0 		add	r4, r4, ip, asl #8
 400 034c 20C09DE5 		ldr	ip, [sp, #32]
 401 0350 0888A0E1 		mov	r8, r8, asl #16
 402 0354 0C8C88E0 		add	r8, r8, ip, asl #24
 403              		.loc 1 74 0
 404 0358 14C09DE5 		ldr	ip, [sp, #20]
 405 035c 0C5485E0 		add	r5, r5, ip, asl #8
 406 0360 10C09DE5 		ldr	ip, [sp, #16]
ARM GAS  /cygdrive/c/DOCUME~1/mkwapisz/LOCALS~1/Temp/ccM9o8qX.s 			page 13


 407 0364 0C3C83E0 		add	r3, r3, ip, asl #24
 408              		.loc 1 43 0
 409 0368 44C09DE5 		ldr	ip, [sp, #68]
 410 036c 0C1481E0 		add	r1, r1, ip, asl #8
 411              		.loc 1 53 0
 412 0370 34C09DE5 		ldr	ip, [sp, #52]
 413 0374 0C2482E0 		add	r2, r2, ip, asl #8
 414              		.loc 1 58 0
 415 0378 2CC09DE5 		ldr	ip, [sp, #44]
 416 037c 0C0480E0 		add	r0, r0, ip, asl #8
 417              		.loc 1 66 0
 418 0380 1CC09DE5 		ldr	ip, [sp, #28]
 419 0384 0C6486E0 		add	r6, r6, ip, asl #8
 420              		.loc 1 69 0
 421 0388 18C09DE5 		ldr	ip, [sp, #24]
 422              		.loc 1 74 0
 423 038c 08308DE5 		str	r3, [sp, #8]
 424              		.loc 1 43 0
 425 0390 FC309FE5 		ldr	r3, .L22+12
 426              		.loc 1 69 0
 427 0394 0CE48EE0 		add	lr, lr, ip, asl #8
 428              		.loc 1 74 0
 429 0398 08C09DE5 		ldr	ip, [sp, #8]
 430              		.loc 1 43 0
 431 039c 001083E5 		str	r1, [r3, #0]
 432              		.loc 1 58 0
 433 03a0 F0109FE5 		ldr	r1, .L22+16
 434              		.loc 1 48 0
 435 03a4 07A08AE0 		add	sl, sl, r7
 436              		.loc 1 63 0
 437 03a8 084084E0 		add	r4, r4, r8
 438              		.loc 1 74 0
 439 03ac 0C5085E0 		add	r5, r5, ip
 440              		.loc 1 53 0
 441 03b0 082083E5 		str	r2, [r3, #8]
 442              		.loc 1 48 0
 443 03b4 04A083E5 		str	sl, [r3, #4]
 444              		.loc 1 58 0
 445 03b8 110081E8 		stmia	r1, {r0, r4}	@ phole stm
 446              		.loc 1 66 0
 447 03bc B860C1E1 		strh	r6, [r1, #8]	@ movhi
 448              		.loc 1 69 0
 449 03c0 BAE0C1E1 		strh	lr, [r1, #10]	@ movhi
 450              		.loc 1 74 0
 451 03c4 0C5081E5 		str	r5, [r1, #12]
 452              		.loc 1 90 0
 453 03c8 2760DBE5 		ldrb	r6, [fp, #39]	@ zero_extendqisi2
 454 03cc 2430DBE5 		ldrb	r3, [fp, #36]	@ zero_extendqisi2
 455              		.loc 1 79 0
 456 03d0 1FC0DBE5 		ldrb	ip, [fp, #31]	@ zero_extendqisi2
 457              		.loc 1 90 0
 458 03d4 2520DBE5 		ldrb	r2, [fp, #37]	@ zero_extendqisi2
 459              		.loc 1 95 0
 460 03d8 2AE0DBE5 		ldrb	lr, [fp, #42]	@ zero_extendqisi2
 461              		.loc 1 79 0
 462 03dc 1E00DBE5 		ldrb	r0, [fp, #30]	@ zero_extendqisi2
 463 03e0 1C50DBE5 		ldrb	r5, [fp, #28]	@ zero_extendqisi2
ARM GAS  /cygdrive/c/DOCUME~1/mkwapisz/LOCALS~1/Temp/ccM9o8qX.s 			page 14


 464 03e4 1D90DBE5 		ldrb	r9, [fp, #29]	@ zero_extendqisi2
 465              		.loc 1 90 0
 466 03e8 04608DE5 		str	r6, [sp, #4]
 467              		.loc 1 95 0
 468 03ec 2B60DBE5 		ldrb	r6, [fp, #43]	@ zero_extendqisi2
 469 03f0 2910DBE5 		ldrb	r1, [fp, #41]	@ zero_extendqisi2
 470 03f4 2840DBE5 		ldrb	r4, [fp, #40]	@ zero_extendqisi2
 471              		.loc 1 79 0
 472 03f8 0008A0E1 		mov	r0, r0, asl #16
 473              		.loc 1 95 0
 474 03fc 00608DE5 		str	r6, [sp, #0]
 475              		.loc 1 79 0
 476 0400 0C0C80E0 		add	r0, r0, ip, asl #24
 477              		.loc 1 90 0
 478 0404 0228A0E1 		mov	r2, r2, asl #16
 479 0408 04C09DE5 		ldr	ip, [sp, #4]
 480 040c 032C82E0 		add	r2, r2, r3, asl #24
 481              		.loc 1 95 0
 482 0410 014484E0 		add	r4, r4, r1, asl #8
 483              		.loc 1 85 0
 484 0414 2230DBE5 		ldrb	r3, [fp, #34]	@ zero_extendqisi2
 485              		.loc 1 95 0
 486 0418 00109DE5 		ldr	r1, [sp, #0]
 487              		.loc 1 85 0
 488 041c 2370DBE5 		ldrb	r7, [fp, #35]	@ zero_extendqisi2
 489              		.loc 1 90 0
 490 0420 0C2082E0 		add	r2, r2, ip
 491              		.loc 1 95 0
 492 0424 0EE8A0E1 		mov	lr, lr, asl #16
 493              		.loc 1 85 0
 494 0428 68C09FE5 		ldr	ip, .L22+16
 495              		.loc 1 82 0
 496 042c 2060DBE5 		ldrb	r6, [fp, #32]	@ zero_extendqisi2
 497 0430 21A0DBE5 		ldrb	sl, [fp, #33]	@ zero_extendqisi2
 498              		.loc 1 90 0
 499 0434 2680DBE5 		ldrb	r8, [fp, #38]	@ zero_extendqisi2
 500              		.loc 1 95 0
 501 0438 01EC8EE0 		add	lr, lr, r1, asl #24
 502              		.loc 1 85 0
 503 043c 073483E0 		add	r3, r3, r7, asl #8
 504              		.loc 1 90 0
 505 0440 54109FE5 		ldr	r1, .L22+20
 506              		.loc 1 79 0
 507 0444 095485E0 		add	r5, r5, r9, asl #8
 508 0448 005085E0 		add	r5, r5, r0
 509              		.loc 1 82 0
 510 044c 0A6486E0 		add	r6, r6, sl, asl #8
 511              		.loc 1 90 0
 512 0450 082482E0 		add	r2, r2, r8, asl #8
 513              		.loc 1 95 0
 514 0454 0E4084E0 		add	r4, r4, lr
 515              		.loc 1 85 0
 516 0458 B631CCE1 		strh	r3, [ip, #22]	@ movhi
 517              		.loc 1 97 0
 518 045c 0100A0E3 		mov	r0, #1
 519 0460 2C30A0E3 		mov	r3, #44
 520 0464 083081E5 		str	r3, [r1, #8]
ARM GAS  /cygdrive/c/DOCUME~1/mkwapisz/LOCALS~1/Temp/ccM9o8qX.s 			page 15


 521              		.loc 1 79 0
 522 0468 10508CE5 		str	r5, [ip, #16]
 523              		.loc 1 82 0
 524 046c B461CCE1 		strh	r6, [ip, #20]	@ movhi
 525              		.loc 1 90 0
 526 0470 140081E8 		stmia	r1, {r2, r4}	@ phole stm
 527 0474 000000EA 		b	.L20
 528              	.L17:
 529              		.loc 1 99 0
 530 0478 0000A0E3 		mov	r0, #0
 531              	.L20:
 532              		.loc 1 100 0
 533 047c 48D08DE2 		add	sp, sp, #72
 534 0480 F04FBDE8 		ldmfd	sp!, {r4, r5, r6, r7, r8, r9, sl, fp, lr}
 535 0484 1EFF2FE1 		bx	lr
 536              	.L23:
 537              		.align	2
 538              	.L22:
 539 0488 16020000 		.word	bytesReaded
 540 048c 16000000 		.word	wave_stream_buf
 541 0490 18020000 		.word	rc
 542 0494 1C020000 		.word	wh
 543 0498 28020000 		.word	ws1
 544 049c 40020000 		.word	ws2
 545              	.LFE3:
 546              		.size	playerInit, .-playerInit
 547              		.global	__umoddi3
 548              		.global	__udivdi3
 549              		.section	.rodata.str1.4,"aMS",%progbits,1
 550              		.align	2
 551              	.LC0:
 552 0000 203A2000 		.ascii	" : \000"
 553              		.align	2
 554              	.LC1:
 555 0004 2D00     		.ascii	"-\000"
 556 0006 0000     		.align	2
 557              	.LC2:
 558 0008 202D00   		.ascii	" -\000"
 559 000b 00       		.align	2
 560              	.LC3:
 561 000c 20202D00 		.ascii	"  -\000"
 562              		.text
 563              		.align	2
 564              		.type	callback1, %function
 565              	callback1:
 566              	.LFB5:
 567              		.loc 1 160 0
 568              		@ Function supports interworking.
 569              		@ args = 0, pretend = 0, frame = 0
 570              		@ frame_needed = 0, uses_anonymous_args = 0
 571              		.loc 1 161 0
 572 04a0 BC329FE5 		ldr	r3, .L57
 573 04a4 042093E5 		ldr	r2, [r3, #4]
 574 04a8 B8329FE5 		ldr	r3, .L57+4
 575              		.loc 1 160 0
 576 04ac F04F2DE9 		stmfd	sp!, {r4, r5, r6, r7, r8, r9, sl, fp, lr}
 577              	.LCFI4:
ARM GAS  /cygdrive/c/DOCUME~1/mkwapisz/LOCALS~1/Temp/ccM9o8qX.s 			page 16


 578              		.loc 1 161 0
 579 04b0 C00093E8 		ldmia	r3, {r6-r7}
 580 04b4 02A0A0E1 		mov	sl, r2
 581 04b8 00B0A0E3 		mov	fp, #0
 582 04bc 07005BE1 		cmp	fp, r7
 583 04c0 0100001A 		bne	.L27
 584 04c4 06005AE1 		cmp	sl, r6
 585 04c8 0A00008A 		bhi	.L25
 586              	.L27:
 587              	.LBB22:
 588              	.LBB23:
 589              		.loc 1 241 0
 590 04cc 98329FE5 		ldr	r3, .L57+8
 591 04d0 0220A0E3 		mov	r2, #2
 592 04d4 042083E5 		str	r2, [r3, #4]
 593              		.loc 1 242 0
 594 04d8 0000E0E3 		mvn	r0, #0
 595 04dc EF2F10E5 		ldr	r2, [r0, #-4079]
 596              		.loc 1 240 0
 597 04e0 88329FE5 		ldr	r3, .L57+12
 598              		.loc 1 242 0
 599 04e4 1020C2E3 		bic	r2, r2, #16
 600              		.loc 1 240 0
 601 04e8 0110A0E3 		mov	r1, #1
 602 04ec 0010C3E5 		strb	r1, [r3, #0]
 603              		.loc 1 242 0
 604 04f0 EF2F00E5 		str	r2, [r0, #-4079]
 605 04f4 980000EA 		b	.L53
 606              	.L25:
 607              	.LBE23:
 608              	.LBE22:
 609              		.loc 1 166 0
 610 04f8 74329FE5 		ldr	r3, .L57+16
 611 04fc 003093E5 		ldr	r3, [r3, #0]
 612 0500 000093E5 		ldr	r0, [r3, #0]
 613 0504 010050E3 		cmp	r0, #1
 614 0508 6000001A 		bne	.L29
 615              		.loc 1 168 0
 616 050c 64C29FE5 		ldr	ip, .L57+20
 617 0510 B030DCE1 		ldrh	r3, [ip, #0]
 618 0514 0A0C53E3 		cmp	r3, #2560
 619 0518 0800003A 		bcc	.L31
 620              		.loc 1 171 0
 621 051c 58229FE5 		ldr	r2, .L57+24
 622 0520 0010D2E5 		ldrb	r1, [r2, #0]	@ zero_extendqisi2
 623 0524 013081E2 		add	r3, r1, #1
 624 0528 0030C2E5 		strb	r3, [r2, #0]
 625              		.loc 1 172 0
 626 052c 4C329FE5 		ldr	r3, .L57+28
 627 0530 0000C3E5 		strb	r0, [r3, #0]
 628              		.loc 1 171 0
 629 0534 48329FE5 		ldr	r3, .L57+32
 630              		.loc 1 170 0
 631 0538 B070CCE1 		strh	r7, [ip, #0]	@ movhi
 632              		.loc 1 171 0
 633 053c 0010C3E5 		strb	r1, [r3, #0]
 634              	.L31:
ARM GAS  /cygdrive/c/DOCUME~1/mkwapisz/LOCALS~1/Temp/ccM9o8qX.s 			page 17


 635              		.loc 1 174 0
 636 0540 34229FE5 		ldr	r2, .L57+24
 637 0544 0030D2E5 		ldrb	r3, [r2, #0]	@ zero_extendqisi2
 638 0548 010053E3 		cmp	r3, #1
 639              		.loc 1 177 0
 640 054c 34329FE5 		ldr	r3, .L57+36
 641 0550 B631D3E1 		ldrh	r3, [r3, #22]
 642              		.loc 1 175 0
 643 0554 0070C285 		strhib	r7, [r2, #0]
 644              		.loc 1 177 0
 645 0558 080053E3 		cmp	r3, #8
 646 055c 0600001A 		bne	.L35
 647              		.loc 1 178 0
 648 0560 0010D2E5 		ldrb	r1, [r2, #0]	@ zero_extendqisi2
 649 0564 20329FE5 		ldr	r3, .L57+40
 650 0568 0A2CA0E3 		mov	r2, #2560
 651 056c 913223E0 		mla	r3, r1, r2, r3
 652 0570 B010DCE1 		ldrh	r1, [ip, #0]
 653 0574 0130D3E7 		ldrb	r3, [r3, r1]	@ zero_extendqisi2
 654 0578 080000EA 		b	.L54
 655              	.L35:
 656              		.loc 1 179 0
 657 057c 100053E3 		cmp	r3, #16
 658 0580 0B00001A 		bne	.L37
 659              		.loc 1 180 0
 660 0584 0010D2E5 		ldrb	r1, [r2, #0]	@ zero_extendqisi2
 661 0588 FC319FE5 		ldr	r3, .L57+40
 662 058c 0A2CA0E3 		mov	r2, #2560
 663 0590 913223E0 		mla	r3, r1, r2, r3
 664 0594 B010DCE1 		ldrh	r1, [ip, #0]
 665 0598 0130D3E7 		ldrb	r3, [r3, r1]	@ zero_extendqisi2
 666 059c 033483E0 		add	r3, r3, r3, asl #8
 667              	.L54:
 668 05a0 E8219FE5 		ldr	r2, .L57+44
 669 05a4 8332A0E1 		mov	r3, r3, asl #5
 670 05a8 011081E2 		add	r1, r1, #1
 671 05ac 003082E5 		str	r3, [r2, #0]
 672 05b0 B010CCE1 		strh	r1, [ip, #0]	@ movhi
 673              	.L37:
 674              		.loc 1 182 0
 675 05b4 CC319FE5 		ldr	r3, .L57+36
 676 05b8 103093E5 		ldr	r3, [r3, #16]
 677 05bc 0340A0E1 		mov	r4, r3
 678 05c0 0050A0E3 		mov	r5, #0
 679 05c4 0600A0E1 		mov	r0, r6
 680 05c8 0710A0E1 		mov	r1, r7
 681 05cc 0420A0E1 		mov	r2, r4
 682 05d0 0530A0E1 		mov	r3, r5
 683 05d4 FEFFFFEB 		bl	__umoddi3
 684 05d8 019090E1 		orrs	r9, r0, r1
 685 05dc 3F00001A 		bne	.L39
 686              		.loc 1 184 0
 687 05e0 AC319FE5 		ldr	r3, .L57+48
 688 05e4 003093E5 		ldr	r3, [r3, #0]
 689 05e8 008093E5 		ldr	r8, [r3, #0]
 690 05ec 000058E3 		cmp	r8, #0
 691 05f0 0F00001A 		bne	.L41
ARM GAS  /cygdrive/c/DOCUME~1/mkwapisz/LOCALS~1/Temp/ccM9o8qX.s 			page 18


 692              		.loc 1 186 0
 693 05f4 0420A0E1 		mov	r2, r4
 694 05f8 0530A0E1 		mov	r3, r5
 695 05fc 0600A0E1 		mov	r0, r6
 696 0600 0710A0E1 		mov	r1, r7
 697 0604 FEFFFFEB 		bl	__udivdi3
 698 0608 88419FE5 		ldr	r4, .L57+52
 699              		.loc 1 187 0
 700 060c 2010A0E3 		mov	r1, #32
 701              		.loc 1 186 0
 702 0610 000084E5 		str	r0, [r4, #0]
 703              		.loc 1 187 0
 704 0614 0800A0E1 		mov	r0, r8
 705 0618 FEFFFFEB 		bl	lcdGotoxy
 706              		.loc 1 188 0
 707 061c 000094E5 		ldr	r0, [r4, #0]
 708 0620 FEFFFFEB 		bl	lcdPutsNumber
 709              		.loc 1 189 0
 710 0624 70019FE5 		ldr	r0, .L57+56
 711 0628 FEFFFFEB 		bl	lcdPuts
 712              		.loc 1 190 0
 713 062c 6C319FE5 		ldr	r3, .L57+60
 714 0630 140000EA 		b	.L56
 715              	.L41:
 716              		.loc 1 193 0
 717 0634 0A00A0E1 		mov	r0, sl
 718 0638 0B10A0E1 		mov	r1, fp
 719 063c 0420A0E1 		mov	r2, r4
 720 0640 060050E0 		subs	r0, r0, r6
 721 0644 0710C1E0 		sbc	r1, r1, r7
 722 0648 0530A0E1 		mov	r3, r5
 723 064c FEFFFFEB 		bl	__udivdi3
 724 0650 4C419FE5 		ldr	r4, .L57+64
 725              		.loc 1 195 0
 726 0654 2010A0E3 		mov	r1, #32
 727              		.loc 1 193 0
 728 0658 000084E5 		str	r0, [r4, #0]
 729              		.loc 1 195 0
 730 065c 0900A0E1 		mov	r0, r9
 731 0660 FEFFFFEB 		bl	lcdGotoxy
 732              		.loc 1 196 0
 733 0664 004094E5 		ldr	r4, [r4, #0]
 734 0668 630054E3 		cmp	r4, #99
 735              		.loc 1 198 0
 736 066c 34019F85 		ldrhi	r0, .L57+68
 737              		.loc 1 196 0
 738 0670 0200008A 		bhi	.L55
 739              		.loc 1 199 0
 740 0674 090054E3 		cmp	r4, #9
 741              		.loc 1 201 0
 742 0678 2C019F85 		ldrhi	r0, .L57+72
 743              		.loc 1 204 0
 744 067c 2C019F95 		ldrls	r0, .L57+76
 745              	.L55:
 746 0680 FEFFFFEB 		bl	lcdPuts
 747              		.loc 1 206 0
 748 0684 18319FE5 		ldr	r3, .L57+64
ARM GAS  /cygdrive/c/DOCUME~1/mkwapisz/LOCALS~1/Temp/ccM9o8qX.s 			page 19


 749              	.L56:
 750 0688 000093E5 		ldr	r0, [r3, #0]
 751 068c FEFFFFEB 		bl	lcdPutsNumber
 752              	.L29:
 753              		.loc 1 216 0
 754 0690 DC309FE5 		ldr	r3, .L57+16
 755 0694 003093E5 		ldr	r3, [r3, #0]
 756 0698 003093E5 		ldr	r3, [r3, #0]
 757 069c 013043E2 		sub	r3, r3, #1
 758 06a0 010053E3 		cmp	r3, #1
 759 06a4 0D00009A 		bls	.L39
 760              	.LBB24:
 761              	.LBB25:
 762              		.loc 1 241 0
 763 06a8 BC309FE5 		ldr	r3, .L57+8
 764 06ac 0220A0E3 		mov	r2, #2
 765 06b0 042083E5 		str	r2, [r3, #4]
 766              		.loc 1 242 0
 767 06b4 0000E0E3 		mvn	r0, #0
 768 06b8 EF2F10E5 		ldr	r2, [r0, #-4079]
 769              		.loc 1 240 0
 770 06bc AC309FE5 		ldr	r3, .L57+12
 771 06c0 0110A0E3 		mov	r1, #1
 772              		.loc 1 242 0
 773 06c4 1020C2E3 		bic	r2, r2, #16
 774              		.loc 1 240 0
 775 06c8 0010C3E5 		strb	r1, [r3, #0]
 776              	.LBE25:
 777              	.LBE24:
 778              		.loc 1 219 0
 779 06cc E0309FE5 		ldr	r3, .L57+80
 780              	.LBB26:
 781              	.LBB27:
 782              		.loc 1 242 0
 783 06d0 EF2F00E5 		str	r2, [r0, #-4079]
 784              	.LBE27:
 785              	.LBE26:
 786              		.loc 1 219 0
 787 06d4 0020A0E3 		mov	r2, #0
 788 06d8 0020C3E5 		strb	r2, [r3, #0]
 789 06dc 1E0000EA 		b	.L53
 790              	.L39:
 791              		.loc 1 222 0
 792 06e0 CC309FE5 		ldr	r3, .L57+80
 793 06e4 0030D3E5 		ldrb	r3, [r3, #0]	@ zero_extendqisi2
 794 06e8 010053E3 		cmp	r3, #1
 795 06ec 1A00001A 		bne	.L53
 796              		.loc 1 224 0
 797 06f0 88409FE5 		ldr	r4, .L57+28
 798 06f4 0030D4E5 		ldrb	r3, [r4, #0]	@ zero_extendqisi2
 799 06f8 000053E3 		cmp	r3, #0
 800 06fc 0A00000A 		beq	.L50
 801              		.loc 1 226 0
 802 0700 7C309FE5 		ldr	r3, .L57+32
 803 0704 0020D3E5 		ldrb	r2, [r3, #0]	@ zero_extendqisi2
 804 0708 7C309FE5 		ldr	r3, .L57+40
 805 070c 0A1CA0E3 		mov	r1, #2560
ARM GAS  /cygdrive/c/DOCUME~1/mkwapisz/LOCALS~1/Temp/ccM9o8qX.s 			page 20


 806 0710 923120E0 		mla	r0, r2, r1, r3
 807 0714 9C209FE5 		ldr	r2, .L57+84
 808 0718 FEFFFFEB 		bl	pf_read
 809 071c 98309FE5 		ldr	r3, .L57+88
 810 0720 000083E5 		str	r0, [r3, #0]
 811              		.loc 1 227 0
 812 0724 0030A0E3 		mov	r3, #0
 813 0728 0030C4E5 		strb	r3, [r4, #0]
 814              	.L50:
 815              		.loc 1 230 0
 816 072c 40309FE5 		ldr	r3, .L57+16
 817 0730 003093E5 		ldr	r3, [r3, #0]
 818 0734 003093E5 		ldr	r3, [r3, #0]
 819 0738 010053E3 		cmp	r3, #1
 820 073c 0600001A 		bne	.L53
 821              		.loc 1 232 0
 822 0740 20309FE5 		ldr	r3, .L57+4
 823 0744 060093E8 		ldmia	r3, {r1-r2}
 824 0748 0140A0E3 		mov	r4, #1
 825 074c 041091E0 		adds	r1, r1, r4
 826 0750 0050A0E3 		mov	r5, #0
 827 0754 0520A2E0 		adc	r2, r2, r5
 828 0758 060083E8 		stmia	r3, {r1-r2}
 829              	.L53:
 830              		.loc 1 236 0
 831 075c F04FBDE8 		ldmfd	sp!, {r4, r5, r6, r7, r8, r9, sl, fp, lr}
 832 0760 1EFF2FE1 		bx	lr
 833              	.L58:
 834              		.align	2
 835              	.L57:
 836 0764 40020000 		.word	ws2
 837 0768 04000000 		.word	totalPlayed
 838 076c 004000E0 		.word	-536854528
 839 0770 14000000 		.word	koniecPetli
 840 0774 4C020000 		.word	status
 841 0778 02000000 		.word	sample
 842 077c 00000000 		.word	bufferPlayed
 843 0780 0C000000 		.word	refil
 844 0784 01000000 		.word	bufferToDownload
 845 0788 28020000 		.word	ws1
 846 078c 00000000 		.word	buffer
 847 0790 00C006E0 		.word	-536428544
 848 0794 50020000 		.word	timer
 849 0798 54020000 		.word	uplynelo
 850 079c 00000000 		.word	.LC0
 851 07a0 58020000 		.word	czasCalkowity
 852 07a4 5C020000 		.word	pozostalo
 853 07a8 04000000 		.word	.LC1
 854 07ac 08000000 		.word	.LC2
 855 07b0 0C000000 		.word	.LC3
 856 07b4 15000000 		.word	warunekKoncowy
 857 07b8 16020000 		.word	bytesReaded
 858 07bc 18020000 		.word	rc
 859              	.LFE5:
 860              		.size	callback1, .-callback1
 861              		.bss
 862              	bufferPlayed:
ARM GAS  /cygdrive/c/DOCUME~1/mkwapisz/LOCALS~1/Temp/ccM9o8qX.s 			page 21


 863 0000 00       		.space	1
 864              	bufferToDownload:
 865 0001 00       		.space	1
 866              		.align	1
 867              	sample:
 868 0002 0000     		.space	2
 869              		.align	2
 870              	totalPlayed:
 871 0004 00000000 		.space	8
 871      00000000 
 872              	refil:
 873 000c 00       		.space	1
 874 000d 000000   		.align	2
 875              	pDelayCallback:
 876 0010 00000000 		.space	4
 877              	koniecPetli:
 878 0014 00       		.space	1
 879              	warunekKoncowy:
 880 0015 00       		.space	1
 881              	wave_stream_buf:
 882 0016 00000000 		.space	512
 882      00000000 
 882      00000000 
 882      00000000 
 882      00000000 
 883              		.align	1
 884              	bytesReaded:
 885 0216 0000     		.space	2
 886              		.align	2
 887              	rc:
 888 0218 00000000 		.space	4
 889              		.align	2
 890              	wh:
 891 021c 00000000 		.space	12
 891      00000000 
 891      00000000 
 892              		.align	2
 893              	ws1:
 894 0228 00000000 		.space	24
 894      00000000 
 894      00000000 
 894      00000000 
 894      00000000 
 895              		.align	2
 896              	ws2:
 897 0240 00000000 		.space	12
 897      00000000 
 897      00000000 
 898              		.align	2
 899              	status:
 900 024c 00000000 		.space	4
 901              		.align	2
 902              	timer:
 903 0250 00000000 		.space	4
 904              		.align	2
 905              	uplynelo:
 906 0254 00000000 		.space	4
ARM GAS  /cygdrive/c/DOCUME~1/mkwapisz/LOCALS~1/Temp/ccM9o8qX.s 			page 22


 907              		.align	2
 908              	czasCalkowity:
 909 0258 00000000 		.space	4
 910              		.align	2
 911              	pozostalo:
 912 025c 00000000 		.space	4
 913              		.comm	buffer,5120,1
 914              		.section	.debug_frame,"",%progbits
 915              	.Lframe0:
 916 0000 0C000000 		.4byte	.LECIE0-.LSCIE0
 917              	.LSCIE0:
 918 0004 FFFFFFFF 		.4byte	0xffffffff
 919 0008 01       		.byte	0x1
 920 0009 00       		.ascii	"\000"
 921 000a 01       		.uleb128 0x1
 922 000b 7C       		.sleb128 -4
 923 000c 0E       		.byte	0xe
 924 000d 0C       		.byte	0xc
 925 000e 0D       		.uleb128 0xd
 926 000f 00       		.uleb128 0x0
 927              		.align	2
 928              	.LECIE0:
 929              	.LSFDE0:
 930 0010 1C000000 		.4byte	.LEFDE0-.LASFDE0
 931              	.LASFDE0:
 932 0014 00000000 		.4byte	.Lframe0
 933 0018 00000000 		.4byte	.LFB7
 934 001c 50000000 		.4byte	.LFE7-.LFB7
 935 0020 48       		.byte	0x4
 936              		.4byte	.LCFI0-.LFB7
 937 0021 0E       		.byte	0xe
 938 0022 18       		.uleb128 0x18
 939 0023 8E       		.byte	0x8e
 940 0024 01       		.uleb128 0x1
 941 0025 8C       		.byte	0x8c
 942 0026 02       		.uleb128 0x2
 943 0027 83       		.byte	0x83
 944 0028 03       		.uleb128 0x3
 945 0029 82       		.byte	0x82
 946 002a 04       		.uleb128 0x4
 947 002b 81       		.byte	0x81
 948 002c 05       		.uleb128 0x5
 949 002d 80       		.byte	0x80
 950 002e 06       		.uleb128 0x6
 951 002f 00       		.align	2
 952              	.LEFDE0:
 953              	.LSFDE2:
 954 0030 18000000 		.4byte	.LEFDE2-.LASFDE2
 955              	.LASFDE2:
 956 0034 00000000 		.4byte	.Lframe0
 957 0038 50000000 		.4byte	.LFB4
 958 003c B8010000 		.4byte	.LFE4-.LFB4
 959 0040 64       		.byte	0x4
 960              		.4byte	.LCFI1-.LFB4
 961 0041 0E       		.byte	0xe
 962 0042 10       		.uleb128 0x10
 963 0043 8E       		.byte	0x8e
ARM GAS  /cygdrive/c/DOCUME~1/mkwapisz/LOCALS~1/Temp/ccM9o8qX.s 			page 23


 964 0044 01       		.uleb128 0x1
 965 0045 86       		.byte	0x86
 966 0046 02       		.uleb128 0x2
 967 0047 85       		.byte	0x85
 968 0048 03       		.uleb128 0x3
 969 0049 84       		.byte	0x84
 970 004a 04       		.uleb128 0x4
 971 004b 00       		.align	2
 972              	.LEFDE2:
 973              	.LSFDE4:
 974 004c 24000000 		.4byte	.LEFDE4-.LASFDE4
 975              	.LASFDE4:
 976 0050 00000000 		.4byte	.Lframe0
 977 0054 08020000 		.4byte	.LFB3
 978 0058 98020000 		.4byte	.LFE3-.LFB3
 979 005c 44       		.byte	0x4
 980              		.4byte	.LCFI2-.LFB3
 981 005d 0E       		.byte	0xe
 982 005e 24       		.uleb128 0x24
 983 005f 8E       		.byte	0x8e
 984 0060 01       		.uleb128 0x1
 985 0061 8B       		.byte	0x8b
 986 0062 02       		.uleb128 0x2
 987 0063 8A       		.byte	0x8a
 988 0064 03       		.uleb128 0x3
 989 0065 89       		.byte	0x89
 990 0066 04       		.uleb128 0x4
 991 0067 88       		.byte	0x88
 992 0068 05       		.uleb128 0x5
 993 0069 87       		.byte	0x87
 994 006a 06       		.uleb128 0x6
 995 006b 86       		.byte	0x86
 996 006c 07       		.uleb128 0x7
 997 006d 85       		.byte	0x85
 998 006e 08       		.uleb128 0x8
 999 006f 84       		.byte	0x84
 1000 0070 09       		.uleb128 0x9
 1001 0071 54       		.byte	0x4
 1002              		.4byte	.LCFI3-.LCFI2
 1003 0072 0E       		.byte	0xe
 1004 0073 6C       		.uleb128 0x6c
 1005              		.align	2
 1006              	.LEFDE4:
 1007              	.LSFDE6:
 1008 0074 24000000 		.4byte	.LEFDE6-.LASFDE6
 1009              	.LASFDE6:
 1010 0078 00000000 		.4byte	.Lframe0
 1011 007c A0040000 		.4byte	.LFB5
 1012 0080 20030000 		.4byte	.LFE5-.LFB5
 1013 0084 50       		.byte	0x4
 1014              		.4byte	.LCFI4-.LFB5
 1015 0085 0E       		.byte	0xe
 1016 0086 24       		.uleb128 0x24
 1017 0087 8E       		.byte	0x8e
 1018 0088 01       		.uleb128 0x1
 1019 0089 8B       		.byte	0x8b
 1020 008a 02       		.uleb128 0x2
ARM GAS  /cygdrive/c/DOCUME~1/mkwapisz/LOCALS~1/Temp/ccM9o8qX.s 			page 24


 1021 008b 8A       		.byte	0x8a
 1022 008c 03       		.uleb128 0x3
 1023 008d 89       		.byte	0x89
 1024 008e 04       		.uleb128 0x4
 1025 008f 88       		.byte	0x88
 1026 0090 05       		.uleb128 0x5
 1027 0091 87       		.byte	0x87
 1028 0092 06       		.uleb128 0x6
 1029 0093 86       		.byte	0x86
 1030 0094 07       		.uleb128 0x7
 1031 0095 85       		.byte	0x85
 1032 0096 08       		.uleb128 0x8
 1033 0097 84       		.byte	0x84
 1034 0098 09       		.uleb128 0x9
 1035 0099 000000   		.align	2
 1036              	.LEFDE6:
 1037              		.file 2 "../../startup/../pre_emptive_os/api/general.h"
 1038              		.file 3 "../functions.h"
 1039              		.file 4 "wave.h"
 1040              		.file 5 "../testRGB.c"
 1041              		.file 6 "../pff2/src/integer.h"
 1042              		.file 7 "../pff2/src/pff.h"
 1043              		.text
 1044              	.Letext0: